
Smart_Home.elf:     file format elf32-avr

Sections:
Idx Name          Size      VMA       LMA       File off  Algn
  0 .text         00005cb0  00000000  00000000  00000094  2**1
                  CONTENTS, ALLOC, LOAD, READONLY, CODE
  1 .data         000002f6  00800060  00005cb0  00005d44  2**0
                  CONTENTS, ALLOC, LOAD, DATA
  2 .bss          00000029  00800356  00800356  0000603a  2**0
                  ALLOC
  3 .stab         00007884  00000000  00000000  0000603c  2**2
                  CONTENTS, READONLY, DEBUGGING
  4 .stabstr      00003bd0  00000000  00000000  0000d8c0  2**0
                  CONTENTS, READONLY, DEBUGGING
  5 .debug_aranges 000001c0  00000000  00000000  00011490  2**0
                  CONTENTS, READONLY, DEBUGGING
  6 .debug_pubnames 00000214  00000000  00000000  00011650  2**0
                  CONTENTS, READONLY, DEBUGGING
  7 .debug_info   00002612  00000000  00000000  00011864  2**0
                  CONTENTS, READONLY, DEBUGGING
  8 .debug_abbrev 000014ce  00000000  00000000  00013e76  2**0
                  CONTENTS, READONLY, DEBUGGING
  9 .debug_line   0000130b  00000000  00000000  00015344  2**0
                  CONTENTS, READONLY, DEBUGGING
 10 .debug_frame  000001e0  00000000  00000000  00016650  2**2
                  CONTENTS, READONLY, DEBUGGING
 11 .debug_str    00000307  00000000  00000000  00016830  2**0
                  CONTENTS, READONLY, DEBUGGING
 12 .debug_loc    00000a1a  00000000  00000000  00016b37  2**0
                  CONTENTS, READONLY, DEBUGGING
 13 .debug_ranges 00000050  00000000  00000000  00017551  2**0
                  CONTENTS, READONLY, DEBUGGING

Disassembly of section .text:

00000000 <__vectors>:
       0:	0c 94 2a 00 	jmp	0x54	; 0x54 <__ctors_end>
       4:	0c 94 47 00 	jmp	0x8e	; 0x8e <__bad_interrupt>
       8:	0c 94 47 00 	jmp	0x8e	; 0x8e <__bad_interrupt>
       c:	0c 94 47 00 	jmp	0x8e	; 0x8e <__bad_interrupt>
      10:	0c 94 47 00 	jmp	0x8e	; 0x8e <__bad_interrupt>
      14:	0c 94 47 00 	jmp	0x8e	; 0x8e <__bad_interrupt>
      18:	0c 94 47 00 	jmp	0x8e	; 0x8e <__bad_interrupt>
      1c:	0c 94 47 00 	jmp	0x8e	; 0x8e <__bad_interrupt>
      20:	0c 94 47 00 	jmp	0x8e	; 0x8e <__bad_interrupt>
      24:	0c 94 47 00 	jmp	0x8e	; 0x8e <__bad_interrupt>
      28:	0c 94 47 00 	jmp	0x8e	; 0x8e <__bad_interrupt>
      2c:	0c 94 47 00 	jmp	0x8e	; 0x8e <__bad_interrupt>
      30:	0c 94 47 00 	jmp	0x8e	; 0x8e <__bad_interrupt>
      34:	0c 94 47 00 	jmp	0x8e	; 0x8e <__bad_interrupt>
      38:	0c 94 47 00 	jmp	0x8e	; 0x8e <__bad_interrupt>
      3c:	0c 94 47 00 	jmp	0x8e	; 0x8e <__bad_interrupt>
      40:	0c 94 47 00 	jmp	0x8e	; 0x8e <__bad_interrupt>
      44:	0c 94 47 00 	jmp	0x8e	; 0x8e <__bad_interrupt>
      48:	0c 94 47 00 	jmp	0x8e	; 0x8e <__bad_interrupt>
      4c:	0c 94 47 00 	jmp	0x8e	; 0x8e <__bad_interrupt>
      50:	0c 94 47 00 	jmp	0x8e	; 0x8e <__bad_interrupt>

00000054 <__ctors_end>:
      54:	11 24       	eor	r1, r1
      56:	1f be       	out	0x3f, r1	; 63
      58:	cf e5       	ldi	r28, 0x5F	; 95
      5a:	d8 e0       	ldi	r29, 0x08	; 8
      5c:	de bf       	out	0x3e, r29	; 62
      5e:	cd bf       	out	0x3d, r28	; 61

00000060 <__do_copy_data>:
      60:	13 e0       	ldi	r17, 0x03	; 3
      62:	a0 e6       	ldi	r26, 0x60	; 96
      64:	b0 e0       	ldi	r27, 0x00	; 0
      66:	e0 eb       	ldi	r30, 0xB0	; 176
      68:	fc e5       	ldi	r31, 0x5C	; 92
      6a:	02 c0       	rjmp	.+4      	; 0x70 <.do_copy_data_start>

0000006c <.do_copy_data_loop>:
      6c:	05 90       	lpm	r0, Z+
      6e:	0d 92       	st	X+, r0

00000070 <.do_copy_data_start>:
      70:	a6 35       	cpi	r26, 0x56	; 86
      72:	b1 07       	cpc	r27, r17
      74:	d9 f7       	brne	.-10     	; 0x6c <.do_copy_data_loop>

00000076 <__do_clear_bss>:
      76:	13 e0       	ldi	r17, 0x03	; 3
      78:	a6 e5       	ldi	r26, 0x56	; 86
      7a:	b3 e0       	ldi	r27, 0x03	; 3
      7c:	01 c0       	rjmp	.+2      	; 0x80 <.do_clear_bss_start>

0000007e <.do_clear_bss_loop>:
      7e:	1d 92       	st	X+, r1

00000080 <.do_clear_bss_start>:
      80:	af 37       	cpi	r26, 0x7F	; 127
      82:	b1 07       	cpc	r27, r17
      84:	e1 f7       	brne	.-8      	; 0x7e <.do_clear_bss_loop>
      86:	0e 94 75 07 	call	0xeea	; 0xeea <main>
      8a:	0c 94 56 2e 	jmp	0x5cac	; 0x5cac <_exit>

0000008e <__bad_interrupt>:
      8e:	0c 94 00 00 	jmp	0	; 0x0 <__vectors>

00000092 <__fixunssfsi>:
      92:	ef 92       	push	r14
      94:	ff 92       	push	r15
      96:	0f 93       	push	r16
      98:	1f 93       	push	r17
      9a:	7b 01       	movw	r14, r22
      9c:	8c 01       	movw	r16, r24
      9e:	20 e0       	ldi	r18, 0x00	; 0
      a0:	30 e0       	ldi	r19, 0x00	; 0
      a2:	40 e0       	ldi	r20, 0x00	; 0
      a4:	5f e4       	ldi	r21, 0x4F	; 79
      a6:	0e 94 f5 03 	call	0x7ea	; 0x7ea <__gesf2>
      aa:	88 23       	and	r24, r24
      ac:	8c f0       	brlt	.+34     	; 0xd0 <__fixunssfsi+0x3e>
      ae:	c8 01       	movw	r24, r16
      b0:	b7 01       	movw	r22, r14
      b2:	20 e0       	ldi	r18, 0x00	; 0
      b4:	30 e0       	ldi	r19, 0x00	; 0
      b6:	40 e0       	ldi	r20, 0x00	; 0
      b8:	5f e4       	ldi	r21, 0x4F	; 79
      ba:	0e 94 c1 01 	call	0x382	; 0x382 <__subsf3>
      be:	0e 94 b3 04 	call	0x966	; 0x966 <__fixsfsi>
      c2:	9b 01       	movw	r18, r22
      c4:	ac 01       	movw	r20, r24
      c6:	20 50       	subi	r18, 0x00	; 0
      c8:	30 40       	sbci	r19, 0x00	; 0
      ca:	40 40       	sbci	r20, 0x00	; 0
      cc:	50 48       	sbci	r21, 0x80	; 128
      ce:	06 c0       	rjmp	.+12     	; 0xdc <__fixunssfsi+0x4a>
      d0:	c8 01       	movw	r24, r16
      d2:	b7 01       	movw	r22, r14
      d4:	0e 94 b3 04 	call	0x966	; 0x966 <__fixsfsi>
      d8:	9b 01       	movw	r18, r22
      da:	ac 01       	movw	r20, r24
      dc:	b9 01       	movw	r22, r18
      de:	ca 01       	movw	r24, r20
      e0:	1f 91       	pop	r17
      e2:	0f 91       	pop	r16
      e4:	ff 90       	pop	r15
      e6:	ef 90       	pop	r14
      e8:	08 95       	ret

000000ea <_fpadd_parts>:
      ea:	a0 e0       	ldi	r26, 0x00	; 0
      ec:	b0 e0       	ldi	r27, 0x00	; 0
      ee:	eb e7       	ldi	r30, 0x7B	; 123
      f0:	f0 e0       	ldi	r31, 0x00	; 0
      f2:	0c 94 9b 29 	jmp	0x5336	; 0x5336 <__prologue_saves__>
      f6:	dc 01       	movw	r26, r24
      f8:	2b 01       	movw	r4, r22
      fa:	fa 01       	movw	r30, r20
      fc:	9c 91       	ld	r25, X
      fe:	92 30       	cpi	r25, 0x02	; 2
     100:	08 f4       	brcc	.+2      	; 0x104 <_fpadd_parts+0x1a>
     102:	39 c1       	rjmp	.+626    	; 0x376 <_fpadd_parts+0x28c>
     104:	eb 01       	movw	r28, r22
     106:	88 81       	ld	r24, Y
     108:	82 30       	cpi	r24, 0x02	; 2
     10a:	08 f4       	brcc	.+2      	; 0x10e <_fpadd_parts+0x24>
     10c:	33 c1       	rjmp	.+614    	; 0x374 <_fpadd_parts+0x28a>
     10e:	94 30       	cpi	r25, 0x04	; 4
     110:	69 f4       	brne	.+26     	; 0x12c <_fpadd_parts+0x42>
     112:	84 30       	cpi	r24, 0x04	; 4
     114:	09 f0       	breq	.+2      	; 0x118 <_fpadd_parts+0x2e>
     116:	2f c1       	rjmp	.+606    	; 0x376 <_fpadd_parts+0x28c>
     118:	11 96       	adiw	r26, 0x01	; 1
     11a:	9c 91       	ld	r25, X
     11c:	11 97       	sbiw	r26, 0x01	; 1
     11e:	89 81       	ldd	r24, Y+1	; 0x01
     120:	98 17       	cp	r25, r24
     122:	09 f4       	brne	.+2      	; 0x126 <_fpadd_parts+0x3c>
     124:	28 c1       	rjmp	.+592    	; 0x376 <_fpadd_parts+0x28c>
     126:	a4 e3       	ldi	r26, 0x34	; 52
     128:	b2 e0       	ldi	r27, 0x02	; 2
     12a:	25 c1       	rjmp	.+586    	; 0x376 <_fpadd_parts+0x28c>
     12c:	84 30       	cpi	r24, 0x04	; 4
     12e:	09 f4       	brne	.+2      	; 0x132 <_fpadd_parts+0x48>
     130:	21 c1       	rjmp	.+578    	; 0x374 <_fpadd_parts+0x28a>
     132:	82 30       	cpi	r24, 0x02	; 2
     134:	a9 f4       	brne	.+42     	; 0x160 <_fpadd_parts+0x76>
     136:	92 30       	cpi	r25, 0x02	; 2
     138:	09 f0       	breq	.+2      	; 0x13c <_fpadd_parts+0x52>
     13a:	1d c1       	rjmp	.+570    	; 0x376 <_fpadd_parts+0x28c>
     13c:	9a 01       	movw	r18, r20
     13e:	ad 01       	movw	r20, r26
     140:	88 e0       	ldi	r24, 0x08	; 8
     142:	ea 01       	movw	r28, r20
     144:	09 90       	ld	r0, Y+
     146:	ae 01       	movw	r20, r28
     148:	e9 01       	movw	r28, r18
     14a:	09 92       	st	Y+, r0
     14c:	9e 01       	movw	r18, r28
     14e:	81 50       	subi	r24, 0x01	; 1
     150:	c1 f7       	brne	.-16     	; 0x142 <_fpadd_parts+0x58>
     152:	e2 01       	movw	r28, r4
     154:	89 81       	ldd	r24, Y+1	; 0x01
     156:	11 96       	adiw	r26, 0x01	; 1
     158:	9c 91       	ld	r25, X
     15a:	89 23       	and	r24, r25
     15c:	81 83       	std	Z+1, r24	; 0x01
     15e:	08 c1       	rjmp	.+528    	; 0x370 <_fpadd_parts+0x286>
     160:	92 30       	cpi	r25, 0x02	; 2
     162:	09 f4       	brne	.+2      	; 0x166 <_fpadd_parts+0x7c>
     164:	07 c1       	rjmp	.+526    	; 0x374 <_fpadd_parts+0x28a>
     166:	12 96       	adiw	r26, 0x02	; 2
     168:	2d 90       	ld	r2, X+
     16a:	3c 90       	ld	r3, X
     16c:	13 97       	sbiw	r26, 0x03	; 3
     16e:	eb 01       	movw	r28, r22
     170:	8a 81       	ldd	r24, Y+2	; 0x02
     172:	9b 81       	ldd	r25, Y+3	; 0x03
     174:	14 96       	adiw	r26, 0x04	; 4
     176:	ad 90       	ld	r10, X+
     178:	bd 90       	ld	r11, X+
     17a:	cd 90       	ld	r12, X+
     17c:	dc 90       	ld	r13, X
     17e:	17 97       	sbiw	r26, 0x07	; 7
     180:	ec 80       	ldd	r14, Y+4	; 0x04
     182:	fd 80       	ldd	r15, Y+5	; 0x05
     184:	0e 81       	ldd	r16, Y+6	; 0x06
     186:	1f 81       	ldd	r17, Y+7	; 0x07
     188:	91 01       	movw	r18, r2
     18a:	28 1b       	sub	r18, r24
     18c:	39 0b       	sbc	r19, r25
     18e:	b9 01       	movw	r22, r18
     190:	37 ff       	sbrs	r19, 7
     192:	04 c0       	rjmp	.+8      	; 0x19c <_fpadd_parts+0xb2>
     194:	66 27       	eor	r22, r22
     196:	77 27       	eor	r23, r23
     198:	62 1b       	sub	r22, r18
     19a:	73 0b       	sbc	r23, r19
     19c:	60 32       	cpi	r22, 0x20	; 32
     19e:	71 05       	cpc	r23, r1
     1a0:	0c f0       	brlt	.+2      	; 0x1a4 <_fpadd_parts+0xba>
     1a2:	61 c0       	rjmp	.+194    	; 0x266 <_fpadd_parts+0x17c>
     1a4:	12 16       	cp	r1, r18
     1a6:	13 06       	cpc	r1, r19
     1a8:	6c f5       	brge	.+90     	; 0x204 <_fpadd_parts+0x11a>
     1aa:	37 01       	movw	r6, r14
     1ac:	48 01       	movw	r8, r16
     1ae:	06 2e       	mov	r0, r22
     1b0:	04 c0       	rjmp	.+8      	; 0x1ba <_fpadd_parts+0xd0>
     1b2:	96 94       	lsr	r9
     1b4:	87 94       	ror	r8
     1b6:	77 94       	ror	r7
     1b8:	67 94       	ror	r6
     1ba:	0a 94       	dec	r0
     1bc:	d2 f7       	brpl	.-12     	; 0x1b2 <_fpadd_parts+0xc8>
     1be:	21 e0       	ldi	r18, 0x01	; 1
     1c0:	30 e0       	ldi	r19, 0x00	; 0
     1c2:	40 e0       	ldi	r20, 0x00	; 0
     1c4:	50 e0       	ldi	r21, 0x00	; 0
     1c6:	04 c0       	rjmp	.+8      	; 0x1d0 <_fpadd_parts+0xe6>
     1c8:	22 0f       	add	r18, r18
     1ca:	33 1f       	adc	r19, r19
     1cc:	44 1f       	adc	r20, r20
     1ce:	55 1f       	adc	r21, r21
     1d0:	6a 95       	dec	r22
     1d2:	d2 f7       	brpl	.-12     	; 0x1c8 <_fpadd_parts+0xde>
     1d4:	21 50       	subi	r18, 0x01	; 1
     1d6:	30 40       	sbci	r19, 0x00	; 0
     1d8:	40 40       	sbci	r20, 0x00	; 0
     1da:	50 40       	sbci	r21, 0x00	; 0
     1dc:	2e 21       	and	r18, r14
     1de:	3f 21       	and	r19, r15
     1e0:	40 23       	and	r20, r16
     1e2:	51 23       	and	r21, r17
     1e4:	21 15       	cp	r18, r1
     1e6:	31 05       	cpc	r19, r1
     1e8:	41 05       	cpc	r20, r1
     1ea:	51 05       	cpc	r21, r1
     1ec:	21 f0       	breq	.+8      	; 0x1f6 <_fpadd_parts+0x10c>
     1ee:	21 e0       	ldi	r18, 0x01	; 1
     1f0:	30 e0       	ldi	r19, 0x00	; 0
     1f2:	40 e0       	ldi	r20, 0x00	; 0
     1f4:	50 e0       	ldi	r21, 0x00	; 0
     1f6:	79 01       	movw	r14, r18
     1f8:	8a 01       	movw	r16, r20
     1fa:	e6 28       	or	r14, r6
     1fc:	f7 28       	or	r15, r7
     1fe:	08 29       	or	r16, r8
     200:	19 29       	or	r17, r9
     202:	3c c0       	rjmp	.+120    	; 0x27c <_fpadd_parts+0x192>
     204:	23 2b       	or	r18, r19
     206:	d1 f1       	breq	.+116    	; 0x27c <_fpadd_parts+0x192>
     208:	26 0e       	add	r2, r22
     20a:	37 1e       	adc	r3, r23
     20c:	35 01       	movw	r6, r10
     20e:	46 01       	movw	r8, r12
     210:	06 2e       	mov	r0, r22
     212:	04 c0       	rjmp	.+8      	; 0x21c <_fpadd_parts+0x132>
     214:	96 94       	lsr	r9
     216:	87 94       	ror	r8
     218:	77 94       	ror	r7
     21a:	67 94       	ror	r6
     21c:	0a 94       	dec	r0
     21e:	d2 f7       	brpl	.-12     	; 0x214 <_fpadd_parts+0x12a>
     220:	21 e0       	ldi	r18, 0x01	; 1
     222:	30 e0       	ldi	r19, 0x00	; 0
     224:	40 e0       	ldi	r20, 0x00	; 0
     226:	50 e0       	ldi	r21, 0x00	; 0
     228:	04 c0       	rjmp	.+8      	; 0x232 <_fpadd_parts+0x148>
     22a:	22 0f       	add	r18, r18
     22c:	33 1f       	adc	r19, r19
     22e:	44 1f       	adc	r20, r20
     230:	55 1f       	adc	r21, r21
     232:	6a 95       	dec	r22
     234:	d2 f7       	brpl	.-12     	; 0x22a <_fpadd_parts+0x140>
     236:	21 50       	subi	r18, 0x01	; 1
     238:	30 40       	sbci	r19, 0x00	; 0
     23a:	40 40       	sbci	r20, 0x00	; 0
     23c:	50 40       	sbci	r21, 0x00	; 0
     23e:	2a 21       	and	r18, r10
     240:	3b 21       	and	r19, r11
     242:	4c 21       	and	r20, r12
     244:	5d 21       	and	r21, r13
     246:	21 15       	cp	r18, r1
     248:	31 05       	cpc	r19, r1
     24a:	41 05       	cpc	r20, r1
     24c:	51 05       	cpc	r21, r1
     24e:	21 f0       	breq	.+8      	; 0x258 <_fpadd_parts+0x16e>
     250:	21 e0       	ldi	r18, 0x01	; 1
     252:	30 e0       	ldi	r19, 0x00	; 0
     254:	40 e0       	ldi	r20, 0x00	; 0
     256:	50 e0       	ldi	r21, 0x00	; 0
     258:	59 01       	movw	r10, r18
     25a:	6a 01       	movw	r12, r20
     25c:	a6 28       	or	r10, r6
     25e:	b7 28       	or	r11, r7
     260:	c8 28       	or	r12, r8
     262:	d9 28       	or	r13, r9
     264:	0b c0       	rjmp	.+22     	; 0x27c <_fpadd_parts+0x192>
     266:	82 15       	cp	r24, r2
     268:	93 05       	cpc	r25, r3
     26a:	2c f0       	brlt	.+10     	; 0x276 <_fpadd_parts+0x18c>
     26c:	1c 01       	movw	r2, r24
     26e:	aa 24       	eor	r10, r10
     270:	bb 24       	eor	r11, r11
     272:	65 01       	movw	r12, r10
     274:	03 c0       	rjmp	.+6      	; 0x27c <_fpadd_parts+0x192>
     276:	ee 24       	eor	r14, r14
     278:	ff 24       	eor	r15, r15
     27a:	87 01       	movw	r16, r14
     27c:	11 96       	adiw	r26, 0x01	; 1
     27e:	9c 91       	ld	r25, X
     280:	d2 01       	movw	r26, r4
     282:	11 96       	adiw	r26, 0x01	; 1
     284:	8c 91       	ld	r24, X
     286:	98 17       	cp	r25, r24
     288:	09 f4       	brne	.+2      	; 0x28c <_fpadd_parts+0x1a2>
     28a:	45 c0       	rjmp	.+138    	; 0x316 <_fpadd_parts+0x22c>
     28c:	99 23       	and	r25, r25
     28e:	39 f0       	breq	.+14     	; 0x29e <_fpadd_parts+0x1b4>
     290:	a8 01       	movw	r20, r16
     292:	97 01       	movw	r18, r14
     294:	2a 19       	sub	r18, r10
     296:	3b 09       	sbc	r19, r11
     298:	4c 09       	sbc	r20, r12
     29a:	5d 09       	sbc	r21, r13
     29c:	06 c0       	rjmp	.+12     	; 0x2aa <_fpadd_parts+0x1c0>
     29e:	a6 01       	movw	r20, r12
     2a0:	95 01       	movw	r18, r10
     2a2:	2e 19       	sub	r18, r14
     2a4:	3f 09       	sbc	r19, r15
     2a6:	40 0b       	sbc	r20, r16
     2a8:	51 0b       	sbc	r21, r17
     2aa:	57 fd       	sbrc	r21, 7
     2ac:	08 c0       	rjmp	.+16     	; 0x2be <_fpadd_parts+0x1d4>
     2ae:	11 82       	std	Z+1, r1	; 0x01
     2b0:	33 82       	std	Z+3, r3	; 0x03
     2b2:	22 82       	std	Z+2, r2	; 0x02
     2b4:	24 83       	std	Z+4, r18	; 0x04
     2b6:	35 83       	std	Z+5, r19	; 0x05
     2b8:	46 83       	std	Z+6, r20	; 0x06
     2ba:	57 83       	std	Z+7, r21	; 0x07
     2bc:	1d c0       	rjmp	.+58     	; 0x2f8 <_fpadd_parts+0x20e>
     2be:	81 e0       	ldi	r24, 0x01	; 1
     2c0:	81 83       	std	Z+1, r24	; 0x01
     2c2:	33 82       	std	Z+3, r3	; 0x03
     2c4:	22 82       	std	Z+2, r2	; 0x02
     2c6:	88 27       	eor	r24, r24
     2c8:	99 27       	eor	r25, r25
     2ca:	dc 01       	movw	r26, r24
     2cc:	82 1b       	sub	r24, r18
     2ce:	93 0b       	sbc	r25, r19
     2d0:	a4 0b       	sbc	r26, r20
     2d2:	b5 0b       	sbc	r27, r21
     2d4:	84 83       	std	Z+4, r24	; 0x04
     2d6:	95 83       	std	Z+5, r25	; 0x05
     2d8:	a6 83       	std	Z+6, r26	; 0x06
     2da:	b7 83       	std	Z+7, r27	; 0x07
     2dc:	0d c0       	rjmp	.+26     	; 0x2f8 <_fpadd_parts+0x20e>
     2de:	22 0f       	add	r18, r18
     2e0:	33 1f       	adc	r19, r19
     2e2:	44 1f       	adc	r20, r20
     2e4:	55 1f       	adc	r21, r21
     2e6:	24 83       	std	Z+4, r18	; 0x04
     2e8:	35 83       	std	Z+5, r19	; 0x05
     2ea:	46 83       	std	Z+6, r20	; 0x06
     2ec:	57 83       	std	Z+7, r21	; 0x07
     2ee:	82 81       	ldd	r24, Z+2	; 0x02
     2f0:	93 81       	ldd	r25, Z+3	; 0x03
     2f2:	01 97       	sbiw	r24, 0x01	; 1
     2f4:	93 83       	std	Z+3, r25	; 0x03
     2f6:	82 83       	std	Z+2, r24	; 0x02
     2f8:	24 81       	ldd	r18, Z+4	; 0x04
     2fa:	35 81       	ldd	r19, Z+5	; 0x05
     2fc:	46 81       	ldd	r20, Z+6	; 0x06
     2fe:	57 81       	ldd	r21, Z+7	; 0x07
     300:	da 01       	movw	r26, r20
     302:	c9 01       	movw	r24, r18
     304:	01 97       	sbiw	r24, 0x01	; 1
     306:	a1 09       	sbc	r26, r1
     308:	b1 09       	sbc	r27, r1
     30a:	8f 5f       	subi	r24, 0xFF	; 255
     30c:	9f 4f       	sbci	r25, 0xFF	; 255
     30e:	af 4f       	sbci	r26, 0xFF	; 255
     310:	bf 43       	sbci	r27, 0x3F	; 63
     312:	28 f3       	brcs	.-54     	; 0x2de <_fpadd_parts+0x1f4>
     314:	0b c0       	rjmp	.+22     	; 0x32c <_fpadd_parts+0x242>
     316:	91 83       	std	Z+1, r25	; 0x01
     318:	33 82       	std	Z+3, r3	; 0x03
     31a:	22 82       	std	Z+2, r2	; 0x02
     31c:	ea 0c       	add	r14, r10
     31e:	fb 1c       	adc	r15, r11
     320:	0c 1d       	adc	r16, r12
     322:	1d 1d       	adc	r17, r13
     324:	e4 82       	std	Z+4, r14	; 0x04
     326:	f5 82       	std	Z+5, r15	; 0x05
     328:	06 83       	std	Z+6, r16	; 0x06
     32a:	17 83       	std	Z+7, r17	; 0x07
     32c:	83 e0       	ldi	r24, 0x03	; 3
     32e:	80 83       	st	Z, r24
     330:	24 81       	ldd	r18, Z+4	; 0x04
     332:	35 81       	ldd	r19, Z+5	; 0x05
     334:	46 81       	ldd	r20, Z+6	; 0x06
     336:	57 81       	ldd	r21, Z+7	; 0x07
     338:	57 ff       	sbrs	r21, 7
     33a:	1a c0       	rjmp	.+52     	; 0x370 <_fpadd_parts+0x286>
     33c:	c9 01       	movw	r24, r18
     33e:	aa 27       	eor	r26, r26
     340:	97 fd       	sbrc	r25, 7
     342:	a0 95       	com	r26
     344:	ba 2f       	mov	r27, r26
     346:	81 70       	andi	r24, 0x01	; 1
     348:	90 70       	andi	r25, 0x00	; 0
     34a:	a0 70       	andi	r26, 0x00	; 0
     34c:	b0 70       	andi	r27, 0x00	; 0
     34e:	56 95       	lsr	r21
     350:	47 95       	ror	r20
     352:	37 95       	ror	r19
     354:	27 95       	ror	r18
     356:	82 2b       	or	r24, r18
     358:	93 2b       	or	r25, r19
     35a:	a4 2b       	or	r26, r20
     35c:	b5 2b       	or	r27, r21
     35e:	84 83       	std	Z+4, r24	; 0x04
     360:	95 83       	std	Z+5, r25	; 0x05
     362:	a6 83       	std	Z+6, r26	; 0x06
     364:	b7 83       	std	Z+7, r27	; 0x07
     366:	82 81       	ldd	r24, Z+2	; 0x02
     368:	93 81       	ldd	r25, Z+3	; 0x03
     36a:	01 96       	adiw	r24, 0x01	; 1
     36c:	93 83       	std	Z+3, r25	; 0x03
     36e:	82 83       	std	Z+2, r24	; 0x02
     370:	df 01       	movw	r26, r30
     372:	01 c0       	rjmp	.+2      	; 0x376 <_fpadd_parts+0x28c>
     374:	d2 01       	movw	r26, r4
     376:	cd 01       	movw	r24, r26
     378:	cd b7       	in	r28, 0x3d	; 61
     37a:	de b7       	in	r29, 0x3e	; 62
     37c:	e2 e1       	ldi	r30, 0x12	; 18
     37e:	0c 94 b7 29 	jmp	0x536e	; 0x536e <__epilogue_restores__>

00000382 <__subsf3>:
     382:	a0 e2       	ldi	r26, 0x20	; 32
     384:	b0 e0       	ldi	r27, 0x00	; 0
     386:	e7 ec       	ldi	r30, 0xC7	; 199
     388:	f1 e0       	ldi	r31, 0x01	; 1
     38a:	0c 94 a7 29 	jmp	0x534e	; 0x534e <__prologue_saves__+0x18>
     38e:	69 83       	std	Y+1, r22	; 0x01
     390:	7a 83       	std	Y+2, r23	; 0x02
     392:	8b 83       	std	Y+3, r24	; 0x03
     394:	9c 83       	std	Y+4, r25	; 0x04
     396:	2d 83       	std	Y+5, r18	; 0x05
     398:	3e 83       	std	Y+6, r19	; 0x06
     39a:	4f 83       	std	Y+7, r20	; 0x07
     39c:	58 87       	std	Y+8, r21	; 0x08
     39e:	e9 e0       	ldi	r30, 0x09	; 9
     3a0:	ee 2e       	mov	r14, r30
     3a2:	f1 2c       	mov	r15, r1
     3a4:	ec 0e       	add	r14, r28
     3a6:	fd 1e       	adc	r15, r29
     3a8:	ce 01       	movw	r24, r28
     3aa:	01 96       	adiw	r24, 0x01	; 1
     3ac:	b7 01       	movw	r22, r14
     3ae:	0e 94 a4 06 	call	0xd48	; 0xd48 <__unpack_f>
     3b2:	8e 01       	movw	r16, r28
     3b4:	0f 5e       	subi	r16, 0xEF	; 239
     3b6:	1f 4f       	sbci	r17, 0xFF	; 255
     3b8:	ce 01       	movw	r24, r28
     3ba:	05 96       	adiw	r24, 0x05	; 5
     3bc:	b8 01       	movw	r22, r16
     3be:	0e 94 a4 06 	call	0xd48	; 0xd48 <__unpack_f>
     3c2:	8a 89       	ldd	r24, Y+18	; 0x12
     3c4:	91 e0       	ldi	r25, 0x01	; 1
     3c6:	89 27       	eor	r24, r25
     3c8:	8a 8b       	std	Y+18, r24	; 0x12
     3ca:	c7 01       	movw	r24, r14
     3cc:	b8 01       	movw	r22, r16
     3ce:	ae 01       	movw	r20, r28
     3d0:	47 5e       	subi	r20, 0xE7	; 231
     3d2:	5f 4f       	sbci	r21, 0xFF	; 255
     3d4:	0e 94 75 00 	call	0xea	; 0xea <_fpadd_parts>
     3d8:	0e 94 cf 05 	call	0xb9e	; 0xb9e <__pack_f>
     3dc:	a0 96       	adiw	r28, 0x20	; 32
     3de:	e6 e0       	ldi	r30, 0x06	; 6
     3e0:	0c 94 c3 29 	jmp	0x5386	; 0x5386 <__epilogue_restores__+0x18>

000003e4 <__addsf3>:
     3e4:	a0 e2       	ldi	r26, 0x20	; 32
     3e6:	b0 e0       	ldi	r27, 0x00	; 0
     3e8:	e8 ef       	ldi	r30, 0xF8	; 248
     3ea:	f1 e0       	ldi	r31, 0x01	; 1
     3ec:	0c 94 a7 29 	jmp	0x534e	; 0x534e <__prologue_saves__+0x18>
     3f0:	69 83       	std	Y+1, r22	; 0x01
     3f2:	7a 83       	std	Y+2, r23	; 0x02
     3f4:	8b 83       	std	Y+3, r24	; 0x03
     3f6:	9c 83       	std	Y+4, r25	; 0x04
     3f8:	2d 83       	std	Y+5, r18	; 0x05
     3fa:	3e 83       	std	Y+6, r19	; 0x06
     3fc:	4f 83       	std	Y+7, r20	; 0x07
     3fe:	58 87       	std	Y+8, r21	; 0x08
     400:	f9 e0       	ldi	r31, 0x09	; 9
     402:	ef 2e       	mov	r14, r31
     404:	f1 2c       	mov	r15, r1
     406:	ec 0e       	add	r14, r28
     408:	fd 1e       	adc	r15, r29
     40a:	ce 01       	movw	r24, r28
     40c:	01 96       	adiw	r24, 0x01	; 1
     40e:	b7 01       	movw	r22, r14
     410:	0e 94 a4 06 	call	0xd48	; 0xd48 <__unpack_f>
     414:	8e 01       	movw	r16, r28
     416:	0f 5e       	subi	r16, 0xEF	; 239
     418:	1f 4f       	sbci	r17, 0xFF	; 255
     41a:	ce 01       	movw	r24, r28
     41c:	05 96       	adiw	r24, 0x05	; 5
     41e:	b8 01       	movw	r22, r16
     420:	0e 94 a4 06 	call	0xd48	; 0xd48 <__unpack_f>
     424:	c7 01       	movw	r24, r14
     426:	b8 01       	movw	r22, r16
     428:	ae 01       	movw	r20, r28
     42a:	47 5e       	subi	r20, 0xE7	; 231
     42c:	5f 4f       	sbci	r21, 0xFF	; 255
     42e:	0e 94 75 00 	call	0xea	; 0xea <_fpadd_parts>
     432:	0e 94 cf 05 	call	0xb9e	; 0xb9e <__pack_f>
     436:	a0 96       	adiw	r28, 0x20	; 32
     438:	e6 e0       	ldi	r30, 0x06	; 6
     43a:	0c 94 c3 29 	jmp	0x5386	; 0x5386 <__epilogue_restores__+0x18>

0000043e <__mulsf3>:
     43e:	a0 e2       	ldi	r26, 0x20	; 32
     440:	b0 e0       	ldi	r27, 0x00	; 0
     442:	e5 e2       	ldi	r30, 0x25	; 37
     444:	f2 e0       	ldi	r31, 0x02	; 2
     446:	0c 94 9b 29 	jmp	0x5336	; 0x5336 <__prologue_saves__>
     44a:	69 83       	std	Y+1, r22	; 0x01
     44c:	7a 83       	std	Y+2, r23	; 0x02
     44e:	8b 83       	std	Y+3, r24	; 0x03
     450:	9c 83       	std	Y+4, r25	; 0x04
     452:	2d 83       	std	Y+5, r18	; 0x05
     454:	3e 83       	std	Y+6, r19	; 0x06
     456:	4f 83       	std	Y+7, r20	; 0x07
     458:	58 87       	std	Y+8, r21	; 0x08
     45a:	ce 01       	movw	r24, r28
     45c:	01 96       	adiw	r24, 0x01	; 1
     45e:	be 01       	movw	r22, r28
     460:	67 5f       	subi	r22, 0xF7	; 247
     462:	7f 4f       	sbci	r23, 0xFF	; 255
     464:	0e 94 a4 06 	call	0xd48	; 0xd48 <__unpack_f>
     468:	ce 01       	movw	r24, r28
     46a:	05 96       	adiw	r24, 0x05	; 5
     46c:	be 01       	movw	r22, r28
     46e:	6f 5e       	subi	r22, 0xEF	; 239
     470:	7f 4f       	sbci	r23, 0xFF	; 255
     472:	0e 94 a4 06 	call	0xd48	; 0xd48 <__unpack_f>
     476:	99 85       	ldd	r25, Y+9	; 0x09
     478:	92 30       	cpi	r25, 0x02	; 2
     47a:	88 f0       	brcs	.+34     	; 0x49e <__mulsf3+0x60>
     47c:	89 89       	ldd	r24, Y+17	; 0x11
     47e:	82 30       	cpi	r24, 0x02	; 2
     480:	c8 f0       	brcs	.+50     	; 0x4b4 <__mulsf3+0x76>
     482:	94 30       	cpi	r25, 0x04	; 4
     484:	19 f4       	brne	.+6      	; 0x48c <__mulsf3+0x4e>
     486:	82 30       	cpi	r24, 0x02	; 2
     488:	51 f4       	brne	.+20     	; 0x49e <__mulsf3+0x60>
     48a:	04 c0       	rjmp	.+8      	; 0x494 <__mulsf3+0x56>
     48c:	84 30       	cpi	r24, 0x04	; 4
     48e:	29 f4       	brne	.+10     	; 0x49a <__mulsf3+0x5c>
     490:	92 30       	cpi	r25, 0x02	; 2
     492:	81 f4       	brne	.+32     	; 0x4b4 <__mulsf3+0x76>
     494:	84 e3       	ldi	r24, 0x34	; 52
     496:	92 e0       	ldi	r25, 0x02	; 2
     498:	c6 c0       	rjmp	.+396    	; 0x626 <__mulsf3+0x1e8>
     49a:	92 30       	cpi	r25, 0x02	; 2
     49c:	49 f4       	brne	.+18     	; 0x4b0 <__mulsf3+0x72>
     49e:	20 e0       	ldi	r18, 0x00	; 0
     4a0:	9a 85       	ldd	r25, Y+10	; 0x0a
     4a2:	8a 89       	ldd	r24, Y+18	; 0x12
     4a4:	98 13       	cpse	r25, r24
     4a6:	21 e0       	ldi	r18, 0x01	; 1
     4a8:	2a 87       	std	Y+10, r18	; 0x0a
     4aa:	ce 01       	movw	r24, r28
     4ac:	09 96       	adiw	r24, 0x09	; 9
     4ae:	bb c0       	rjmp	.+374    	; 0x626 <__mulsf3+0x1e8>
     4b0:	82 30       	cpi	r24, 0x02	; 2
     4b2:	49 f4       	brne	.+18     	; 0x4c6 <__mulsf3+0x88>
     4b4:	20 e0       	ldi	r18, 0x00	; 0
     4b6:	9a 85       	ldd	r25, Y+10	; 0x0a
     4b8:	8a 89       	ldd	r24, Y+18	; 0x12
     4ba:	98 13       	cpse	r25, r24
     4bc:	21 e0       	ldi	r18, 0x01	; 1
     4be:	2a 8b       	std	Y+18, r18	; 0x12
     4c0:	ce 01       	movw	r24, r28
     4c2:	41 96       	adiw	r24, 0x11	; 17
     4c4:	b0 c0       	rjmp	.+352    	; 0x626 <__mulsf3+0x1e8>
     4c6:	2d 84       	ldd	r2, Y+13	; 0x0d
     4c8:	3e 84       	ldd	r3, Y+14	; 0x0e
     4ca:	4f 84       	ldd	r4, Y+15	; 0x0f
     4cc:	58 88       	ldd	r5, Y+16	; 0x10
     4ce:	6d 88       	ldd	r6, Y+21	; 0x15
     4d0:	7e 88       	ldd	r7, Y+22	; 0x16
     4d2:	8f 88       	ldd	r8, Y+23	; 0x17
     4d4:	98 8c       	ldd	r9, Y+24	; 0x18
     4d6:	ee 24       	eor	r14, r14
     4d8:	ff 24       	eor	r15, r15
     4da:	87 01       	movw	r16, r14
     4dc:	aa 24       	eor	r10, r10
     4de:	bb 24       	eor	r11, r11
     4e0:	65 01       	movw	r12, r10
     4e2:	40 e0       	ldi	r20, 0x00	; 0
     4e4:	50 e0       	ldi	r21, 0x00	; 0
     4e6:	60 e0       	ldi	r22, 0x00	; 0
     4e8:	70 e0       	ldi	r23, 0x00	; 0
     4ea:	e0 e0       	ldi	r30, 0x00	; 0
     4ec:	f0 e0       	ldi	r31, 0x00	; 0
     4ee:	c1 01       	movw	r24, r2
     4f0:	81 70       	andi	r24, 0x01	; 1
     4f2:	90 70       	andi	r25, 0x00	; 0
     4f4:	89 2b       	or	r24, r25
     4f6:	e9 f0       	breq	.+58     	; 0x532 <__mulsf3+0xf4>
     4f8:	e6 0c       	add	r14, r6
     4fa:	f7 1c       	adc	r15, r7
     4fc:	08 1d       	adc	r16, r8
     4fe:	19 1d       	adc	r17, r9
     500:	9a 01       	movw	r18, r20
     502:	ab 01       	movw	r20, r22
     504:	2a 0d       	add	r18, r10
     506:	3b 1d       	adc	r19, r11
     508:	4c 1d       	adc	r20, r12
     50a:	5d 1d       	adc	r21, r13
     50c:	80 e0       	ldi	r24, 0x00	; 0
     50e:	90 e0       	ldi	r25, 0x00	; 0
     510:	a0 e0       	ldi	r26, 0x00	; 0
     512:	b0 e0       	ldi	r27, 0x00	; 0
     514:	e6 14       	cp	r14, r6
     516:	f7 04       	cpc	r15, r7
     518:	08 05       	cpc	r16, r8
     51a:	19 05       	cpc	r17, r9
     51c:	20 f4       	brcc	.+8      	; 0x526 <__mulsf3+0xe8>
     51e:	81 e0       	ldi	r24, 0x01	; 1
     520:	90 e0       	ldi	r25, 0x00	; 0
     522:	a0 e0       	ldi	r26, 0x00	; 0
     524:	b0 e0       	ldi	r27, 0x00	; 0
     526:	ba 01       	movw	r22, r20
     528:	a9 01       	movw	r20, r18
     52a:	48 0f       	add	r20, r24
     52c:	59 1f       	adc	r21, r25
     52e:	6a 1f       	adc	r22, r26
     530:	7b 1f       	adc	r23, r27
     532:	aa 0c       	add	r10, r10
     534:	bb 1c       	adc	r11, r11
     536:	cc 1c       	adc	r12, r12
     538:	dd 1c       	adc	r13, r13
     53a:	97 fe       	sbrs	r9, 7
     53c:	08 c0       	rjmp	.+16     	; 0x54e <__mulsf3+0x110>
     53e:	81 e0       	ldi	r24, 0x01	; 1
     540:	90 e0       	ldi	r25, 0x00	; 0
     542:	a0 e0       	ldi	r26, 0x00	; 0
     544:	b0 e0       	ldi	r27, 0x00	; 0
     546:	a8 2a       	or	r10, r24
     548:	b9 2a       	or	r11, r25
     54a:	ca 2a       	or	r12, r26
     54c:	db 2a       	or	r13, r27
     54e:	31 96       	adiw	r30, 0x01	; 1
     550:	e0 32       	cpi	r30, 0x20	; 32
     552:	f1 05       	cpc	r31, r1
     554:	49 f0       	breq	.+18     	; 0x568 <__mulsf3+0x12a>
     556:	66 0c       	add	r6, r6
     558:	77 1c       	adc	r7, r7
     55a:	88 1c       	adc	r8, r8
     55c:	99 1c       	adc	r9, r9
     55e:	56 94       	lsr	r5
     560:	47 94       	ror	r4
     562:	37 94       	ror	r3
     564:	27 94       	ror	r2
     566:	c3 cf       	rjmp	.-122    	; 0x4ee <__mulsf3+0xb0>
     568:	fa 85       	ldd	r31, Y+10	; 0x0a
     56a:	ea 89       	ldd	r30, Y+18	; 0x12
     56c:	2b 89       	ldd	r18, Y+19	; 0x13
     56e:	3c 89       	ldd	r19, Y+20	; 0x14
     570:	8b 85       	ldd	r24, Y+11	; 0x0b
     572:	9c 85       	ldd	r25, Y+12	; 0x0c
     574:	28 0f       	add	r18, r24
     576:	39 1f       	adc	r19, r25
     578:	2e 5f       	subi	r18, 0xFE	; 254
     57a:	3f 4f       	sbci	r19, 0xFF	; 255
     57c:	17 c0       	rjmp	.+46     	; 0x5ac <__mulsf3+0x16e>
     57e:	ca 01       	movw	r24, r20
     580:	81 70       	andi	r24, 0x01	; 1
     582:	90 70       	andi	r25, 0x00	; 0
     584:	89 2b       	or	r24, r25
     586:	61 f0       	breq	.+24     	; 0x5a0 <__mulsf3+0x162>
     588:	16 95       	lsr	r17
     58a:	07 95       	ror	r16
     58c:	f7 94       	ror	r15
     58e:	e7 94       	ror	r14
     590:	80 e0       	ldi	r24, 0x00	; 0
     592:	90 e0       	ldi	r25, 0x00	; 0
     594:	a0 e0       	ldi	r26, 0x00	; 0
     596:	b0 e8       	ldi	r27, 0x80	; 128
     598:	e8 2a       	or	r14, r24
     59a:	f9 2a       	or	r15, r25
     59c:	0a 2b       	or	r16, r26
     59e:	1b 2b       	or	r17, r27
     5a0:	76 95       	lsr	r23
     5a2:	67 95       	ror	r22
     5a4:	57 95       	ror	r21
     5a6:	47 95       	ror	r20
     5a8:	2f 5f       	subi	r18, 0xFF	; 255
     5aa:	3f 4f       	sbci	r19, 0xFF	; 255
     5ac:	77 fd       	sbrc	r23, 7
     5ae:	e7 cf       	rjmp	.-50     	; 0x57e <__mulsf3+0x140>
     5b0:	0c c0       	rjmp	.+24     	; 0x5ca <__mulsf3+0x18c>
     5b2:	44 0f       	add	r20, r20
     5b4:	55 1f       	adc	r21, r21
     5b6:	66 1f       	adc	r22, r22
     5b8:	77 1f       	adc	r23, r23
     5ba:	17 fd       	sbrc	r17, 7
     5bc:	41 60       	ori	r20, 0x01	; 1
     5be:	ee 0c       	add	r14, r14
     5c0:	ff 1c       	adc	r15, r15
     5c2:	00 1f       	adc	r16, r16
     5c4:	11 1f       	adc	r17, r17
     5c6:	21 50       	subi	r18, 0x01	; 1
     5c8:	30 40       	sbci	r19, 0x00	; 0
     5ca:	40 30       	cpi	r20, 0x00	; 0
     5cc:	90 e0       	ldi	r25, 0x00	; 0
     5ce:	59 07       	cpc	r21, r25
     5d0:	90 e0       	ldi	r25, 0x00	; 0
     5d2:	69 07       	cpc	r22, r25
     5d4:	90 e4       	ldi	r25, 0x40	; 64
     5d6:	79 07       	cpc	r23, r25
     5d8:	60 f3       	brcs	.-40     	; 0x5b2 <__mulsf3+0x174>
     5da:	2b 8f       	std	Y+27, r18	; 0x1b
     5dc:	3c 8f       	std	Y+28, r19	; 0x1c
     5de:	db 01       	movw	r26, r22
     5e0:	ca 01       	movw	r24, r20
     5e2:	8f 77       	andi	r24, 0x7F	; 127
     5e4:	90 70       	andi	r25, 0x00	; 0
     5e6:	a0 70       	andi	r26, 0x00	; 0
     5e8:	b0 70       	andi	r27, 0x00	; 0
     5ea:	80 34       	cpi	r24, 0x40	; 64
     5ec:	91 05       	cpc	r25, r1
     5ee:	a1 05       	cpc	r26, r1
     5f0:	b1 05       	cpc	r27, r1
     5f2:	61 f4       	brne	.+24     	; 0x60c <__mulsf3+0x1ce>
     5f4:	47 fd       	sbrc	r20, 7
     5f6:	0a c0       	rjmp	.+20     	; 0x60c <__mulsf3+0x1ce>
     5f8:	e1 14       	cp	r14, r1
     5fa:	f1 04       	cpc	r15, r1
     5fc:	01 05       	cpc	r16, r1
     5fe:	11 05       	cpc	r17, r1
     600:	29 f0       	breq	.+10     	; 0x60c <__mulsf3+0x1ce>
     602:	40 5c       	subi	r20, 0xC0	; 192
     604:	5f 4f       	sbci	r21, 0xFF	; 255
     606:	6f 4f       	sbci	r22, 0xFF	; 255
     608:	7f 4f       	sbci	r23, 0xFF	; 255
     60a:	40 78       	andi	r20, 0x80	; 128
     60c:	1a 8e       	std	Y+26, r1	; 0x1a
     60e:	fe 17       	cp	r31, r30
     610:	11 f0       	breq	.+4      	; 0x616 <__mulsf3+0x1d8>
     612:	81 e0       	ldi	r24, 0x01	; 1
     614:	8a 8f       	std	Y+26, r24	; 0x1a
     616:	4d 8f       	std	Y+29, r20	; 0x1d
     618:	5e 8f       	std	Y+30, r21	; 0x1e
     61a:	6f 8f       	std	Y+31, r22	; 0x1f
     61c:	78 a3       	std	Y+32, r23	; 0x20
     61e:	83 e0       	ldi	r24, 0x03	; 3
     620:	89 8f       	std	Y+25, r24	; 0x19
     622:	ce 01       	movw	r24, r28
     624:	49 96       	adiw	r24, 0x19	; 25
     626:	0e 94 cf 05 	call	0xb9e	; 0xb9e <__pack_f>
     62a:	a0 96       	adiw	r28, 0x20	; 32
     62c:	e2 e1       	ldi	r30, 0x12	; 18
     62e:	0c 94 b7 29 	jmp	0x536e	; 0x536e <__epilogue_restores__>

00000632 <__divsf3>:
     632:	a8 e1       	ldi	r26, 0x18	; 24
     634:	b0 e0       	ldi	r27, 0x00	; 0
     636:	ef e1       	ldi	r30, 0x1F	; 31
     638:	f3 e0       	ldi	r31, 0x03	; 3
     63a:	0c 94 a3 29 	jmp	0x5346	; 0x5346 <__prologue_saves__+0x10>
     63e:	69 83       	std	Y+1, r22	; 0x01
     640:	7a 83       	std	Y+2, r23	; 0x02
     642:	8b 83       	std	Y+3, r24	; 0x03
     644:	9c 83       	std	Y+4, r25	; 0x04
     646:	2d 83       	std	Y+5, r18	; 0x05
     648:	3e 83       	std	Y+6, r19	; 0x06
     64a:	4f 83       	std	Y+7, r20	; 0x07
     64c:	58 87       	std	Y+8, r21	; 0x08
     64e:	b9 e0       	ldi	r27, 0x09	; 9
     650:	eb 2e       	mov	r14, r27
     652:	f1 2c       	mov	r15, r1
     654:	ec 0e       	add	r14, r28
     656:	fd 1e       	adc	r15, r29
     658:	ce 01       	movw	r24, r28
     65a:	01 96       	adiw	r24, 0x01	; 1
     65c:	b7 01       	movw	r22, r14
     65e:	0e 94 a4 06 	call	0xd48	; 0xd48 <__unpack_f>
     662:	8e 01       	movw	r16, r28
     664:	0f 5e       	subi	r16, 0xEF	; 239
     666:	1f 4f       	sbci	r17, 0xFF	; 255
     668:	ce 01       	movw	r24, r28
     66a:	05 96       	adiw	r24, 0x05	; 5
     66c:	b8 01       	movw	r22, r16
     66e:	0e 94 a4 06 	call	0xd48	; 0xd48 <__unpack_f>
     672:	29 85       	ldd	r18, Y+9	; 0x09
     674:	22 30       	cpi	r18, 0x02	; 2
     676:	08 f4       	brcc	.+2      	; 0x67a <__divsf3+0x48>
     678:	7e c0       	rjmp	.+252    	; 0x776 <__divsf3+0x144>
     67a:	39 89       	ldd	r19, Y+17	; 0x11
     67c:	32 30       	cpi	r19, 0x02	; 2
     67e:	10 f4       	brcc	.+4      	; 0x684 <__divsf3+0x52>
     680:	b8 01       	movw	r22, r16
     682:	7c c0       	rjmp	.+248    	; 0x77c <__divsf3+0x14a>
     684:	8a 85       	ldd	r24, Y+10	; 0x0a
     686:	9a 89       	ldd	r25, Y+18	; 0x12
     688:	89 27       	eor	r24, r25
     68a:	8a 87       	std	Y+10, r24	; 0x0a
     68c:	24 30       	cpi	r18, 0x04	; 4
     68e:	11 f0       	breq	.+4      	; 0x694 <__divsf3+0x62>
     690:	22 30       	cpi	r18, 0x02	; 2
     692:	31 f4       	brne	.+12     	; 0x6a0 <__divsf3+0x6e>
     694:	23 17       	cp	r18, r19
     696:	09 f0       	breq	.+2      	; 0x69a <__divsf3+0x68>
     698:	6e c0       	rjmp	.+220    	; 0x776 <__divsf3+0x144>
     69a:	64 e3       	ldi	r22, 0x34	; 52
     69c:	72 e0       	ldi	r23, 0x02	; 2
     69e:	6e c0       	rjmp	.+220    	; 0x77c <__divsf3+0x14a>
     6a0:	34 30       	cpi	r19, 0x04	; 4
     6a2:	39 f4       	brne	.+14     	; 0x6b2 <__divsf3+0x80>
     6a4:	1d 86       	std	Y+13, r1	; 0x0d
     6a6:	1e 86       	std	Y+14, r1	; 0x0e
     6a8:	1f 86       	std	Y+15, r1	; 0x0f
     6aa:	18 8a       	std	Y+16, r1	; 0x10
     6ac:	1c 86       	std	Y+12, r1	; 0x0c
     6ae:	1b 86       	std	Y+11, r1	; 0x0b
     6b0:	04 c0       	rjmp	.+8      	; 0x6ba <__divsf3+0x88>
     6b2:	32 30       	cpi	r19, 0x02	; 2
     6b4:	21 f4       	brne	.+8      	; 0x6be <__divsf3+0x8c>
     6b6:	84 e0       	ldi	r24, 0x04	; 4
     6b8:	89 87       	std	Y+9, r24	; 0x09
     6ba:	b7 01       	movw	r22, r14
     6bc:	5f c0       	rjmp	.+190    	; 0x77c <__divsf3+0x14a>
     6be:	2b 85       	ldd	r18, Y+11	; 0x0b
     6c0:	3c 85       	ldd	r19, Y+12	; 0x0c
     6c2:	8b 89       	ldd	r24, Y+19	; 0x13
     6c4:	9c 89       	ldd	r25, Y+20	; 0x14
     6c6:	28 1b       	sub	r18, r24
     6c8:	39 0b       	sbc	r19, r25
     6ca:	3c 87       	std	Y+12, r19	; 0x0c
     6cc:	2b 87       	std	Y+11, r18	; 0x0b
     6ce:	ed 84       	ldd	r14, Y+13	; 0x0d
     6d0:	fe 84       	ldd	r15, Y+14	; 0x0e
     6d2:	0f 85       	ldd	r16, Y+15	; 0x0f
     6d4:	18 89       	ldd	r17, Y+16	; 0x10
     6d6:	ad 88       	ldd	r10, Y+21	; 0x15
     6d8:	be 88       	ldd	r11, Y+22	; 0x16
     6da:	cf 88       	ldd	r12, Y+23	; 0x17
     6dc:	d8 8c       	ldd	r13, Y+24	; 0x18
     6de:	ea 14       	cp	r14, r10
     6e0:	fb 04       	cpc	r15, r11
     6e2:	0c 05       	cpc	r16, r12
     6e4:	1d 05       	cpc	r17, r13
     6e6:	40 f4       	brcc	.+16     	; 0x6f8 <__divsf3+0xc6>
     6e8:	ee 0c       	add	r14, r14
     6ea:	ff 1c       	adc	r15, r15
     6ec:	00 1f       	adc	r16, r16
     6ee:	11 1f       	adc	r17, r17
     6f0:	21 50       	subi	r18, 0x01	; 1
     6f2:	30 40       	sbci	r19, 0x00	; 0
     6f4:	3c 87       	std	Y+12, r19	; 0x0c
     6f6:	2b 87       	std	Y+11, r18	; 0x0b
     6f8:	20 e0       	ldi	r18, 0x00	; 0
     6fa:	30 e0       	ldi	r19, 0x00	; 0
     6fc:	40 e0       	ldi	r20, 0x00	; 0
     6fe:	50 e0       	ldi	r21, 0x00	; 0
     700:	80 e0       	ldi	r24, 0x00	; 0
     702:	90 e0       	ldi	r25, 0x00	; 0
     704:	a0 e0       	ldi	r26, 0x00	; 0
     706:	b0 e4       	ldi	r27, 0x40	; 64
     708:	60 e0       	ldi	r22, 0x00	; 0
     70a:	70 e0       	ldi	r23, 0x00	; 0
     70c:	ea 14       	cp	r14, r10
     70e:	fb 04       	cpc	r15, r11
     710:	0c 05       	cpc	r16, r12
     712:	1d 05       	cpc	r17, r13
     714:	40 f0       	brcs	.+16     	; 0x726 <__divsf3+0xf4>
     716:	28 2b       	or	r18, r24
     718:	39 2b       	or	r19, r25
     71a:	4a 2b       	or	r20, r26
     71c:	5b 2b       	or	r21, r27
     71e:	ea 18       	sub	r14, r10
     720:	fb 08       	sbc	r15, r11
     722:	0c 09       	sbc	r16, r12
     724:	1d 09       	sbc	r17, r13
     726:	b6 95       	lsr	r27
     728:	a7 95       	ror	r26
     72a:	97 95       	ror	r25
     72c:	87 95       	ror	r24
     72e:	ee 0c       	add	r14, r14
     730:	ff 1c       	adc	r15, r15
     732:	00 1f       	adc	r16, r16
     734:	11 1f       	adc	r17, r17
     736:	6f 5f       	subi	r22, 0xFF	; 255
     738:	7f 4f       	sbci	r23, 0xFF	; 255
     73a:	6f 31       	cpi	r22, 0x1F	; 31
     73c:	71 05       	cpc	r23, r1
     73e:	31 f7       	brne	.-52     	; 0x70c <__divsf3+0xda>
     740:	da 01       	movw	r26, r20
     742:	c9 01       	movw	r24, r18
     744:	8f 77       	andi	r24, 0x7F	; 127
     746:	90 70       	andi	r25, 0x00	; 0
     748:	a0 70       	andi	r26, 0x00	; 0
     74a:	b0 70       	andi	r27, 0x00	; 0
     74c:	80 34       	cpi	r24, 0x40	; 64
     74e:	91 05       	cpc	r25, r1
     750:	a1 05       	cpc	r26, r1
     752:	b1 05       	cpc	r27, r1
     754:	61 f4       	brne	.+24     	; 0x76e <__divsf3+0x13c>
     756:	27 fd       	sbrc	r18, 7
     758:	0a c0       	rjmp	.+20     	; 0x76e <__divsf3+0x13c>
     75a:	e1 14       	cp	r14, r1
     75c:	f1 04       	cpc	r15, r1
     75e:	01 05       	cpc	r16, r1
     760:	11 05       	cpc	r17, r1
     762:	29 f0       	breq	.+10     	; 0x76e <__divsf3+0x13c>
     764:	20 5c       	subi	r18, 0xC0	; 192
     766:	3f 4f       	sbci	r19, 0xFF	; 255
     768:	4f 4f       	sbci	r20, 0xFF	; 255
     76a:	5f 4f       	sbci	r21, 0xFF	; 255
     76c:	20 78       	andi	r18, 0x80	; 128
     76e:	2d 87       	std	Y+13, r18	; 0x0d
     770:	3e 87       	std	Y+14, r19	; 0x0e
     772:	4f 87       	std	Y+15, r20	; 0x0f
     774:	58 8b       	std	Y+16, r21	; 0x10
     776:	be 01       	movw	r22, r28
     778:	67 5f       	subi	r22, 0xF7	; 247
     77a:	7f 4f       	sbci	r23, 0xFF	; 255
     77c:	cb 01       	movw	r24, r22
     77e:	0e 94 cf 05 	call	0xb9e	; 0xb9e <__pack_f>
     782:	68 96       	adiw	r28, 0x18	; 24
     784:	ea e0       	ldi	r30, 0x0A	; 10
     786:	0c 94 bf 29 	jmp	0x537e	; 0x537e <__epilogue_restores__+0x10>

0000078a <__gtsf2>:
     78a:	a8 e1       	ldi	r26, 0x18	; 24
     78c:	b0 e0       	ldi	r27, 0x00	; 0
     78e:	eb ec       	ldi	r30, 0xCB	; 203
     790:	f3 e0       	ldi	r31, 0x03	; 3
     792:	0c 94 a7 29 	jmp	0x534e	; 0x534e <__prologue_saves__+0x18>
     796:	69 83       	std	Y+1, r22	; 0x01
     798:	7a 83       	std	Y+2, r23	; 0x02
     79a:	8b 83       	std	Y+3, r24	; 0x03
     79c:	9c 83       	std	Y+4, r25	; 0x04
     79e:	2d 83       	std	Y+5, r18	; 0x05
     7a0:	3e 83       	std	Y+6, r19	; 0x06
     7a2:	4f 83       	std	Y+7, r20	; 0x07
     7a4:	58 87       	std	Y+8, r21	; 0x08
     7a6:	89 e0       	ldi	r24, 0x09	; 9
     7a8:	e8 2e       	mov	r14, r24
     7aa:	f1 2c       	mov	r15, r1
     7ac:	ec 0e       	add	r14, r28
     7ae:	fd 1e       	adc	r15, r29
     7b0:	ce 01       	movw	r24, r28
     7b2:	01 96       	adiw	r24, 0x01	; 1
     7b4:	b7 01       	movw	r22, r14
     7b6:	0e 94 a4 06 	call	0xd48	; 0xd48 <__unpack_f>
     7ba:	8e 01       	movw	r16, r28
     7bc:	0f 5e       	subi	r16, 0xEF	; 239
     7be:	1f 4f       	sbci	r17, 0xFF	; 255
     7c0:	ce 01       	movw	r24, r28
     7c2:	05 96       	adiw	r24, 0x05	; 5
     7c4:	b8 01       	movw	r22, r16
     7c6:	0e 94 a4 06 	call	0xd48	; 0xd48 <__unpack_f>
     7ca:	89 85       	ldd	r24, Y+9	; 0x09
     7cc:	82 30       	cpi	r24, 0x02	; 2
     7ce:	40 f0       	brcs	.+16     	; 0x7e0 <__gtsf2+0x56>
     7d0:	89 89       	ldd	r24, Y+17	; 0x11
     7d2:	82 30       	cpi	r24, 0x02	; 2
     7d4:	28 f0       	brcs	.+10     	; 0x7e0 <__gtsf2+0x56>
     7d6:	c7 01       	movw	r24, r14
     7d8:	b8 01       	movw	r22, r16
     7da:	0e 94 1c 07 	call	0xe38	; 0xe38 <__fpcmp_parts_f>
     7de:	01 c0       	rjmp	.+2      	; 0x7e2 <__gtsf2+0x58>
     7e0:	8f ef       	ldi	r24, 0xFF	; 255
     7e2:	68 96       	adiw	r28, 0x18	; 24
     7e4:	e6 e0       	ldi	r30, 0x06	; 6
     7e6:	0c 94 c3 29 	jmp	0x5386	; 0x5386 <__epilogue_restores__+0x18>

000007ea <__gesf2>:
     7ea:	a8 e1       	ldi	r26, 0x18	; 24
     7ec:	b0 e0       	ldi	r27, 0x00	; 0
     7ee:	eb ef       	ldi	r30, 0xFB	; 251
     7f0:	f3 e0       	ldi	r31, 0x03	; 3
     7f2:	0c 94 a7 29 	jmp	0x534e	; 0x534e <__prologue_saves__+0x18>
     7f6:	69 83       	std	Y+1, r22	; 0x01
     7f8:	7a 83       	std	Y+2, r23	; 0x02
     7fa:	8b 83       	std	Y+3, r24	; 0x03
     7fc:	9c 83       	std	Y+4, r25	; 0x04
     7fe:	2d 83       	std	Y+5, r18	; 0x05
     800:	3e 83       	std	Y+6, r19	; 0x06
     802:	4f 83       	std	Y+7, r20	; 0x07
     804:	58 87       	std	Y+8, r21	; 0x08
     806:	89 e0       	ldi	r24, 0x09	; 9
     808:	e8 2e       	mov	r14, r24
     80a:	f1 2c       	mov	r15, r1
     80c:	ec 0e       	add	r14, r28
     80e:	fd 1e       	adc	r15, r29
     810:	ce 01       	movw	r24, r28
     812:	01 96       	adiw	r24, 0x01	; 1
     814:	b7 01       	movw	r22, r14
     816:	0e 94 a4 06 	call	0xd48	; 0xd48 <__unpack_f>
     81a:	8e 01       	movw	r16, r28
     81c:	0f 5e       	subi	r16, 0xEF	; 239
     81e:	1f 4f       	sbci	r17, 0xFF	; 255
     820:	ce 01       	movw	r24, r28
     822:	05 96       	adiw	r24, 0x05	; 5
     824:	b8 01       	movw	r22, r16
     826:	0e 94 a4 06 	call	0xd48	; 0xd48 <__unpack_f>
     82a:	89 85       	ldd	r24, Y+9	; 0x09
     82c:	82 30       	cpi	r24, 0x02	; 2
     82e:	40 f0       	brcs	.+16     	; 0x840 <__gesf2+0x56>
     830:	89 89       	ldd	r24, Y+17	; 0x11
     832:	82 30       	cpi	r24, 0x02	; 2
     834:	28 f0       	brcs	.+10     	; 0x840 <__gesf2+0x56>
     836:	c7 01       	movw	r24, r14
     838:	b8 01       	movw	r22, r16
     83a:	0e 94 1c 07 	call	0xe38	; 0xe38 <__fpcmp_parts_f>
     83e:	01 c0       	rjmp	.+2      	; 0x842 <__gesf2+0x58>
     840:	8f ef       	ldi	r24, 0xFF	; 255
     842:	68 96       	adiw	r28, 0x18	; 24
     844:	e6 e0       	ldi	r30, 0x06	; 6
     846:	0c 94 c3 29 	jmp	0x5386	; 0x5386 <__epilogue_restores__+0x18>

0000084a <__ltsf2>:
     84a:	a8 e1       	ldi	r26, 0x18	; 24
     84c:	b0 e0       	ldi	r27, 0x00	; 0
     84e:	eb e2       	ldi	r30, 0x2B	; 43
     850:	f4 e0       	ldi	r31, 0x04	; 4
     852:	0c 94 a7 29 	jmp	0x534e	; 0x534e <__prologue_saves__+0x18>
     856:	69 83       	std	Y+1, r22	; 0x01
     858:	7a 83       	std	Y+2, r23	; 0x02
     85a:	8b 83       	std	Y+3, r24	; 0x03
     85c:	9c 83       	std	Y+4, r25	; 0x04
     85e:	2d 83       	std	Y+5, r18	; 0x05
     860:	3e 83       	std	Y+6, r19	; 0x06
     862:	4f 83       	std	Y+7, r20	; 0x07
     864:	58 87       	std	Y+8, r21	; 0x08
     866:	89 e0       	ldi	r24, 0x09	; 9
     868:	e8 2e       	mov	r14, r24
     86a:	f1 2c       	mov	r15, r1
     86c:	ec 0e       	add	r14, r28
     86e:	fd 1e       	adc	r15, r29
     870:	ce 01       	movw	r24, r28
     872:	01 96       	adiw	r24, 0x01	; 1
     874:	b7 01       	movw	r22, r14
     876:	0e 94 a4 06 	call	0xd48	; 0xd48 <__unpack_f>
     87a:	8e 01       	movw	r16, r28
     87c:	0f 5e       	subi	r16, 0xEF	; 239
     87e:	1f 4f       	sbci	r17, 0xFF	; 255
     880:	ce 01       	movw	r24, r28
     882:	05 96       	adiw	r24, 0x05	; 5
     884:	b8 01       	movw	r22, r16
     886:	0e 94 a4 06 	call	0xd48	; 0xd48 <__unpack_f>
     88a:	89 85       	ldd	r24, Y+9	; 0x09
     88c:	82 30       	cpi	r24, 0x02	; 2
     88e:	40 f0       	brcs	.+16     	; 0x8a0 <__stack+0x41>
     890:	89 89       	ldd	r24, Y+17	; 0x11
     892:	82 30       	cpi	r24, 0x02	; 2
     894:	28 f0       	brcs	.+10     	; 0x8a0 <__stack+0x41>
     896:	c7 01       	movw	r24, r14
     898:	b8 01       	movw	r22, r16
     89a:	0e 94 1c 07 	call	0xe38	; 0xe38 <__fpcmp_parts_f>
     89e:	01 c0       	rjmp	.+2      	; 0x8a2 <__stack+0x43>
     8a0:	81 e0       	ldi	r24, 0x01	; 1
     8a2:	68 96       	adiw	r28, 0x18	; 24
     8a4:	e6 e0       	ldi	r30, 0x06	; 6
     8a6:	0c 94 c3 29 	jmp	0x5386	; 0x5386 <__epilogue_restores__+0x18>

000008aa <__floatsisf>:
     8aa:	a8 e0       	ldi	r26, 0x08	; 8
     8ac:	b0 e0       	ldi	r27, 0x00	; 0
     8ae:	eb e5       	ldi	r30, 0x5B	; 91
     8b0:	f4 e0       	ldi	r31, 0x04	; 4
     8b2:	0c 94 a4 29 	jmp	0x5348	; 0x5348 <__prologue_saves__+0x12>
     8b6:	9b 01       	movw	r18, r22
     8b8:	ac 01       	movw	r20, r24
     8ba:	83 e0       	ldi	r24, 0x03	; 3
     8bc:	89 83       	std	Y+1, r24	; 0x01
     8be:	da 01       	movw	r26, r20
     8c0:	c9 01       	movw	r24, r18
     8c2:	88 27       	eor	r24, r24
     8c4:	b7 fd       	sbrc	r27, 7
     8c6:	83 95       	inc	r24
     8c8:	99 27       	eor	r25, r25
     8ca:	aa 27       	eor	r26, r26
     8cc:	bb 27       	eor	r27, r27
     8ce:	b8 2e       	mov	r11, r24
     8d0:	21 15       	cp	r18, r1
     8d2:	31 05       	cpc	r19, r1
     8d4:	41 05       	cpc	r20, r1
     8d6:	51 05       	cpc	r21, r1
     8d8:	19 f4       	brne	.+6      	; 0x8e0 <__floatsisf+0x36>
     8da:	82 e0       	ldi	r24, 0x02	; 2
     8dc:	89 83       	std	Y+1, r24	; 0x01
     8de:	3a c0       	rjmp	.+116    	; 0x954 <__floatsisf+0xaa>
     8e0:	88 23       	and	r24, r24
     8e2:	a9 f0       	breq	.+42     	; 0x90e <__floatsisf+0x64>
     8e4:	20 30       	cpi	r18, 0x00	; 0
     8e6:	80 e0       	ldi	r24, 0x00	; 0
     8e8:	38 07       	cpc	r19, r24
     8ea:	80 e0       	ldi	r24, 0x00	; 0
     8ec:	48 07       	cpc	r20, r24
     8ee:	80 e8       	ldi	r24, 0x80	; 128
     8f0:	58 07       	cpc	r21, r24
     8f2:	29 f4       	brne	.+10     	; 0x8fe <__floatsisf+0x54>
     8f4:	60 e0       	ldi	r22, 0x00	; 0
     8f6:	70 e0       	ldi	r23, 0x00	; 0
     8f8:	80 e0       	ldi	r24, 0x00	; 0
     8fa:	9f ec       	ldi	r25, 0xCF	; 207
     8fc:	30 c0       	rjmp	.+96     	; 0x95e <__floatsisf+0xb4>
     8fe:	ee 24       	eor	r14, r14
     900:	ff 24       	eor	r15, r15
     902:	87 01       	movw	r16, r14
     904:	e2 1a       	sub	r14, r18
     906:	f3 0a       	sbc	r15, r19
     908:	04 0b       	sbc	r16, r20
     90a:	15 0b       	sbc	r17, r21
     90c:	02 c0       	rjmp	.+4      	; 0x912 <__floatsisf+0x68>
     90e:	79 01       	movw	r14, r18
     910:	8a 01       	movw	r16, r20
     912:	8e e1       	ldi	r24, 0x1E	; 30
     914:	c8 2e       	mov	r12, r24
     916:	d1 2c       	mov	r13, r1
     918:	dc 82       	std	Y+4, r13	; 0x04
     91a:	cb 82       	std	Y+3, r12	; 0x03
     91c:	ed 82       	std	Y+5, r14	; 0x05
     91e:	fe 82       	std	Y+6, r15	; 0x06
     920:	0f 83       	std	Y+7, r16	; 0x07
     922:	18 87       	std	Y+8, r17	; 0x08
     924:	c8 01       	movw	r24, r16
     926:	b7 01       	movw	r22, r14
     928:	0e 94 80 05 	call	0xb00	; 0xb00 <__clzsi2>
     92c:	01 97       	sbiw	r24, 0x01	; 1
     92e:	18 16       	cp	r1, r24
     930:	19 06       	cpc	r1, r25
     932:	84 f4       	brge	.+32     	; 0x954 <__floatsisf+0xaa>
     934:	08 2e       	mov	r0, r24
     936:	04 c0       	rjmp	.+8      	; 0x940 <__floatsisf+0x96>
     938:	ee 0c       	add	r14, r14
     93a:	ff 1c       	adc	r15, r15
     93c:	00 1f       	adc	r16, r16
     93e:	11 1f       	adc	r17, r17
     940:	0a 94       	dec	r0
     942:	d2 f7       	brpl	.-12     	; 0x938 <__floatsisf+0x8e>
     944:	ed 82       	std	Y+5, r14	; 0x05
     946:	fe 82       	std	Y+6, r15	; 0x06
     948:	0f 83       	std	Y+7, r16	; 0x07
     94a:	18 87       	std	Y+8, r17	; 0x08
     94c:	c8 1a       	sub	r12, r24
     94e:	d9 0a       	sbc	r13, r25
     950:	dc 82       	std	Y+4, r13	; 0x04
     952:	cb 82       	std	Y+3, r12	; 0x03
     954:	ba 82       	std	Y+2, r11	; 0x02
     956:	ce 01       	movw	r24, r28
     958:	01 96       	adiw	r24, 0x01	; 1
     95a:	0e 94 cf 05 	call	0xb9e	; 0xb9e <__pack_f>
     95e:	28 96       	adiw	r28, 0x08	; 8
     960:	e9 e0       	ldi	r30, 0x09	; 9
     962:	0c 94 c0 29 	jmp	0x5380	; 0x5380 <__epilogue_restores__+0x12>

00000966 <__fixsfsi>:
     966:	ac e0       	ldi	r26, 0x0C	; 12
     968:	b0 e0       	ldi	r27, 0x00	; 0
     96a:	e9 eb       	ldi	r30, 0xB9	; 185
     96c:	f4 e0       	ldi	r31, 0x04	; 4
     96e:	0c 94 ab 29 	jmp	0x5356	; 0x5356 <__prologue_saves__+0x20>
     972:	69 83       	std	Y+1, r22	; 0x01
     974:	7a 83       	std	Y+2, r23	; 0x02
     976:	8b 83       	std	Y+3, r24	; 0x03
     978:	9c 83       	std	Y+4, r25	; 0x04
     97a:	ce 01       	movw	r24, r28
     97c:	01 96       	adiw	r24, 0x01	; 1
     97e:	be 01       	movw	r22, r28
     980:	6b 5f       	subi	r22, 0xFB	; 251
     982:	7f 4f       	sbci	r23, 0xFF	; 255
     984:	0e 94 a4 06 	call	0xd48	; 0xd48 <__unpack_f>
     988:	8d 81       	ldd	r24, Y+5	; 0x05
     98a:	82 30       	cpi	r24, 0x02	; 2
     98c:	61 f1       	breq	.+88     	; 0x9e6 <__fixsfsi+0x80>
     98e:	82 30       	cpi	r24, 0x02	; 2
     990:	50 f1       	brcs	.+84     	; 0x9e6 <__fixsfsi+0x80>
     992:	84 30       	cpi	r24, 0x04	; 4
     994:	21 f4       	brne	.+8      	; 0x99e <__fixsfsi+0x38>
     996:	8e 81       	ldd	r24, Y+6	; 0x06
     998:	88 23       	and	r24, r24
     99a:	51 f1       	breq	.+84     	; 0x9f0 <__fixsfsi+0x8a>
     99c:	2e c0       	rjmp	.+92     	; 0x9fa <__fixsfsi+0x94>
     99e:	2f 81       	ldd	r18, Y+7	; 0x07
     9a0:	38 85       	ldd	r19, Y+8	; 0x08
     9a2:	37 fd       	sbrc	r19, 7
     9a4:	20 c0       	rjmp	.+64     	; 0x9e6 <__fixsfsi+0x80>
     9a6:	6e 81       	ldd	r22, Y+6	; 0x06
     9a8:	2f 31       	cpi	r18, 0x1F	; 31
     9aa:	31 05       	cpc	r19, r1
     9ac:	1c f0       	brlt	.+6      	; 0x9b4 <__fixsfsi+0x4e>
     9ae:	66 23       	and	r22, r22
     9b0:	f9 f0       	breq	.+62     	; 0x9f0 <__fixsfsi+0x8a>
     9b2:	23 c0       	rjmp	.+70     	; 0x9fa <__fixsfsi+0x94>
     9b4:	8e e1       	ldi	r24, 0x1E	; 30
     9b6:	90 e0       	ldi	r25, 0x00	; 0
     9b8:	82 1b       	sub	r24, r18
     9ba:	93 0b       	sbc	r25, r19
     9bc:	29 85       	ldd	r18, Y+9	; 0x09
     9be:	3a 85       	ldd	r19, Y+10	; 0x0a
     9c0:	4b 85       	ldd	r20, Y+11	; 0x0b
     9c2:	5c 85       	ldd	r21, Y+12	; 0x0c
     9c4:	04 c0       	rjmp	.+8      	; 0x9ce <__fixsfsi+0x68>
     9c6:	56 95       	lsr	r21
     9c8:	47 95       	ror	r20
     9ca:	37 95       	ror	r19
     9cc:	27 95       	ror	r18
     9ce:	8a 95       	dec	r24
     9d0:	d2 f7       	brpl	.-12     	; 0x9c6 <__fixsfsi+0x60>
     9d2:	66 23       	and	r22, r22
     9d4:	b1 f0       	breq	.+44     	; 0xa02 <__fixsfsi+0x9c>
     9d6:	50 95       	com	r21
     9d8:	40 95       	com	r20
     9da:	30 95       	com	r19
     9dc:	21 95       	neg	r18
     9de:	3f 4f       	sbci	r19, 0xFF	; 255
     9e0:	4f 4f       	sbci	r20, 0xFF	; 255
     9e2:	5f 4f       	sbci	r21, 0xFF	; 255
     9e4:	0e c0       	rjmp	.+28     	; 0xa02 <__fixsfsi+0x9c>
     9e6:	20 e0       	ldi	r18, 0x00	; 0
     9e8:	30 e0       	ldi	r19, 0x00	; 0
     9ea:	40 e0       	ldi	r20, 0x00	; 0
     9ec:	50 e0       	ldi	r21, 0x00	; 0
     9ee:	09 c0       	rjmp	.+18     	; 0xa02 <__fixsfsi+0x9c>
     9f0:	2f ef       	ldi	r18, 0xFF	; 255
     9f2:	3f ef       	ldi	r19, 0xFF	; 255
     9f4:	4f ef       	ldi	r20, 0xFF	; 255
     9f6:	5f e7       	ldi	r21, 0x7F	; 127
     9f8:	04 c0       	rjmp	.+8      	; 0xa02 <__fixsfsi+0x9c>
     9fa:	20 e0       	ldi	r18, 0x00	; 0
     9fc:	30 e0       	ldi	r19, 0x00	; 0
     9fe:	40 e0       	ldi	r20, 0x00	; 0
     a00:	50 e8       	ldi	r21, 0x80	; 128
     a02:	b9 01       	movw	r22, r18
     a04:	ca 01       	movw	r24, r20
     a06:	2c 96       	adiw	r28, 0x0c	; 12
     a08:	e2 e0       	ldi	r30, 0x02	; 2
     a0a:	0c 94 c7 29 	jmp	0x538e	; 0x538e <__epilogue_restores__+0x20>

00000a0e <__floatunsisf>:
     a0e:	a8 e0       	ldi	r26, 0x08	; 8
     a10:	b0 e0       	ldi	r27, 0x00	; 0
     a12:	ed e0       	ldi	r30, 0x0D	; 13
     a14:	f5 e0       	ldi	r31, 0x05	; 5
     a16:	0c 94 a3 29 	jmp	0x5346	; 0x5346 <__prologue_saves__+0x10>
     a1a:	7b 01       	movw	r14, r22
     a1c:	8c 01       	movw	r16, r24
     a1e:	61 15       	cp	r22, r1
     a20:	71 05       	cpc	r23, r1
     a22:	81 05       	cpc	r24, r1
     a24:	91 05       	cpc	r25, r1
     a26:	19 f4       	brne	.+6      	; 0xa2e <__floatunsisf+0x20>
     a28:	82 e0       	ldi	r24, 0x02	; 2
     a2a:	89 83       	std	Y+1, r24	; 0x01
     a2c:	60 c0       	rjmp	.+192    	; 0xaee <__floatunsisf+0xe0>
     a2e:	83 e0       	ldi	r24, 0x03	; 3
     a30:	89 83       	std	Y+1, r24	; 0x01
     a32:	8e e1       	ldi	r24, 0x1E	; 30
     a34:	c8 2e       	mov	r12, r24
     a36:	d1 2c       	mov	r13, r1
     a38:	dc 82       	std	Y+4, r13	; 0x04
     a3a:	cb 82       	std	Y+3, r12	; 0x03
     a3c:	ed 82       	std	Y+5, r14	; 0x05
     a3e:	fe 82       	std	Y+6, r15	; 0x06
     a40:	0f 83       	std	Y+7, r16	; 0x07
     a42:	18 87       	std	Y+8, r17	; 0x08
     a44:	c8 01       	movw	r24, r16
     a46:	b7 01       	movw	r22, r14
     a48:	0e 94 80 05 	call	0xb00	; 0xb00 <__clzsi2>
     a4c:	fc 01       	movw	r30, r24
     a4e:	31 97       	sbiw	r30, 0x01	; 1
     a50:	f7 ff       	sbrs	r31, 7
     a52:	3b c0       	rjmp	.+118    	; 0xaca <__floatunsisf+0xbc>
     a54:	22 27       	eor	r18, r18
     a56:	33 27       	eor	r19, r19
     a58:	2e 1b       	sub	r18, r30
     a5a:	3f 0b       	sbc	r19, r31
     a5c:	57 01       	movw	r10, r14
     a5e:	68 01       	movw	r12, r16
     a60:	02 2e       	mov	r0, r18
     a62:	04 c0       	rjmp	.+8      	; 0xa6c <__floatunsisf+0x5e>
     a64:	d6 94       	lsr	r13
     a66:	c7 94       	ror	r12
     a68:	b7 94       	ror	r11
     a6a:	a7 94       	ror	r10
     a6c:	0a 94       	dec	r0
     a6e:	d2 f7       	brpl	.-12     	; 0xa64 <__floatunsisf+0x56>
     a70:	40 e0       	ldi	r20, 0x00	; 0
     a72:	50 e0       	ldi	r21, 0x00	; 0
     a74:	60 e0       	ldi	r22, 0x00	; 0
     a76:	70 e0       	ldi	r23, 0x00	; 0
     a78:	81 e0       	ldi	r24, 0x01	; 1
     a7a:	90 e0       	ldi	r25, 0x00	; 0
     a7c:	a0 e0       	ldi	r26, 0x00	; 0
     a7e:	b0 e0       	ldi	r27, 0x00	; 0
     a80:	04 c0       	rjmp	.+8      	; 0xa8a <__floatunsisf+0x7c>
     a82:	88 0f       	add	r24, r24
     a84:	99 1f       	adc	r25, r25
     a86:	aa 1f       	adc	r26, r26
     a88:	bb 1f       	adc	r27, r27
     a8a:	2a 95       	dec	r18
     a8c:	d2 f7       	brpl	.-12     	; 0xa82 <__floatunsisf+0x74>
     a8e:	01 97       	sbiw	r24, 0x01	; 1
     a90:	a1 09       	sbc	r26, r1
     a92:	b1 09       	sbc	r27, r1
     a94:	8e 21       	and	r24, r14
     a96:	9f 21       	and	r25, r15
     a98:	a0 23       	and	r26, r16
     a9a:	b1 23       	and	r27, r17
     a9c:	00 97       	sbiw	r24, 0x00	; 0
     a9e:	a1 05       	cpc	r26, r1
     aa0:	b1 05       	cpc	r27, r1
     aa2:	21 f0       	breq	.+8      	; 0xaac <__floatunsisf+0x9e>
     aa4:	41 e0       	ldi	r20, 0x01	; 1
     aa6:	50 e0       	ldi	r21, 0x00	; 0
     aa8:	60 e0       	ldi	r22, 0x00	; 0
     aaa:	70 e0       	ldi	r23, 0x00	; 0
     aac:	4a 29       	or	r20, r10
     aae:	5b 29       	or	r21, r11
     ab0:	6c 29       	or	r22, r12
     ab2:	7d 29       	or	r23, r13
     ab4:	4d 83       	std	Y+5, r20	; 0x05
     ab6:	5e 83       	std	Y+6, r21	; 0x06
     ab8:	6f 83       	std	Y+7, r22	; 0x07
     aba:	78 87       	std	Y+8, r23	; 0x08
     abc:	8e e1       	ldi	r24, 0x1E	; 30
     abe:	90 e0       	ldi	r25, 0x00	; 0
     ac0:	8e 1b       	sub	r24, r30
     ac2:	9f 0b       	sbc	r25, r31
     ac4:	9c 83       	std	Y+4, r25	; 0x04
     ac6:	8b 83       	std	Y+3, r24	; 0x03
     ac8:	12 c0       	rjmp	.+36     	; 0xaee <__floatunsisf+0xe0>
     aca:	30 97       	sbiw	r30, 0x00	; 0
     acc:	81 f0       	breq	.+32     	; 0xaee <__floatunsisf+0xe0>
     ace:	0e 2e       	mov	r0, r30
     ad0:	04 c0       	rjmp	.+8      	; 0xada <__floatunsisf+0xcc>
     ad2:	ee 0c       	add	r14, r14
     ad4:	ff 1c       	adc	r15, r15
     ad6:	00 1f       	adc	r16, r16
     ad8:	11 1f       	adc	r17, r17
     ada:	0a 94       	dec	r0
     adc:	d2 f7       	brpl	.-12     	; 0xad2 <__floatunsisf+0xc4>
     ade:	ed 82       	std	Y+5, r14	; 0x05
     ae0:	fe 82       	std	Y+6, r15	; 0x06
     ae2:	0f 83       	std	Y+7, r16	; 0x07
     ae4:	18 87       	std	Y+8, r17	; 0x08
     ae6:	ce 1a       	sub	r12, r30
     ae8:	df 0a       	sbc	r13, r31
     aea:	dc 82       	std	Y+4, r13	; 0x04
     aec:	cb 82       	std	Y+3, r12	; 0x03
     aee:	1a 82       	std	Y+2, r1	; 0x02
     af0:	ce 01       	movw	r24, r28
     af2:	01 96       	adiw	r24, 0x01	; 1
     af4:	0e 94 cf 05 	call	0xb9e	; 0xb9e <__pack_f>
     af8:	28 96       	adiw	r28, 0x08	; 8
     afa:	ea e0       	ldi	r30, 0x0A	; 10
     afc:	0c 94 bf 29 	jmp	0x537e	; 0x537e <__epilogue_restores__+0x10>

00000b00 <__clzsi2>:
     b00:	ef 92       	push	r14
     b02:	ff 92       	push	r15
     b04:	0f 93       	push	r16
     b06:	1f 93       	push	r17
     b08:	7b 01       	movw	r14, r22
     b0a:	8c 01       	movw	r16, r24
     b0c:	80 e0       	ldi	r24, 0x00	; 0
     b0e:	e8 16       	cp	r14, r24
     b10:	80 e0       	ldi	r24, 0x00	; 0
     b12:	f8 06       	cpc	r15, r24
     b14:	81 e0       	ldi	r24, 0x01	; 1
     b16:	08 07       	cpc	r16, r24
     b18:	80 e0       	ldi	r24, 0x00	; 0
     b1a:	18 07       	cpc	r17, r24
     b1c:	88 f4       	brcc	.+34     	; 0xb40 <__clzsi2+0x40>
     b1e:	8f ef       	ldi	r24, 0xFF	; 255
     b20:	e8 16       	cp	r14, r24
     b22:	f1 04       	cpc	r15, r1
     b24:	01 05       	cpc	r16, r1
     b26:	11 05       	cpc	r17, r1
     b28:	31 f0       	breq	.+12     	; 0xb36 <__clzsi2+0x36>
     b2a:	28 f0       	brcs	.+10     	; 0xb36 <__clzsi2+0x36>
     b2c:	88 e0       	ldi	r24, 0x08	; 8
     b2e:	90 e0       	ldi	r25, 0x00	; 0
     b30:	a0 e0       	ldi	r26, 0x00	; 0
     b32:	b0 e0       	ldi	r27, 0x00	; 0
     b34:	17 c0       	rjmp	.+46     	; 0xb64 <__clzsi2+0x64>
     b36:	80 e0       	ldi	r24, 0x00	; 0
     b38:	90 e0       	ldi	r25, 0x00	; 0
     b3a:	a0 e0       	ldi	r26, 0x00	; 0
     b3c:	b0 e0       	ldi	r27, 0x00	; 0
     b3e:	12 c0       	rjmp	.+36     	; 0xb64 <__clzsi2+0x64>
     b40:	80 e0       	ldi	r24, 0x00	; 0
     b42:	e8 16       	cp	r14, r24
     b44:	80 e0       	ldi	r24, 0x00	; 0
     b46:	f8 06       	cpc	r15, r24
     b48:	80 e0       	ldi	r24, 0x00	; 0
     b4a:	08 07       	cpc	r16, r24
     b4c:	81 e0       	ldi	r24, 0x01	; 1
     b4e:	18 07       	cpc	r17, r24
     b50:	28 f0       	brcs	.+10     	; 0xb5c <__clzsi2+0x5c>
     b52:	88 e1       	ldi	r24, 0x18	; 24
     b54:	90 e0       	ldi	r25, 0x00	; 0
     b56:	a0 e0       	ldi	r26, 0x00	; 0
     b58:	b0 e0       	ldi	r27, 0x00	; 0
     b5a:	04 c0       	rjmp	.+8      	; 0xb64 <__clzsi2+0x64>
     b5c:	80 e1       	ldi	r24, 0x10	; 16
     b5e:	90 e0       	ldi	r25, 0x00	; 0
     b60:	a0 e0       	ldi	r26, 0x00	; 0
     b62:	b0 e0       	ldi	r27, 0x00	; 0
     b64:	20 e2       	ldi	r18, 0x20	; 32
     b66:	30 e0       	ldi	r19, 0x00	; 0
     b68:	40 e0       	ldi	r20, 0x00	; 0
     b6a:	50 e0       	ldi	r21, 0x00	; 0
     b6c:	28 1b       	sub	r18, r24
     b6e:	39 0b       	sbc	r19, r25
     b70:	4a 0b       	sbc	r20, r26
     b72:	5b 0b       	sbc	r21, r27
     b74:	04 c0       	rjmp	.+8      	; 0xb7e <__clzsi2+0x7e>
     b76:	16 95       	lsr	r17
     b78:	07 95       	ror	r16
     b7a:	f7 94       	ror	r15
     b7c:	e7 94       	ror	r14
     b7e:	8a 95       	dec	r24
     b80:	d2 f7       	brpl	.-12     	; 0xb76 <__clzsi2+0x76>
     b82:	f7 01       	movw	r30, r14
     b84:	e4 5c       	subi	r30, 0xC4	; 196
     b86:	fd 4f       	sbci	r31, 0xFD	; 253
     b88:	80 81       	ld	r24, Z
     b8a:	28 1b       	sub	r18, r24
     b8c:	31 09       	sbc	r19, r1
     b8e:	41 09       	sbc	r20, r1
     b90:	51 09       	sbc	r21, r1
     b92:	c9 01       	movw	r24, r18
     b94:	1f 91       	pop	r17
     b96:	0f 91       	pop	r16
     b98:	ff 90       	pop	r15
     b9a:	ef 90       	pop	r14
     b9c:	08 95       	ret

00000b9e <__pack_f>:
     b9e:	df 92       	push	r13
     ba0:	ef 92       	push	r14
     ba2:	ff 92       	push	r15
     ba4:	0f 93       	push	r16
     ba6:	1f 93       	push	r17
     ba8:	fc 01       	movw	r30, r24
     baa:	e4 80       	ldd	r14, Z+4	; 0x04
     bac:	f5 80       	ldd	r15, Z+5	; 0x05
     bae:	06 81       	ldd	r16, Z+6	; 0x06
     bb0:	17 81       	ldd	r17, Z+7	; 0x07
     bb2:	d1 80       	ldd	r13, Z+1	; 0x01
     bb4:	80 81       	ld	r24, Z
     bb6:	82 30       	cpi	r24, 0x02	; 2
     bb8:	48 f4       	brcc	.+18     	; 0xbcc <__pack_f+0x2e>
     bba:	80 e0       	ldi	r24, 0x00	; 0
     bbc:	90 e0       	ldi	r25, 0x00	; 0
     bbe:	a0 e1       	ldi	r26, 0x10	; 16
     bc0:	b0 e0       	ldi	r27, 0x00	; 0
     bc2:	e8 2a       	or	r14, r24
     bc4:	f9 2a       	or	r15, r25
     bc6:	0a 2b       	or	r16, r26
     bc8:	1b 2b       	or	r17, r27
     bca:	a5 c0       	rjmp	.+330    	; 0xd16 <__pack_f+0x178>
     bcc:	84 30       	cpi	r24, 0x04	; 4
     bce:	09 f4       	brne	.+2      	; 0xbd2 <__pack_f+0x34>
     bd0:	9f c0       	rjmp	.+318    	; 0xd10 <__pack_f+0x172>
     bd2:	82 30       	cpi	r24, 0x02	; 2
     bd4:	21 f4       	brne	.+8      	; 0xbde <__pack_f+0x40>
     bd6:	ee 24       	eor	r14, r14
     bd8:	ff 24       	eor	r15, r15
     bda:	87 01       	movw	r16, r14
     bdc:	05 c0       	rjmp	.+10     	; 0xbe8 <__pack_f+0x4a>
     bde:	e1 14       	cp	r14, r1
     be0:	f1 04       	cpc	r15, r1
     be2:	01 05       	cpc	r16, r1
     be4:	11 05       	cpc	r17, r1
     be6:	19 f4       	brne	.+6      	; 0xbee <__pack_f+0x50>
     be8:	e0 e0       	ldi	r30, 0x00	; 0
     bea:	f0 e0       	ldi	r31, 0x00	; 0
     bec:	96 c0       	rjmp	.+300    	; 0xd1a <__pack_f+0x17c>
     bee:	62 81       	ldd	r22, Z+2	; 0x02
     bf0:	73 81       	ldd	r23, Z+3	; 0x03
     bf2:	9f ef       	ldi	r25, 0xFF	; 255
     bf4:	62 38       	cpi	r22, 0x82	; 130
     bf6:	79 07       	cpc	r23, r25
     bf8:	0c f0       	brlt	.+2      	; 0xbfc <__pack_f+0x5e>
     bfa:	5b c0       	rjmp	.+182    	; 0xcb2 <__pack_f+0x114>
     bfc:	22 e8       	ldi	r18, 0x82	; 130
     bfe:	3f ef       	ldi	r19, 0xFF	; 255
     c00:	26 1b       	sub	r18, r22
     c02:	37 0b       	sbc	r19, r23
     c04:	2a 31       	cpi	r18, 0x1A	; 26
     c06:	31 05       	cpc	r19, r1
     c08:	2c f0       	brlt	.+10     	; 0xc14 <__pack_f+0x76>
     c0a:	20 e0       	ldi	r18, 0x00	; 0
     c0c:	30 e0       	ldi	r19, 0x00	; 0
     c0e:	40 e0       	ldi	r20, 0x00	; 0
     c10:	50 e0       	ldi	r21, 0x00	; 0
     c12:	2a c0       	rjmp	.+84     	; 0xc68 <__pack_f+0xca>
     c14:	b8 01       	movw	r22, r16
     c16:	a7 01       	movw	r20, r14
     c18:	02 2e       	mov	r0, r18
     c1a:	04 c0       	rjmp	.+8      	; 0xc24 <__pack_f+0x86>
     c1c:	76 95       	lsr	r23
     c1e:	67 95       	ror	r22
     c20:	57 95       	ror	r21
     c22:	47 95       	ror	r20
     c24:	0a 94       	dec	r0
     c26:	d2 f7       	brpl	.-12     	; 0xc1c <__pack_f+0x7e>
     c28:	81 e0       	ldi	r24, 0x01	; 1
     c2a:	90 e0       	ldi	r25, 0x00	; 0
     c2c:	a0 e0       	ldi	r26, 0x00	; 0
     c2e:	b0 e0       	ldi	r27, 0x00	; 0
     c30:	04 c0       	rjmp	.+8      	; 0xc3a <__pack_f+0x9c>
     c32:	88 0f       	add	r24, r24
     c34:	99 1f       	adc	r25, r25
     c36:	aa 1f       	adc	r26, r26
     c38:	bb 1f       	adc	r27, r27
     c3a:	2a 95       	dec	r18
     c3c:	d2 f7       	brpl	.-12     	; 0xc32 <__pack_f+0x94>
     c3e:	01 97       	sbiw	r24, 0x01	; 1
     c40:	a1 09       	sbc	r26, r1
     c42:	b1 09       	sbc	r27, r1
     c44:	8e 21       	and	r24, r14
     c46:	9f 21       	and	r25, r15
     c48:	a0 23       	and	r26, r16
     c4a:	b1 23       	and	r27, r17
     c4c:	00 97       	sbiw	r24, 0x00	; 0
     c4e:	a1 05       	cpc	r26, r1
     c50:	b1 05       	cpc	r27, r1
     c52:	21 f0       	breq	.+8      	; 0xc5c <__pack_f+0xbe>
     c54:	81 e0       	ldi	r24, 0x01	; 1
     c56:	90 e0       	ldi	r25, 0x00	; 0
     c58:	a0 e0       	ldi	r26, 0x00	; 0
     c5a:	b0 e0       	ldi	r27, 0x00	; 0
     c5c:	9a 01       	movw	r18, r20
     c5e:	ab 01       	movw	r20, r22
     c60:	28 2b       	or	r18, r24
     c62:	39 2b       	or	r19, r25
     c64:	4a 2b       	or	r20, r26
     c66:	5b 2b       	or	r21, r27
     c68:	da 01       	movw	r26, r20
     c6a:	c9 01       	movw	r24, r18
     c6c:	8f 77       	andi	r24, 0x7F	; 127
     c6e:	90 70       	andi	r25, 0x00	; 0
     c70:	a0 70       	andi	r26, 0x00	; 0
     c72:	b0 70       	andi	r27, 0x00	; 0
     c74:	80 34       	cpi	r24, 0x40	; 64
     c76:	91 05       	cpc	r25, r1
     c78:	a1 05       	cpc	r26, r1
     c7a:	b1 05       	cpc	r27, r1
     c7c:	39 f4       	brne	.+14     	; 0xc8c <__pack_f+0xee>
     c7e:	27 ff       	sbrs	r18, 7
     c80:	09 c0       	rjmp	.+18     	; 0xc94 <__pack_f+0xf6>
     c82:	20 5c       	subi	r18, 0xC0	; 192
     c84:	3f 4f       	sbci	r19, 0xFF	; 255
     c86:	4f 4f       	sbci	r20, 0xFF	; 255
     c88:	5f 4f       	sbci	r21, 0xFF	; 255
     c8a:	04 c0       	rjmp	.+8      	; 0xc94 <__pack_f+0xf6>
     c8c:	21 5c       	subi	r18, 0xC1	; 193
     c8e:	3f 4f       	sbci	r19, 0xFF	; 255
     c90:	4f 4f       	sbci	r20, 0xFF	; 255
     c92:	5f 4f       	sbci	r21, 0xFF	; 255
     c94:	e0 e0       	ldi	r30, 0x00	; 0
     c96:	f0 e0       	ldi	r31, 0x00	; 0
     c98:	20 30       	cpi	r18, 0x00	; 0
     c9a:	a0 e0       	ldi	r26, 0x00	; 0
     c9c:	3a 07       	cpc	r19, r26
     c9e:	a0 e0       	ldi	r26, 0x00	; 0
     ca0:	4a 07       	cpc	r20, r26
     ca2:	a0 e4       	ldi	r26, 0x40	; 64
     ca4:	5a 07       	cpc	r21, r26
     ca6:	10 f0       	brcs	.+4      	; 0xcac <__pack_f+0x10e>
     ca8:	e1 e0       	ldi	r30, 0x01	; 1
     caa:	f0 e0       	ldi	r31, 0x00	; 0
     cac:	79 01       	movw	r14, r18
     cae:	8a 01       	movw	r16, r20
     cb0:	27 c0       	rjmp	.+78     	; 0xd00 <__pack_f+0x162>
     cb2:	60 38       	cpi	r22, 0x80	; 128
     cb4:	71 05       	cpc	r23, r1
     cb6:	64 f5       	brge	.+88     	; 0xd10 <__pack_f+0x172>
     cb8:	fb 01       	movw	r30, r22
     cba:	e1 58       	subi	r30, 0x81	; 129
     cbc:	ff 4f       	sbci	r31, 0xFF	; 255
     cbe:	d8 01       	movw	r26, r16
     cc0:	c7 01       	movw	r24, r14
     cc2:	8f 77       	andi	r24, 0x7F	; 127
     cc4:	90 70       	andi	r25, 0x00	; 0
     cc6:	a0 70       	andi	r26, 0x00	; 0
     cc8:	b0 70       	andi	r27, 0x00	; 0
     cca:	80 34       	cpi	r24, 0x40	; 64
     ccc:	91 05       	cpc	r25, r1
     cce:	a1 05       	cpc	r26, r1
     cd0:	b1 05       	cpc	r27, r1
     cd2:	39 f4       	brne	.+14     	; 0xce2 <__pack_f+0x144>
     cd4:	e7 fe       	sbrs	r14, 7
     cd6:	0d c0       	rjmp	.+26     	; 0xcf2 <__pack_f+0x154>
     cd8:	80 e4       	ldi	r24, 0x40	; 64
     cda:	90 e0       	ldi	r25, 0x00	; 0
     cdc:	a0 e0       	ldi	r26, 0x00	; 0
     cde:	b0 e0       	ldi	r27, 0x00	; 0
     ce0:	04 c0       	rjmp	.+8      	; 0xcea <__pack_f+0x14c>
     ce2:	8f e3       	ldi	r24, 0x3F	; 63
     ce4:	90 e0       	ldi	r25, 0x00	; 0
     ce6:	a0 e0       	ldi	r26, 0x00	; 0
     ce8:	b0 e0       	ldi	r27, 0x00	; 0
     cea:	e8 0e       	add	r14, r24
     cec:	f9 1e       	adc	r15, r25
     cee:	0a 1f       	adc	r16, r26
     cf0:	1b 1f       	adc	r17, r27
     cf2:	17 ff       	sbrs	r17, 7
     cf4:	05 c0       	rjmp	.+10     	; 0xd00 <__pack_f+0x162>
     cf6:	16 95       	lsr	r17
     cf8:	07 95       	ror	r16
     cfa:	f7 94       	ror	r15
     cfc:	e7 94       	ror	r14
     cfe:	31 96       	adiw	r30, 0x01	; 1
     d00:	87 e0       	ldi	r24, 0x07	; 7
     d02:	16 95       	lsr	r17
     d04:	07 95       	ror	r16
     d06:	f7 94       	ror	r15
     d08:	e7 94       	ror	r14
     d0a:	8a 95       	dec	r24
     d0c:	d1 f7       	brne	.-12     	; 0xd02 <__pack_f+0x164>
     d0e:	05 c0       	rjmp	.+10     	; 0xd1a <__pack_f+0x17c>
     d10:	ee 24       	eor	r14, r14
     d12:	ff 24       	eor	r15, r15
     d14:	87 01       	movw	r16, r14
     d16:	ef ef       	ldi	r30, 0xFF	; 255
     d18:	f0 e0       	ldi	r31, 0x00	; 0
     d1a:	6e 2f       	mov	r22, r30
     d1c:	67 95       	ror	r22
     d1e:	66 27       	eor	r22, r22
     d20:	67 95       	ror	r22
     d22:	90 2f       	mov	r25, r16
     d24:	9f 77       	andi	r25, 0x7F	; 127
     d26:	d7 94       	ror	r13
     d28:	dd 24       	eor	r13, r13
     d2a:	d7 94       	ror	r13
     d2c:	8e 2f       	mov	r24, r30
     d2e:	86 95       	lsr	r24
     d30:	49 2f       	mov	r20, r25
     d32:	46 2b       	or	r20, r22
     d34:	58 2f       	mov	r21, r24
     d36:	5d 29       	or	r21, r13
     d38:	b7 01       	movw	r22, r14
     d3a:	ca 01       	movw	r24, r20
     d3c:	1f 91       	pop	r17
     d3e:	0f 91       	pop	r16
     d40:	ff 90       	pop	r15
     d42:	ef 90       	pop	r14
     d44:	df 90       	pop	r13
     d46:	08 95       	ret

00000d48 <__unpack_f>:
     d48:	fc 01       	movw	r30, r24
     d4a:	db 01       	movw	r26, r22
     d4c:	40 81       	ld	r20, Z
     d4e:	51 81       	ldd	r21, Z+1	; 0x01
     d50:	22 81       	ldd	r18, Z+2	; 0x02
     d52:	62 2f       	mov	r22, r18
     d54:	6f 77       	andi	r22, 0x7F	; 127
     d56:	70 e0       	ldi	r23, 0x00	; 0
     d58:	22 1f       	adc	r18, r18
     d5a:	22 27       	eor	r18, r18
     d5c:	22 1f       	adc	r18, r18
     d5e:	93 81       	ldd	r25, Z+3	; 0x03
     d60:	89 2f       	mov	r24, r25
     d62:	88 0f       	add	r24, r24
     d64:	82 2b       	or	r24, r18
     d66:	28 2f       	mov	r18, r24
     d68:	30 e0       	ldi	r19, 0x00	; 0
     d6a:	99 1f       	adc	r25, r25
     d6c:	99 27       	eor	r25, r25
     d6e:	99 1f       	adc	r25, r25
     d70:	11 96       	adiw	r26, 0x01	; 1
     d72:	9c 93       	st	X, r25
     d74:	11 97       	sbiw	r26, 0x01	; 1
     d76:	21 15       	cp	r18, r1
     d78:	31 05       	cpc	r19, r1
     d7a:	a9 f5       	brne	.+106    	; 0xde6 <__unpack_f+0x9e>
     d7c:	41 15       	cp	r20, r1
     d7e:	51 05       	cpc	r21, r1
     d80:	61 05       	cpc	r22, r1
     d82:	71 05       	cpc	r23, r1
     d84:	11 f4       	brne	.+4      	; 0xd8a <__unpack_f+0x42>
     d86:	82 e0       	ldi	r24, 0x02	; 2
     d88:	37 c0       	rjmp	.+110    	; 0xdf8 <__unpack_f+0xb0>
     d8a:	82 e8       	ldi	r24, 0x82	; 130
     d8c:	9f ef       	ldi	r25, 0xFF	; 255
     d8e:	13 96       	adiw	r26, 0x03	; 3
     d90:	9c 93       	st	X, r25
     d92:	8e 93       	st	-X, r24
     d94:	12 97       	sbiw	r26, 0x02	; 2
     d96:	9a 01       	movw	r18, r20
     d98:	ab 01       	movw	r20, r22
     d9a:	67 e0       	ldi	r22, 0x07	; 7
     d9c:	22 0f       	add	r18, r18
     d9e:	33 1f       	adc	r19, r19
     da0:	44 1f       	adc	r20, r20
     da2:	55 1f       	adc	r21, r21
     da4:	6a 95       	dec	r22
     da6:	d1 f7       	brne	.-12     	; 0xd9c <__unpack_f+0x54>
     da8:	83 e0       	ldi	r24, 0x03	; 3
     daa:	8c 93       	st	X, r24
     dac:	0d c0       	rjmp	.+26     	; 0xdc8 <__unpack_f+0x80>
     dae:	22 0f       	add	r18, r18
     db0:	33 1f       	adc	r19, r19
     db2:	44 1f       	adc	r20, r20
     db4:	55 1f       	adc	r21, r21
     db6:	12 96       	adiw	r26, 0x02	; 2
     db8:	8d 91       	ld	r24, X+
     dba:	9c 91       	ld	r25, X
     dbc:	13 97       	sbiw	r26, 0x03	; 3
     dbe:	01 97       	sbiw	r24, 0x01	; 1
     dc0:	13 96       	adiw	r26, 0x03	; 3
     dc2:	9c 93       	st	X, r25
     dc4:	8e 93       	st	-X, r24
     dc6:	12 97       	sbiw	r26, 0x02	; 2
     dc8:	20 30       	cpi	r18, 0x00	; 0
     dca:	80 e0       	ldi	r24, 0x00	; 0
     dcc:	38 07       	cpc	r19, r24
     dce:	80 e0       	ldi	r24, 0x00	; 0
     dd0:	48 07       	cpc	r20, r24
     dd2:	80 e4       	ldi	r24, 0x40	; 64
     dd4:	58 07       	cpc	r21, r24
     dd6:	58 f3       	brcs	.-42     	; 0xdae <__unpack_f+0x66>
     dd8:	14 96       	adiw	r26, 0x04	; 4
     dda:	2d 93       	st	X+, r18
     ddc:	3d 93       	st	X+, r19
     dde:	4d 93       	st	X+, r20
     de0:	5c 93       	st	X, r21
     de2:	17 97       	sbiw	r26, 0x07	; 7
     de4:	08 95       	ret
     de6:	2f 3f       	cpi	r18, 0xFF	; 255
     de8:	31 05       	cpc	r19, r1
     dea:	79 f4       	brne	.+30     	; 0xe0a <__unpack_f+0xc2>
     dec:	41 15       	cp	r20, r1
     dee:	51 05       	cpc	r21, r1
     df0:	61 05       	cpc	r22, r1
     df2:	71 05       	cpc	r23, r1
     df4:	19 f4       	brne	.+6      	; 0xdfc <__unpack_f+0xb4>
     df6:	84 e0       	ldi	r24, 0x04	; 4
     df8:	8c 93       	st	X, r24
     dfa:	08 95       	ret
     dfc:	64 ff       	sbrs	r22, 4
     dfe:	03 c0       	rjmp	.+6      	; 0xe06 <__unpack_f+0xbe>
     e00:	81 e0       	ldi	r24, 0x01	; 1
     e02:	8c 93       	st	X, r24
     e04:	12 c0       	rjmp	.+36     	; 0xe2a <__unpack_f+0xe2>
     e06:	1c 92       	st	X, r1
     e08:	10 c0       	rjmp	.+32     	; 0xe2a <__unpack_f+0xe2>
     e0a:	2f 57       	subi	r18, 0x7F	; 127
     e0c:	30 40       	sbci	r19, 0x00	; 0
     e0e:	13 96       	adiw	r26, 0x03	; 3
     e10:	3c 93       	st	X, r19
     e12:	2e 93       	st	-X, r18
     e14:	12 97       	sbiw	r26, 0x02	; 2
     e16:	83 e0       	ldi	r24, 0x03	; 3
     e18:	8c 93       	st	X, r24
     e1a:	87 e0       	ldi	r24, 0x07	; 7
     e1c:	44 0f       	add	r20, r20
     e1e:	55 1f       	adc	r21, r21
     e20:	66 1f       	adc	r22, r22
     e22:	77 1f       	adc	r23, r23
     e24:	8a 95       	dec	r24
     e26:	d1 f7       	brne	.-12     	; 0xe1c <__unpack_f+0xd4>
     e28:	70 64       	ori	r23, 0x40	; 64
     e2a:	14 96       	adiw	r26, 0x04	; 4
     e2c:	4d 93       	st	X+, r20
     e2e:	5d 93       	st	X+, r21
     e30:	6d 93       	st	X+, r22
     e32:	7c 93       	st	X, r23
     e34:	17 97       	sbiw	r26, 0x07	; 7
     e36:	08 95       	ret

00000e38 <__fpcmp_parts_f>:
     e38:	1f 93       	push	r17
     e3a:	dc 01       	movw	r26, r24
     e3c:	fb 01       	movw	r30, r22
     e3e:	9c 91       	ld	r25, X
     e40:	92 30       	cpi	r25, 0x02	; 2
     e42:	08 f4       	brcc	.+2      	; 0xe46 <__fpcmp_parts_f+0xe>
     e44:	47 c0       	rjmp	.+142    	; 0xed4 <__fpcmp_parts_f+0x9c>
     e46:	80 81       	ld	r24, Z
     e48:	82 30       	cpi	r24, 0x02	; 2
     e4a:	08 f4       	brcc	.+2      	; 0xe4e <__fpcmp_parts_f+0x16>
     e4c:	43 c0       	rjmp	.+134    	; 0xed4 <__fpcmp_parts_f+0x9c>
     e4e:	94 30       	cpi	r25, 0x04	; 4
     e50:	51 f4       	brne	.+20     	; 0xe66 <__fpcmp_parts_f+0x2e>
     e52:	11 96       	adiw	r26, 0x01	; 1
     e54:	1c 91       	ld	r17, X
     e56:	84 30       	cpi	r24, 0x04	; 4
     e58:	99 f5       	brne	.+102    	; 0xec0 <__fpcmp_parts_f+0x88>
     e5a:	81 81       	ldd	r24, Z+1	; 0x01
     e5c:	68 2f       	mov	r22, r24
     e5e:	70 e0       	ldi	r23, 0x00	; 0
     e60:	61 1b       	sub	r22, r17
     e62:	71 09       	sbc	r23, r1
     e64:	3f c0       	rjmp	.+126    	; 0xee4 <__fpcmp_parts_f+0xac>
     e66:	84 30       	cpi	r24, 0x04	; 4
     e68:	21 f0       	breq	.+8      	; 0xe72 <__fpcmp_parts_f+0x3a>
     e6a:	92 30       	cpi	r25, 0x02	; 2
     e6c:	31 f4       	brne	.+12     	; 0xe7a <__fpcmp_parts_f+0x42>
     e6e:	82 30       	cpi	r24, 0x02	; 2
     e70:	b9 f1       	breq	.+110    	; 0xee0 <__fpcmp_parts_f+0xa8>
     e72:	81 81       	ldd	r24, Z+1	; 0x01
     e74:	88 23       	and	r24, r24
     e76:	89 f1       	breq	.+98     	; 0xeda <__fpcmp_parts_f+0xa2>
     e78:	2d c0       	rjmp	.+90     	; 0xed4 <__fpcmp_parts_f+0x9c>
     e7a:	11 96       	adiw	r26, 0x01	; 1
     e7c:	1c 91       	ld	r17, X
     e7e:	11 97       	sbiw	r26, 0x01	; 1
     e80:	82 30       	cpi	r24, 0x02	; 2
     e82:	f1 f0       	breq	.+60     	; 0xec0 <__fpcmp_parts_f+0x88>
     e84:	81 81       	ldd	r24, Z+1	; 0x01
     e86:	18 17       	cp	r17, r24
     e88:	d9 f4       	brne	.+54     	; 0xec0 <__fpcmp_parts_f+0x88>
     e8a:	12 96       	adiw	r26, 0x02	; 2
     e8c:	2d 91       	ld	r18, X+
     e8e:	3c 91       	ld	r19, X
     e90:	13 97       	sbiw	r26, 0x03	; 3
     e92:	82 81       	ldd	r24, Z+2	; 0x02
     e94:	93 81       	ldd	r25, Z+3	; 0x03
     e96:	82 17       	cp	r24, r18
     e98:	93 07       	cpc	r25, r19
     e9a:	94 f0       	brlt	.+36     	; 0xec0 <__fpcmp_parts_f+0x88>
     e9c:	28 17       	cp	r18, r24
     e9e:	39 07       	cpc	r19, r25
     ea0:	bc f0       	brlt	.+46     	; 0xed0 <__fpcmp_parts_f+0x98>
     ea2:	14 96       	adiw	r26, 0x04	; 4
     ea4:	8d 91       	ld	r24, X+
     ea6:	9d 91       	ld	r25, X+
     ea8:	0d 90       	ld	r0, X+
     eaa:	bc 91       	ld	r27, X
     eac:	a0 2d       	mov	r26, r0
     eae:	24 81       	ldd	r18, Z+4	; 0x04
     eb0:	35 81       	ldd	r19, Z+5	; 0x05
     eb2:	46 81       	ldd	r20, Z+6	; 0x06
     eb4:	57 81       	ldd	r21, Z+7	; 0x07
     eb6:	28 17       	cp	r18, r24
     eb8:	39 07       	cpc	r19, r25
     eba:	4a 07       	cpc	r20, r26
     ebc:	5b 07       	cpc	r21, r27
     ebe:	18 f4       	brcc	.+6      	; 0xec6 <__fpcmp_parts_f+0x8e>
     ec0:	11 23       	and	r17, r17
     ec2:	41 f0       	breq	.+16     	; 0xed4 <__fpcmp_parts_f+0x9c>
     ec4:	0a c0       	rjmp	.+20     	; 0xeda <__fpcmp_parts_f+0xa2>
     ec6:	82 17       	cp	r24, r18
     ec8:	93 07       	cpc	r25, r19
     eca:	a4 07       	cpc	r26, r20
     ecc:	b5 07       	cpc	r27, r21
     ece:	40 f4       	brcc	.+16     	; 0xee0 <__fpcmp_parts_f+0xa8>
     ed0:	11 23       	and	r17, r17
     ed2:	19 f0       	breq	.+6      	; 0xeda <__fpcmp_parts_f+0xa2>
     ed4:	61 e0       	ldi	r22, 0x01	; 1
     ed6:	70 e0       	ldi	r23, 0x00	; 0
     ed8:	05 c0       	rjmp	.+10     	; 0xee4 <__fpcmp_parts_f+0xac>
     eda:	6f ef       	ldi	r22, 0xFF	; 255
     edc:	7f ef       	ldi	r23, 0xFF	; 255
     ede:	02 c0       	rjmp	.+4      	; 0xee4 <__fpcmp_parts_f+0xac>
     ee0:	60 e0       	ldi	r22, 0x00	; 0
     ee2:	70 e0       	ldi	r23, 0x00	; 0
     ee4:	cb 01       	movw	r24, r22
     ee6:	1f 91       	pop	r17
     ee8:	08 95       	ret

00000eea <main>:
void setup();
void loop();


void main(void)
{
     eea:	df 93       	push	r29
     eec:	cf 93       	push	r28
     eee:	cd b7       	in	r28, 0x3d	; 61
     ef0:	de b7       	in	r29, 0x3e	; 62

	setup();
     ef2:	0e 94 7e 07 	call	0xefc	; 0xefc <setup>
	while (1)
	{
		loop();
     ef6:	0e 94 ae 07 	call	0xf5c	; 0xf5c <loop>
     efa:	fd cf       	rjmp	.-6      	; 0xef6 <main+0xc>

00000efc <setup>:
	}

}

void setup()
{
     efc:	df 93       	push	r29
     efe:	cf 93       	push	r28
     f00:	cd b7       	in	r28, 0x3d	; 61
     f02:	de b7       	in	r29, 0x3e	; 62

	Watchdog_OFF();
     f04:	0e 94 03 1e 	call	0x3c06	; 0x3c06 <Watchdog_OFF>
	LCD_init();
     f08:	0e 94 e4 11 	call	0x23c8	; 0x23c8 <LCD_init>
	Keypad_keypadInit();
     f0c:	0e 94 ba 16 	call	0x2d74	; 0x2d74 <Keypad_keypadInit>
	EEPROM_Init();
     f10:	0e 94 f8 19 	call	0x33f0	; 0x33f0 <EEPROM_Init>
	HC05_Init();
     f14:	0e 94 a8 19 	call	0x3350	; 0x3350 <HC05_Init>
	Buzzer_init();
     f18:	0e 94 8a 1d 	call	0x3b14	; 0x3b14 <Buzzer_init>
	LM35_Init();
     f1c:	0e 94 f0 10 	call	0x21e0	; 0x21e0 <LM35_Init>
	DCMotor_Init(DCMOTOR_1);
     f20:	80 e0       	ldi	r24, 0x00	; 0
     f22:	0e 94 a7 1c 	call	0x394e	; 0x394e <DCMotor_Init>
	Door_Init();
     f26:	0e 94 86 0c 	call	0x190c	; 0x190c <Door_Init>
	Relay_Init();
     f2a:	0e 94 58 10 	call	0x20b0	; 0x20b0 <Relay_Init>

	userType = login();
     f2e:	0e 94 c7 0b 	call	0x178e	; 0x178e <login>
     f32:	80 93 66 03 	sts	0x0366, r24
//	userType = '2';
	HC05_SendString("Enter command...\n");
     f36:	80 e6       	ldi	r24, 0x60	; 96
     f38:	90 e0       	ldi	r25, 0x00	; 0
     f3a:	0e 94 d2 19 	call	0x33a4	; 0x33a4 <HC05_SendString>
	LCD_setAddressPosition(0, 0);
     f3e:	80 e0       	ldi	r24, 0x00	; 0
     f40:	60 e0       	ldi	r22, 0x00	; 0
     f42:	0e 94 8d 16 	call	0x2d1a	; 0x2d1a <LCD_setAddressPosition>
	LCD_displayString("Enter command...");
     f46:	82 e7       	ldi	r24, 0x72	; 114
     f48:	90 e0       	ldi	r25, 0x00	; 0
     f4a:	0e 94 28 16 	call	0x2c50	; 0x2c50 <LCD_displayString>
	LCD_setAddressPosition(1, 0);
     f4e:	81 e0       	ldi	r24, 0x01	; 1
     f50:	60 e0       	ldi	r22, 0x00	; 0
     f52:	0e 94 8d 16 	call	0x2d1a	; 0x2d1a <LCD_setAddressPosition>

}
     f56:	cf 91       	pop	r28
     f58:	df 91       	pop	r29
     f5a:	08 95       	ret

00000f5c <loop>:

void loop()
{
     f5c:	df 93       	push	r29
     f5e:	cf 93       	push	r28
     f60:	cd b7       	in	r28, 0x3d	; 61
     f62:	de b7       	in	r29, 0x3e	; 62
     f64:	29 97       	sbiw	r28, 0x09	; 9
     f66:	0f b6       	in	r0, 0x3f	; 63
     f68:	f8 94       	cli
     f6a:	de bf       	out	0x3e, r29	; 62
     f6c:	0f be       	out	0x3f, r0	; 63
     f6e:	cd bf       	out	0x3d, r28	; 61


	// Get Command
	u8 command = '\0';
     f70:	19 82       	std	Y+1, r1	; 0x01

	// Admin Mode
	if (userType == '1')
     f72:	80 91 66 03 	lds	r24, 0x0366
     f76:	81 33       	cpi	r24, 0x31	; 49
     f78:	09 f0       	breq	.+2      	; 0xf7c <loop+0x20>
     f7a:	61 c0       	rjmp	.+194    	; 0x103e <loop+0xe2>
	{

		command = HC05_ReceiveCharNonBlock();
     f7c:	0e 94 c9 19 	call	0x3392	; 0x3392 <HC05_ReceiveCharNonBlock>
     f80:	89 83       	std	Y+1, r24	; 0x01

		switch (command) {
     f82:	89 81       	ldd	r24, Y+1	; 0x01
     f84:	28 2f       	mov	r18, r24
     f86:	30 e0       	ldi	r19, 0x00	; 0
     f88:	39 87       	std	Y+9, r19	; 0x09
     f8a:	28 87       	std	Y+8, r18	; 0x08
     f8c:	88 85       	ldd	r24, Y+8	; 0x08
     f8e:	99 85       	ldd	r25, Y+9	; 0x09
     f90:	84 33       	cpi	r24, 0x34	; 52
     f92:	91 05       	cpc	r25, r1
     f94:	89 f1       	breq	.+98     	; 0xff8 <loop+0x9c>
     f96:	28 85       	ldd	r18, Y+8	; 0x08
     f98:	39 85       	ldd	r19, Y+9	; 0x09
     f9a:	25 33       	cpi	r18, 0x35	; 53
     f9c:	31 05       	cpc	r19, r1
     f9e:	84 f4       	brge	.+32     	; 0xfc0 <loop+0x64>
     fa0:	88 85       	ldd	r24, Y+8	; 0x08
     fa2:	99 85       	ldd	r25, Y+9	; 0x09
     fa4:	82 33       	cpi	r24, 0x32	; 50
     fa6:	91 05       	cpc	r25, r1
     fa8:	f9 f0       	breq	.+62     	; 0xfe8 <loop+0x8c>
     faa:	28 85       	ldd	r18, Y+8	; 0x08
     fac:	39 85       	ldd	r19, Y+9	; 0x09
     fae:	23 33       	cpi	r18, 0x33	; 51
     fb0:	31 05       	cpc	r19, r1
     fb2:	f4 f4       	brge	.+60     	; 0xff0 <loop+0x94>
     fb4:	88 85       	ldd	r24, Y+8	; 0x08
     fb6:	99 85       	ldd	r25, Y+9	; 0x09
     fb8:	81 33       	cpi	r24, 0x31	; 49
     fba:	91 05       	cpc	r25, r1
     fbc:	89 f0       	breq	.+34     	; 0xfe0 <loop+0x84>
     fbe:	a2 c0       	rjmp	.+324    	; 0x1104 <loop+0x1a8>
     fc0:	28 85       	ldd	r18, Y+8	; 0x08
     fc2:	39 85       	ldd	r19, Y+9	; 0x09
     fc4:	26 33       	cpi	r18, 0x36	; 54
     fc6:	31 05       	cpc	r19, r1
     fc8:	f9 f0       	breq	.+62     	; 0x1008 <loop+0xac>
     fca:	88 85       	ldd	r24, Y+8	; 0x08
     fcc:	99 85       	ldd	r25, Y+9	; 0x09
     fce:	86 33       	cpi	r24, 0x36	; 54
     fd0:	91 05       	cpc	r25, r1
     fd2:	b4 f0       	brlt	.+44     	; 0x1000 <loop+0xa4>
     fd4:	28 85       	ldd	r18, Y+8	; 0x08
     fd6:	39 85       	ldd	r19, Y+9	; 0x09
     fd8:	27 33       	cpi	r18, 0x37	; 55
     fda:	31 05       	cpc	r19, r1
     fdc:	69 f1       	breq	.+90     	; 0x1038 <loop+0xdc>
     fde:	92 c0       	rjmp	.+292    	; 0x1104 <loop+0x1a8>
			// 6 Lamps
			case '1':
				// Relay 1 On function
				Relay_toogle(Relay_1);
     fe0:	80 e0       	ldi	r24, 0x00	; 0
     fe2:	0e 94 97 10 	call	0x212e	; 0x212e <Relay_toogle>
     fe6:	8e c0       	rjmp	.+284    	; 0x1104 <loop+0x1a8>
				break;
			case '2':
				// Relay 2 On function
				Relay_toogle(Relay_2);
     fe8:	81 e0       	ldi	r24, 0x01	; 1
     fea:	0e 94 97 10 	call	0x212e	; 0x212e <Relay_toogle>
     fee:	8a c0       	rjmp	.+276    	; 0x1104 <loop+0x1a8>
				break;
			case '3':
				// Relay 3 On function
				Relay_toogle(Relay_3);
     ff0:	82 e0       	ldi	r24, 0x02	; 2
     ff2:	0e 94 97 10 	call	0x212e	; 0x212e <Relay_toogle>
     ff6:	86 c0       	rjmp	.+268    	; 0x1104 <loop+0x1a8>
				break;
			case '4':
				// Relay 4 On function
				Relay_toogle(Relay_4);
     ff8:	83 e0       	ldi	r24, 0x03	; 3
     ffa:	0e 94 97 10 	call	0x212e	; 0x212e <Relay_toogle>
     ffe:	82 c0       	rjmp	.+260    	; 0x1104 <loop+0x1a8>
				break;
			case '5':
				// Relay 5 On function
				Relay_toogle(Relay_5);
    1000:	84 e0       	ldi	r24, 0x04	; 4
    1002:	0e 94 97 10 	call	0x212e	; 0x212e <Relay_toogle>
    1006:	7e c0       	rjmp	.+252    	; 0x1104 <loop+0x1a8>
				break;
			case '6':

				// Relay 6 On function
				HC05_SendString("Enter percentage (0-100)...\n");
    1008:	83 e8       	ldi	r24, 0x83	; 131
    100a:	90 e0       	ldi	r25, 0x00	; 0
    100c:	0e 94 d2 19 	call	0x33a4	; 0x33a4 <HC05_SendString>
				HC05_ReceiveString(dimmerLamp, 4);
    1010:	89 e6       	ldi	r24, 0x69	; 105
    1012:	93 e0       	ldi	r25, 0x03	; 3
    1014:	64 e0       	ldi	r22, 0x04	; 4
    1016:	0e 94 e3 19 	call	0x33c6	; 0x33c6 <HC05_ReceiveString>
				u8* nextToLastDigit;
				Relay_setDimmer(strtol(dimmerLamp, &nextToLastDigit, 10));
    101a:	89 e6       	ldi	r24, 0x69	; 105
    101c:	93 e0       	ldi	r25, 0x03	; 3
    101e:	9e 01       	movw	r18, r28
    1020:	2e 5f       	subi	r18, 0xFE	; 254
    1022:	3f 4f       	sbci	r19, 0xFF	; 255
    1024:	b9 01       	movw	r22, r18
    1026:	4a e0       	ldi	r20, 0x0A	; 10
    1028:	50 e0       	ldi	r21, 0x00	; 0
    102a:	0e 94 d2 29 	call	0x53a4	; 0x53a4 <strtol>
    102e:	dc 01       	movw	r26, r24
    1030:	cb 01       	movw	r24, r22
    1032:	0e 94 e0 10 	call	0x21c0	; 0x21c0 <Relay_setDimmer>
    1036:	66 c0       	rjmp	.+204    	; 0x1104 <loop+0x1a8>
				break;

			case '7':
				// switch servo
				Door_Toogle();
    1038:	0e 94 b1 0d 	call	0x1b62	; 0x1b62 <Door_Toogle>
    103c:	63 c0       	rjmp	.+198    	; 0x1104 <loop+0x1a8>

	// User Mode
	else
	{

		command = Keypad_getButton();
    103e:	0e 94 23 17 	call	0x2e46	; 0x2e46 <Keypad_getButton>
    1042:	89 83       	std	Y+1, r24	; 0x01

		switch (command) {
    1044:	89 81       	ldd	r24, Y+1	; 0x01
    1046:	28 2f       	mov	r18, r24
    1048:	30 e0       	ldi	r19, 0x00	; 0
    104a:	3f 83       	std	Y+7, r19	; 0x07
    104c:	2e 83       	std	Y+6, r18	; 0x06
    104e:	8e 81       	ldd	r24, Y+6	; 0x06
    1050:	9f 81       	ldd	r25, Y+7	; 0x07
    1052:	83 33       	cpi	r24, 0x33	; 51
    1054:	91 05       	cpc	r25, r1
    1056:	41 f1       	breq	.+80     	; 0x10a8 <loop+0x14c>
    1058:	2e 81       	ldd	r18, Y+6	; 0x06
    105a:	3f 81       	ldd	r19, Y+7	; 0x07
    105c:	24 33       	cpi	r18, 0x34	; 52
    105e:	31 05       	cpc	r19, r1
    1060:	5c f4       	brge	.+22     	; 0x1078 <loop+0x11c>
    1062:	8e 81       	ldd	r24, Y+6	; 0x06
    1064:	9f 81       	ldd	r25, Y+7	; 0x07
    1066:	81 33       	cpi	r24, 0x31	; 49
    1068:	91 05       	cpc	r25, r1
    106a:	b1 f0       	breq	.+44     	; 0x1098 <loop+0x13c>
    106c:	2e 81       	ldd	r18, Y+6	; 0x06
    106e:	3f 81       	ldd	r19, Y+7	; 0x07
    1070:	22 33       	cpi	r18, 0x32	; 50
    1072:	31 05       	cpc	r19, r1
    1074:	a9 f0       	breq	.+42     	; 0x10a0 <loop+0x144>
    1076:	46 c0       	rjmp	.+140    	; 0x1104 <loop+0x1a8>
    1078:	8e 81       	ldd	r24, Y+6	; 0x06
    107a:	9f 81       	ldd	r25, Y+7	; 0x07
    107c:	85 33       	cpi	r24, 0x35	; 53
    107e:	91 05       	cpc	r25, r1
    1080:	d9 f0       	breq	.+54     	; 0x10b8 <loop+0x15c>
    1082:	2e 81       	ldd	r18, Y+6	; 0x06
    1084:	3f 81       	ldd	r19, Y+7	; 0x07
    1086:	25 33       	cpi	r18, 0x35	; 53
    1088:	31 05       	cpc	r19, r1
    108a:	94 f0       	brlt	.+36     	; 0x10b0 <loop+0x154>
    108c:	8e 81       	ldd	r24, Y+6	; 0x06
    108e:	9f 81       	ldd	r25, Y+7	; 0x07
    1090:	86 33       	cpi	r24, 0x36	; 54
    1092:	91 05       	cpc	r25, r1
    1094:	a9 f0       	breq	.+42     	; 0x10c0 <loop+0x164>
    1096:	36 c0       	rjmp	.+108    	; 0x1104 <loop+0x1a8>
			// 6 Lamps
			case '1':
				// Relay 1 On function
				Relay_toogle(Relay_1);
    1098:	80 e0       	ldi	r24, 0x00	; 0
    109a:	0e 94 97 10 	call	0x212e	; 0x212e <Relay_toogle>
    109e:	32 c0       	rjmp	.+100    	; 0x1104 <loop+0x1a8>
				break;
			case '2':
				// Relay 2 On function
				Relay_toogle(Relay_2);
    10a0:	81 e0       	ldi	r24, 0x01	; 1
    10a2:	0e 94 97 10 	call	0x212e	; 0x212e <Relay_toogle>
    10a6:	2e c0       	rjmp	.+92     	; 0x1104 <loop+0x1a8>
				break;
			case '3':
				// Relay 3 On function
				Relay_toogle(Relay_3);
    10a8:	82 e0       	ldi	r24, 0x02	; 2
    10aa:	0e 94 97 10 	call	0x212e	; 0x212e <Relay_toogle>
    10ae:	2a c0       	rjmp	.+84     	; 0x1104 <loop+0x1a8>
				break;
			case '4':
				// Relay 4 On function
				Relay_toogle(Relay_4);
    10b0:	83 e0       	ldi	r24, 0x03	; 3
    10b2:	0e 94 97 10 	call	0x212e	; 0x212e <Relay_toogle>
    10b6:	26 c0       	rjmp	.+76     	; 0x1104 <loop+0x1a8>
				break;
			case '5':
				// Relay 5 On function
				Relay_toogle(Relay_5);
    10b8:	84 e0       	ldi	r24, 0x04	; 4
    10ba:	0e 94 97 10 	call	0x212e	; 0x212e <Relay_toogle>
    10be:	22 c0       	rjmp	.+68     	; 0x1104 <loop+0x1a8>
				break;
			case '6':

				// Relay 6 On function
				LCD_setAddressPosition(1, 0);
    10c0:	81 e0       	ldi	r24, 0x01	; 1
    10c2:	60 e0       	ldi	r22, 0x00	; 0
    10c4:	0e 94 8d 16 	call	0x2d1a	; 0x2d1a <LCD_setAddressPosition>
				LCD_displayString("Enter from 0-100");
    10c8:	80 ea       	ldi	r24, 0xA0	; 160
    10ca:	90 e0       	ldi	r25, 0x00	; 0
    10cc:	0e 94 28 16 	call	0x2c50	; 0x2c50 <LCD_displayString>
				Keypad_GetString(dimmerLamp, 4);
    10d0:	89 e6       	ldi	r24, 0x69	; 105
    10d2:	93 e0       	ldi	r25, 0x03	; 3
    10d4:	64 e0       	ldi	r22, 0x04	; 4
    10d6:	0e 94 e7 18 	call	0x31ce	; 0x31ce <Keypad_GetString>
				u8* nextToLastDigit;
				Relay_setDimmer(strtol(dimmerLamp, &nextToLastDigit, 10));
    10da:	89 e6       	ldi	r24, 0x69	; 105
    10dc:	93 e0       	ldi	r25, 0x03	; 3
    10de:	9e 01       	movw	r18, r28
    10e0:	2c 5f       	subi	r18, 0xFC	; 252
    10e2:	3f 4f       	sbci	r19, 0xFF	; 255
    10e4:	b9 01       	movw	r22, r18
    10e6:	4a e0       	ldi	r20, 0x0A	; 10
    10e8:	50 e0       	ldi	r21, 0x00	; 0
    10ea:	0e 94 d2 29 	call	0x53a4	; 0x53a4 <strtol>
    10ee:	dc 01       	movw	r26, r24
    10f0:	cb 01       	movw	r24, r22
    10f2:	0e 94 e0 10 	call	0x21c0	; 0x21c0 <Relay_setDimmer>
				LCD_ClearRow(1);
    10f6:	81 e0       	ldi	r24, 0x01	; 1
    10f8:	0e 94 62 16 	call	0x2cc4	; 0x2cc4 <LCD_ClearRow>
				LCD_setAddressPosition(1, 0);
    10fc:	81 e0       	ldi	r24, 0x01	; 1
    10fe:	60 e0       	ldi	r22, 0x00	; 0
    1100:	0e 94 8d 16 	call	0x2d1a	; 0x2d1a <LCD_setAddressPosition>
				break;
		}

	}

	command = '\0';
    1104:	19 82       	std	Y+1, r1	; 0x01

	// AC -> Temp Sensor, DC Motor
	if (LM35_ReadTemperature() > 28)
    1106:	0e 94 fe 10 	call	0x21fc	; 0x21fc <LM35_ReadTemperature>
    110a:	8d 31       	cpi	r24, 0x1D	; 29
    110c:	28 f0       	brcs	.+10     	; 0x1118 <loop+0x1bc>
	{

		// Run dc motor
		DCMotor_Start(DCMOTOR_1, DCMOTOR_CLOCKWISE);
    110e:	80 e0       	ldi	r24, 0x00	; 0
    1110:	60 e0       	ldi	r22, 0x00	; 0
    1112:	0e 94 ec 1c 	call	0x39d8	; 0x39d8 <DCMotor_Start>
    1116:	07 c0       	rjmp	.+14     	; 0x1126 <loop+0x1ca>

	}
	else if (LM35_ReadTemperature() < 21)
    1118:	0e 94 fe 10 	call	0x21fc	; 0x21fc <LM35_ReadTemperature>
    111c:	85 31       	cpi	r24, 0x15	; 21
    111e:	18 f4       	brcc	.+6      	; 0x1126 <loop+0x1ca>
	{

		// Stop DC motor
		DCMotor_Stop(DCMOTOR_1);
    1120:	80 e0       	ldi	r24, 0x00	; 0
    1122:	0e 94 63 1d 	call	0x3ac6	; 0x3ac6 <DCMotor_Stop>

	}

}
    1126:	29 96       	adiw	r28, 0x09	; 9
    1128:	0f b6       	in	r0, 0x3f	; 63
    112a:	f8 94       	cli
    112c:	de bf       	out	0x3e, r29	; 62
    112e:	0f be       	out	0x3f, r0	; 63
    1130:	cd bf       	out	0x3d, r28	; 61
    1132:	cf 91       	pop	r28
    1134:	df 91       	pop	r29
    1136:	08 95       	ret

00001138 <Reset>:
 */

#include "Login.h"

static void Reset()
{
    1138:	df 93       	push	r29
    113a:	cf 93       	push	r28
    113c:	cd b7       	in	r28, 0x3d	; 61
    113e:	de b7       	in	r29, 0x3e	; 62

	Buzzer_turnOn();
    1140:	0e 94 96 1d 	call	0x3b2c	; 0x3b2c <Buzzer_turnOn>
	HC05_SendString("The program will reset in 3 seconds.");
    1144:	81 eb       	ldi	r24, 0xB1	; 177
    1146:	90 e0       	ldi	r25, 0x00	; 0
    1148:	0e 94 d2 19 	call	0x33a4	; 0x33a4 <HC05_SendString>
	LCD_ClearRow(LCD_ROW0);
    114c:	80 e0       	ldi	r24, 0x00	; 0
    114e:	0e 94 62 16 	call	0x2cc4	; 0x2cc4 <LCD_ClearRow>
	LCD_ClearRow(LCD_ROW1);
    1152:	81 e0       	ldi	r24, 0x01	; 1
    1154:	0e 94 62 16 	call	0x2cc4	; 0x2cc4 <LCD_ClearRow>
	LCD_setAddressPosition(0, 0);
    1158:	80 e0       	ldi	r24, 0x00	; 0
    115a:	60 e0       	ldi	r22, 0x00	; 0
    115c:	0e 94 8d 16 	call	0x2d1a	; 0x2d1a <LCD_setAddressPosition>
	LCD_displayString("reset in 3 secs");
    1160:	86 ed       	ldi	r24, 0xD6	; 214
    1162:	90 e0       	ldi	r25, 0x00	; 0
    1164:	0e 94 28 16 	call	0x2c50	; 0x2c50 <LCD_displayString>

	// _delay_ms(1000);
	// Reset
	Watchdog_ON();
    1168:	0e 94 f8 1d 	call	0x3bf0	; 0x3bf0 <Watchdog_ON>

}
    116c:	cf 91       	pop	r28
    116e:	df 91       	pop	r29
    1170:	08 95       	ret

00001172 <login_getNumberOfUsers>:

static u8 login_getNumberOfUsers()
{
    1172:	df 93       	push	r29
    1174:	cf 93       	push	r28
    1176:	cd b7       	in	r28, 0x3d	; 61
    1178:	de b7       	in	r29, 0x3e	; 62

	return IEEPROM_Read(0);
    117a:	80 e0       	ldi	r24, 0x00	; 0
    117c:	90 e0       	ldi	r25, 0x00	; 0
    117e:	0e 94 a1 24 	call	0x4942	; 0x4942 <IEEPROM_Read>

}
    1182:	cf 91       	pop	r28
    1184:	df 91       	pop	r29
    1186:	08 95       	ret

00001188 <login_searchForUser>:

static s8 login_searchForUser(User* user)
{
    1188:	df 93       	push	r29
    118a:	cf 93       	push	r28
    118c:	cd b7       	in	r28, 0x3d	; 61
    118e:	de b7       	in	r29, 0x3e	; 62
    1190:	66 97       	sbiw	r28, 0x16	; 22
    1192:	0f b6       	in	r0, 0x3f	; 63
    1194:	f8 94       	cli
    1196:	de bf       	out	0x3e, r29	; 62
    1198:	0f be       	out	0x3f, r0	; 63
    119a:	cd bf       	out	0x3d, r28	; 61
    119c:	9d 8b       	std	Y+21, r25	; 0x15
    119e:	8c 8b       	std	Y+20, r24	; 0x14

	u8 numOfUsers = login_getNumberOfUsers();
    11a0:	0e 94 b9 08 	call	0x1172	; 0x1172 <login_getNumberOfUsers>
    11a4:	8b 83       	std	Y+3, r24	; 0x03
	u8 username[USERNAME_SIZE];
	u8 password[PASSWORD_SIZE];

	for (u8 i = USER_DATA_BYTE, n = 0; i < MEMORY_SIZE && n < numOfUsers; i += USER_SIZE, n++)
    11a6:	88 e1       	ldi	r24, 0x18	; 24
    11a8:	8a 83       	std	Y+2, r24	; 0x02
    11aa:	19 82       	std	Y+1, r1	; 0x01
    11ac:	43 c0       	rjmp	.+134    	; 0x1234 <login_searchForUser+0xac>
	{

		IEEPROM_ReadString(i, username, USERNAME_SIZE);
    11ae:	8a 81       	ldd	r24, Y+2	; 0x02
    11b0:	88 2f       	mov	r24, r24
    11b2:	90 e0       	ldi	r25, 0x00	; 0
    11b4:	9e 01       	movw	r18, r28
    11b6:	2c 5f       	subi	r18, 0xFC	; 252
    11b8:	3f 4f       	sbci	r19, 0xFF	; 255
    11ba:	b9 01       	movw	r22, r18
    11bc:	48 e0       	ldi	r20, 0x08	; 8
    11be:	0e 94 e6 24 	call	0x49cc	; 0x49cc <IEEPROM_ReadString>
		IEEPROM_ReadString(i + USERNAME_SIZE, password, PASSWORD_SIZE);
    11c2:	8a 81       	ldd	r24, Y+2	; 0x02
    11c4:	88 2f       	mov	r24, r24
    11c6:	90 e0       	ldi	r25, 0x00	; 0
    11c8:	08 96       	adiw	r24, 0x08	; 8
    11ca:	9e 01       	movw	r18, r28
    11cc:	24 5f       	subi	r18, 0xF4	; 244
    11ce:	3f 4f       	sbci	r19, 0xFF	; 255
    11d0:	b9 01       	movw	r22, r18
    11d2:	48 e0       	ldi	r20, 0x08	; 8
    11d4:	0e 94 e6 24 	call	0x49cc	; 0x49cc <IEEPROM_ReadString>

		if ( strcmp(user->username, username) == 0 && strcmp(user->password, password) == 0)
    11d8:	8c 89       	ldd	r24, Y+20	; 0x14
    11da:	9d 89       	ldd	r25, Y+21	; 0x15
    11dc:	9e 01       	movw	r18, r28
    11de:	2c 5f       	subi	r18, 0xFC	; 252
    11e0:	3f 4f       	sbci	r19, 0xFF	; 255
    11e2:	b9 01       	movw	r22, r18
    11e4:	0e 94 12 2b 	call	0x5624	; 0x5624 <strcmp>
    11e8:	00 97       	sbiw	r24, 0x00	; 0
    11ea:	f1 f4       	brne	.+60     	; 0x1228 <login_searchForUser+0xa0>
    11ec:	8c 89       	ldd	r24, Y+20	; 0x14
    11ee:	9d 89       	ldd	r25, Y+21	; 0x15
    11f0:	08 96       	adiw	r24, 0x08	; 8
    11f2:	9e 01       	movw	r18, r28
    11f4:	24 5f       	subi	r18, 0xF4	; 244
    11f6:	3f 4f       	sbci	r19, 0xFF	; 255
    11f8:	b9 01       	movw	r22, r18
    11fa:	0e 94 12 2b 	call	0x5624	; 0x5624 <strcmp>
    11fe:	00 97       	sbiw	r24, 0x00	; 0
    1200:	99 f4       	brne	.+38     	; 0x1228 <login_searchForUser+0xa0>
		{

			// User strcpy
			strcpy(authUser.username, username);
    1202:	8d e6       	ldi	r24, 0x6D	; 109
    1204:	93 e0       	ldi	r25, 0x03	; 3
    1206:	9e 01       	movw	r18, r28
    1208:	2c 5f       	subi	r18, 0xFC	; 252
    120a:	3f 4f       	sbci	r19, 0xFF	; 255
    120c:	b9 01       	movw	r22, r18
    120e:	0e 94 1b 2b 	call	0x5636	; 0x5636 <strcpy>
			strcpy(authUser.password, password);
    1212:	85 e7       	ldi	r24, 0x75	; 117
    1214:	93 e0       	ldi	r25, 0x03	; 3
    1216:	9e 01       	movw	r18, r28
    1218:	24 5f       	subi	r18, 0xF4	; 244
    121a:	3f 4f       	sbci	r19, 0xFF	; 255
    121c:	b9 01       	movw	r22, r18
    121e:	0e 94 1b 2b 	call	0x5636	; 0x5636 <strcpy>
			return i;
    1222:	8a 81       	ldd	r24, Y+2	; 0x02
    1224:	8e 8b       	std	Y+22, r24	; 0x16
    1226:	0d c0       	rjmp	.+26     	; 0x1242 <login_searchForUser+0xba>

	u8 numOfUsers = login_getNumberOfUsers();
	u8 username[USERNAME_SIZE];
	u8 password[PASSWORD_SIZE];

	for (u8 i = USER_DATA_BYTE, n = 0; i < MEMORY_SIZE && n < numOfUsers; i += USER_SIZE, n++)
    1228:	8a 81       	ldd	r24, Y+2	; 0x02
    122a:	80 5f       	subi	r24, 0xF0	; 240
    122c:	8a 83       	std	Y+2, r24	; 0x02
    122e:	89 81       	ldd	r24, Y+1	; 0x01
    1230:	8f 5f       	subi	r24, 0xFF	; 255
    1232:	89 83       	std	Y+1, r24	; 0x01
    1234:	99 81       	ldd	r25, Y+1	; 0x01
    1236:	8b 81       	ldd	r24, Y+3	; 0x03
    1238:	98 17       	cp	r25, r24
    123a:	08 f4       	brcc	.+2      	; 0x123e <login_searchForUser+0xb6>
    123c:	b8 cf       	rjmp	.-144    	; 0x11ae <login_searchForUser+0x26>

		}

	}

	return -1;
    123e:	8f ef       	ldi	r24, 0xFF	; 255
    1240:	8e 8b       	std	Y+22, r24	; 0x16
    1242:	8e 89       	ldd	r24, Y+22	; 0x16

}
    1244:	66 96       	adiw	r28, 0x16	; 22
    1246:	0f b6       	in	r0, 0x3f	; 63
    1248:	f8 94       	cli
    124a:	de bf       	out	0x3e, r29	; 62
    124c:	0f be       	out	0x3f, r0	; 63
    124e:	cd bf       	out	0x3d, r28	; 61
    1250:	cf 91       	pop	r28
    1252:	df 91       	pop	r29
    1254:	08 95       	ret

00001256 <login_getUser>:

static User login_getUser()
{
    1256:	df 93       	push	r29
    1258:	cf 93       	push	r28
    125a:	cd b7       	in	r28, 0x3d	; 61
    125c:	de b7       	in	r29, 0x3e	; 62
    125e:	ed 97       	sbiw	r28, 0x3d	; 61
    1260:	0f b6       	in	r0, 0x3f	; 63
    1262:	f8 94       	cli
    1264:	de bf       	out	0x3e, r29	; 62
    1266:	0f be       	out	0x3f, r0	; 63
    1268:	cd bf       	out	0x3d, r28	; 61
    126a:	98 af       	std	Y+56, r25	; 0x38
    126c:	8f ab       	std	Y+55, r24	; 0x37


	while (TRUE)
	{
		// Prompt for username
		HC05_SendString("Enter Username...\n");
    126e:	86 ee       	ldi	r24, 0xE6	; 230
    1270:	90 e0       	ldi	r25, 0x00	; 0
    1272:	0e 94 d2 19 	call	0x33a4	; 0x33a4 <HC05_SendString>
		HC05_ReceiveString(username, USERNAME_SIZE + 1);
    1276:	ce 01       	movw	r24, r28
    1278:	01 96       	adiw	r24, 0x01	; 1
    127a:	69 e0       	ldi	r22, 0x09	; 9
    127c:	0e 94 e3 19 	call	0x33c6	; 0x33c6 <HC05_ReceiveString>

		// Valid size
		if (strlen(username) <= USERNAME_SIZE)
    1280:	ce 01       	movw	r24, r28
    1282:	01 96       	adiw	r24, 0x01	; 1
    1284:	0e 94 22 2b 	call	0x5644	; 0x5644 <strlen>
    1288:	89 30       	cpi	r24, 0x09	; 9
    128a:	91 05       	cpc	r25, r1
    128c:	50 f1       	brcs	.+84     	; 0x12e2 <login_getUser+0x8c>
			break;

		snprintf(message, ERROR_MESSAGE_SIZE, "Username size is %d", USERNAME_SIZE);
    128e:	8d b7       	in	r24, 0x3d	; 61
    1290:	9e b7       	in	r25, 0x3e	; 62
    1292:	08 97       	sbiw	r24, 0x08	; 8
    1294:	0f b6       	in	r0, 0x3f	; 63
    1296:	f8 94       	cli
    1298:	9e bf       	out	0x3e, r25	; 62
    129a:	0f be       	out	0x3f, r0	; 63
    129c:	8d bf       	out	0x3d, r24	; 61
    129e:	ed b7       	in	r30, 0x3d	; 61
    12a0:	fe b7       	in	r31, 0x3e	; 62
    12a2:	31 96       	adiw	r30, 0x01	; 1
    12a4:	ce 01       	movw	r24, r28
    12a6:	43 96       	adiw	r24, 0x13	; 19
    12a8:	91 83       	std	Z+1, r25	; 0x01
    12aa:	80 83       	st	Z, r24
    12ac:	84 e1       	ldi	r24, 0x14	; 20
    12ae:	90 e0       	ldi	r25, 0x00	; 0
    12b0:	93 83       	std	Z+3, r25	; 0x03
    12b2:	82 83       	std	Z+2, r24	; 0x02
    12b4:	89 ef       	ldi	r24, 0xF9	; 249
    12b6:	90 e0       	ldi	r25, 0x00	; 0
    12b8:	95 83       	std	Z+5, r25	; 0x05
    12ba:	84 83       	std	Z+4, r24	; 0x04
    12bc:	88 e0       	ldi	r24, 0x08	; 8
    12be:	90 e0       	ldi	r25, 0x00	; 0
    12c0:	97 83       	std	Z+7, r25	; 0x07
    12c2:	86 83       	std	Z+6, r24	; 0x06
    12c4:	0e 94 2b 2b 	call	0x5656	; 0x5656 <snprintf>
    12c8:	ed b7       	in	r30, 0x3d	; 61
    12ca:	fe b7       	in	r31, 0x3e	; 62
    12cc:	38 96       	adiw	r30, 0x08	; 8
    12ce:	0f b6       	in	r0, 0x3f	; 63
    12d0:	f8 94       	cli
    12d2:	fe bf       	out	0x3e, r31	; 62
    12d4:	0f be       	out	0x3f, r0	; 63
    12d6:	ed bf       	out	0x3d, r30	; 61
		HC05_SendString(message);
    12d8:	ce 01       	movw	r24, r28
    12da:	43 96       	adiw	r24, 0x13	; 19
    12dc:	0e 94 d2 19 	call	0x33a4	; 0x33a4 <HC05_SendString>
    12e0:	c6 cf       	rjmp	.-116    	; 0x126e <login_getUser+0x18>


	while (TRUE)
	{
		// Prompt for password
		HC05_SendString("Enter password...\n");
    12e2:	8d e0       	ldi	r24, 0x0D	; 13
    12e4:	91 e0       	ldi	r25, 0x01	; 1
    12e6:	0e 94 d2 19 	call	0x33a4	; 0x33a4 <HC05_SendString>
		HC05_ReceiveString(password, PASSWORD_SIZE + 1);
    12ea:	ce 01       	movw	r24, r28
    12ec:	0a 96       	adiw	r24, 0x0a	; 10
    12ee:	69 e0       	ldi	r22, 0x09	; 9
    12f0:	0e 94 e3 19 	call	0x33c6	; 0x33c6 <HC05_ReceiveString>

		// Valid size
		if (strlen(password) <= PASSWORD_SIZE)
    12f4:	ce 01       	movw	r24, r28
    12f6:	0a 96       	adiw	r24, 0x0a	; 10
    12f8:	0e 94 22 2b 	call	0x5644	; 0x5644 <strlen>
    12fc:	89 30       	cpi	r24, 0x09	; 9
    12fe:	91 05       	cpc	r25, r1
    1300:	70 f1       	brcs	.+92     	; 0x135e <login_getUser+0x108>
			break;

		snprintf(message, ERROR_MESSAGE_SIZE, "Password size is %d\n", PASSWORD_SIZE);
    1302:	8d b7       	in	r24, 0x3d	; 61
    1304:	9e b7       	in	r25, 0x3e	; 62
    1306:	08 97       	sbiw	r24, 0x08	; 8
    1308:	0f b6       	in	r0, 0x3f	; 63
    130a:	f8 94       	cli
    130c:	9e bf       	out	0x3e, r25	; 62
    130e:	0f be       	out	0x3f, r0	; 63
    1310:	8d bf       	out	0x3d, r24	; 61
    1312:	ed b7       	in	r30, 0x3d	; 61
    1314:	fe b7       	in	r31, 0x3e	; 62
    1316:	31 96       	adiw	r30, 0x01	; 1
    1318:	ce 01       	movw	r24, r28
    131a:	43 96       	adiw	r24, 0x13	; 19
    131c:	91 83       	std	Z+1, r25	; 0x01
    131e:	80 83       	st	Z, r24
    1320:	84 e1       	ldi	r24, 0x14	; 20
    1322:	90 e0       	ldi	r25, 0x00	; 0
    1324:	93 83       	std	Z+3, r25	; 0x03
    1326:	82 83       	std	Z+2, r24	; 0x02
    1328:	80 e2       	ldi	r24, 0x20	; 32
    132a:	91 e0       	ldi	r25, 0x01	; 1
    132c:	95 83       	std	Z+5, r25	; 0x05
    132e:	84 83       	std	Z+4, r24	; 0x04
    1330:	88 e0       	ldi	r24, 0x08	; 8
    1332:	90 e0       	ldi	r25, 0x00	; 0
    1334:	97 83       	std	Z+7, r25	; 0x07
    1336:	86 83       	std	Z+6, r24	; 0x06
    1338:	0e 94 2b 2b 	call	0x5656	; 0x5656 <snprintf>
    133c:	ed b7       	in	r30, 0x3d	; 61
    133e:	fe b7       	in	r31, 0x3e	; 62
    1340:	38 96       	adiw	r30, 0x08	; 8
    1342:	0f b6       	in	r0, 0x3f	; 63
    1344:	f8 94       	cli
    1346:	fe bf       	out	0x3e, r31	; 62
    1348:	0f be       	out	0x3f, r0	; 63
    134a:	ed bf       	out	0x3d, r30	; 61
		HC05_SendString(message);
    134c:	ce 01       	movw	r24, r28
    134e:	43 96       	adiw	r24, 0x13	; 19
    1350:	0e 94 d2 19 	call	0x33a4	; 0x33a4 <HC05_SendString>
		HC05_SendString("\n");
    1354:	85 e3       	ldi	r24, 0x35	; 53
    1356:	91 e0       	ldi	r25, 0x01	; 1
    1358:	0e 94 d2 19 	call	0x33a4	; 0x33a4 <HC05_SendString>
    135c:	c2 cf       	rjmp	.-124    	; 0x12e2 <login_getUser+0x8c>

	}

	User user;
	strcpy(user.username, username);
    135e:	ce 01       	movw	r24, r28
    1360:	87 96       	adiw	r24, 0x27	; 39
    1362:	9e 01       	movw	r18, r28
    1364:	2f 5f       	subi	r18, 0xFF	; 255
    1366:	3f 4f       	sbci	r19, 0xFF	; 255
    1368:	b9 01       	movw	r22, r18
    136a:	0e 94 1b 2b 	call	0x5636	; 0x5636 <strcpy>
	strcpy(user.password, password);
    136e:	ce 01       	movw	r24, r28
    1370:	87 96       	adiw	r24, 0x27	; 39
    1372:	08 96       	adiw	r24, 0x08	; 8
    1374:	9e 01       	movw	r18, r28
    1376:	26 5f       	subi	r18, 0xF6	; 246
    1378:	3f 4f       	sbci	r19, 0xFF	; 255
    137a:	b9 01       	movw	r22, r18
    137c:	0e 94 1b 2b 	call	0x5636	; 0x5636 <strcpy>

	return user;
    1380:	8f a9       	ldd	r24, Y+55	; 0x37
    1382:	98 ad       	ldd	r25, Y+56	; 0x38
    1384:	9a af       	std	Y+58, r25	; 0x3a
    1386:	89 af       	std	Y+57, r24	; 0x39
    1388:	fe 01       	movw	r30, r28
    138a:	b7 96       	adiw	r30, 0x27	; 39
    138c:	fc af       	std	Y+60, r31	; 0x3c
    138e:	eb af       	std	Y+59, r30	; 0x3b
    1390:	f0 e1       	ldi	r31, 0x10	; 16
    1392:	fd af       	std	Y+61, r31	; 0x3d
    1394:	eb ad       	ldd	r30, Y+59	; 0x3b
    1396:	fc ad       	ldd	r31, Y+60	; 0x3c
    1398:	00 80       	ld	r0, Z
    139a:	8b ad       	ldd	r24, Y+59	; 0x3b
    139c:	9c ad       	ldd	r25, Y+60	; 0x3c
    139e:	01 96       	adiw	r24, 0x01	; 1
    13a0:	9c af       	std	Y+60, r25	; 0x3c
    13a2:	8b af       	std	Y+59, r24	; 0x3b
    13a4:	e9 ad       	ldd	r30, Y+57	; 0x39
    13a6:	fa ad       	ldd	r31, Y+58	; 0x3a
    13a8:	00 82       	st	Z, r0
    13aa:	89 ad       	ldd	r24, Y+57	; 0x39
    13ac:	9a ad       	ldd	r25, Y+58	; 0x3a
    13ae:	01 96       	adiw	r24, 0x01	; 1
    13b0:	9a af       	std	Y+58, r25	; 0x3a
    13b2:	89 af       	std	Y+57, r24	; 0x39
    13b4:	9d ad       	ldd	r25, Y+61	; 0x3d
    13b6:	91 50       	subi	r25, 0x01	; 1
    13b8:	9d af       	std	Y+61, r25	; 0x3d
    13ba:	ed ad       	ldd	r30, Y+61	; 0x3d
    13bc:	ee 23       	and	r30, r30
    13be:	51 f7       	brne	.-44     	; 0x1394 <login_getUser+0x13e>

}
    13c0:	8f a9       	ldd	r24, Y+55	; 0x37
    13c2:	98 ad       	ldd	r25, Y+56	; 0x38
    13c4:	ed 96       	adiw	r28, 0x3d	; 61
    13c6:	0f b6       	in	r0, 0x3f	; 63
    13c8:	f8 94       	cli
    13ca:	de bf       	out	0x3e, r29	; 62
    13cc:	0f be       	out	0x3f, r0	; 63
    13ce:	cd bf       	out	0x3d, r28	; 61
    13d0:	cf 91       	pop	r28
    13d2:	df 91       	pop	r29
    13d4:	08 95       	ret

000013d6 <login_addUser>:

static boolean login_addUser()
{
    13d6:	df 93       	push	r29
    13d8:	cf 93       	push	r28
    13da:	cd b7       	in	r28, 0x3d	; 61
    13dc:	de b7       	in	r29, 0x3e	; 62
    13de:	62 97       	sbiw	r28, 0x12	; 18
    13e0:	0f b6       	in	r0, 0x3f	; 63
    13e2:	f8 94       	cli
    13e4:	de bf       	out	0x3e, r29	; 62
    13e6:	0f be       	out	0x3f, r0	; 63
    13e8:	cd bf       	out	0x3d, r28	; 61

	u8 numOfUsers = login_getNumberOfUsers();
    13ea:	0e 94 b9 08 	call	0x1172	; 0x1172 <login_getNumberOfUsers>
    13ee:	8a 83       	std	Y+2, r24	; 0x02
	u8 newUserAddress = USER_DATA_BYTE + USER_SIZE * numOfUsers;
    13f0:	8a 81       	ldd	r24, Y+2	; 0x02
    13f2:	88 2f       	mov	r24, r24
    13f4:	90 e0       	ldi	r25, 0x00	; 0
    13f6:	82 95       	swap	r24
    13f8:	92 95       	swap	r25
    13fa:	90 7f       	andi	r25, 0xF0	; 240
    13fc:	98 27       	eor	r25, r24
    13fe:	80 7f       	andi	r24, 0xF0	; 240
    1400:	98 27       	eor	r25, r24
    1402:	88 5e       	subi	r24, 0xE8	; 232
    1404:	89 83       	std	Y+1, r24	; 0x01
		HC05_SendString("Memory is Full, Cannot add a new user.\n");
		return FALSE;
	}

	// Get user
	User user = login_getUser();
    1406:	ce 01       	movw	r24, r28
    1408:	03 96       	adiw	r24, 0x03	; 3
    140a:	0e 94 2b 09 	call	0x1256	; 0x1256 <login_getUser>

	// Add username
	IEEPROM_WriteString(newUserAddress, user.username);
    140e:	89 81       	ldd	r24, Y+1	; 0x01
    1410:	88 2f       	mov	r24, r24
    1412:	90 e0       	ldi	r25, 0x00	; 0
    1414:	9e 01       	movw	r18, r28
    1416:	2d 5f       	subi	r18, 0xFD	; 253
    1418:	3f 4f       	sbci	r19, 0xFF	; 255
    141a:	b9 01       	movw	r22, r18
    141c:	0e 94 b1 24 	call	0x4962	; 0x4962 <IEEPROM_WriteString>
	IEEPROM_WriteString(newUserAddress + USERNAME_SIZE, user.password);
    1420:	89 81       	ldd	r24, Y+1	; 0x01
    1422:	88 2f       	mov	r24, r24
    1424:	90 e0       	ldi	r25, 0x00	; 0
    1426:	08 96       	adiw	r24, 0x08	; 8
    1428:	ac 01       	movw	r20, r24
    142a:	ce 01       	movw	r24, r28
    142c:	03 96       	adiw	r24, 0x03	; 3
    142e:	9c 01       	movw	r18, r24
    1430:	28 5f       	subi	r18, 0xF8	; 248
    1432:	3f 4f       	sbci	r19, 0xFF	; 255
    1434:	ca 01       	movw	r24, r20
    1436:	b9 01       	movw	r22, r18
    1438:	0e 94 b1 24 	call	0x4962	; 0x4962 <IEEPROM_WriteString>

	IEEPROM_Write(0, numOfUsers + 1);
    143c:	8a 81       	ldd	r24, Y+2	; 0x02
    143e:	88 2f       	mov	r24, r24
    1440:	90 e0       	ldi	r25, 0x00	; 0
    1442:	01 96       	adiw	r24, 0x01	; 1
    1444:	9c 01       	movw	r18, r24
    1446:	80 e0       	ldi	r24, 0x00	; 0
    1448:	90 e0       	ldi	r25, 0x00	; 0
    144a:	b9 01       	movw	r22, r18
    144c:	0e 94 8a 24 	call	0x4914	; 0x4914 <IEEPROM_Write>

	HC05_SendString("User added Successfully\n");
    1450:	87 e3       	ldi	r24, 0x37	; 55
    1452:	91 e0       	ldi	r25, 0x01	; 1
    1454:	0e 94 d2 19 	call	0x33a4	; 0x33a4 <HC05_SendString>

	return TRUE;
    1458:	81 e0       	ldi	r24, 0x01	; 1

}
    145a:	62 96       	adiw	r28, 0x12	; 18
    145c:	0f b6       	in	r0, 0x3f	; 63
    145e:	f8 94       	cli
    1460:	de bf       	out	0x3e, r29	; 62
    1462:	0f be       	out	0x3f, r0	; 63
    1464:	cd bf       	out	0x3d, r28	; 61
    1466:	cf 91       	pop	r28
    1468:	df 91       	pop	r29
    146a:	08 95       	ret

0000146c <login_removeUser>:

static boolean login_removeUser()
{
    146c:	df 93       	push	r29
    146e:	cf 93       	push	r28
    1470:	cd b7       	in	r28, 0x3d	; 61
    1472:	de b7       	in	r29, 0x3e	; 62
    1474:	a1 97       	sbiw	r28, 0x21	; 33
    1476:	0f b6       	in	r0, 0x3f	; 63
    1478:	f8 94       	cli
    147a:	de bf       	out	0x3e, r29	; 62
    147c:	0f be       	out	0x3f, r0	; 63
    147e:	cd bf       	out	0x3d, r28	; 61

	// Check if there are existing users
	u8 numOfUsers = login_getNumberOfUsers();
    1480:	0e 94 b9 08 	call	0x1172	; 0x1172 <login_getNumberOfUsers>
    1484:	8b 83       	std	Y+3, r24	; 0x03
	if (numOfUsers == 0)
    1486:	8b 81       	ldd	r24, Y+3	; 0x03
    1488:	88 23       	and	r24, r24
    148a:	31 f4       	brne	.+12     	; 0x1498 <login_removeUser+0x2c>
	{
		// No user's exits
		HC05_SendString("No users registered. Add a user.\n");
    148c:	80 e5       	ldi	r24, 0x50	; 80
    148e:	91 e0       	ldi	r25, 0x01	; 1
    1490:	0e 94 d2 19 	call	0x33a4	; 0x33a4 <HC05_SendString>
		return FALSE;
    1494:	1c 8e       	std	Y+28, r1	; 0x1c
    1496:	a9 c0       	rjmp	.+338    	; 0x15ea <login_removeUser+0x17e>
	}

	// Get user
	User user = login_getUser();
    1498:	ce 01       	movw	r24, r28
    149a:	04 96       	adiw	r24, 0x04	; 4
    149c:	0e 94 2b 09 	call	0x1256	; 0x1256 <login_getUser>

	// Search for the user
	s8 userIndex = login_searchForUser(&user);
    14a0:	ce 01       	movw	r24, r28
    14a2:	04 96       	adiw	r24, 0x04	; 4
    14a4:	0e 94 c4 08 	call	0x1188	; 0x1188 <login_searchForUser>
    14a8:	8a 83       	std	Y+2, r24	; 0x02
	if (userIndex == -1)
    14aa:	8a 81       	ldd	r24, Y+2	; 0x02
    14ac:	8f 3f       	cpi	r24, 0xFF	; 255
    14ae:	31 f4       	brne	.+12     	; 0x14bc <login_removeUser+0x50>
	{
		// User not found
		HC05_SendString("User not found.\n");
    14b0:	82 e7       	ldi	r24, 0x72	; 114
    14b2:	91 e0       	ldi	r25, 0x01	; 1
    14b4:	0e 94 d2 19 	call	0x33a4	; 0x33a4 <HC05_SendString>
		return FALSE;
    14b8:	1c 8e       	std	Y+28, r1	; 0x1c
    14ba:	97 c0       	rjmp	.+302    	; 0x15ea <login_removeUser+0x17e>
	}

	// Remove if exists -> replace it with the last registered user
	u8 lastUserAddress = USER_DATA_BYTE + USER_SIZE * numOfUsers - USER_SIZE;
    14bc:	8b 81       	ldd	r24, Y+3	; 0x03
    14be:	88 2f       	mov	r24, r24
    14c0:	90 e0       	ldi	r25, 0x00	; 0
    14c2:	88 0f       	add	r24, r24
    14c4:	99 1f       	adc	r25, r25
    14c6:	01 96       	adiw	r24, 0x01	; 1
    14c8:	88 0f       	add	r24, r24
    14ca:	99 1f       	adc	r25, r25
    14cc:	88 0f       	add	r24, r24
    14ce:	99 1f       	adc	r25, r25
    14d0:	88 0f       	add	r24, r24
    14d2:	99 1f       	adc	r25, r25
    14d4:	89 83       	std	Y+1, r24	; 0x01

	// Get last user
	IEEPROM_ReadString(lastUserAddress, user.username, USERNAME_SIZE);
    14d6:	89 81       	ldd	r24, Y+1	; 0x01
    14d8:	88 2f       	mov	r24, r24
    14da:	90 e0       	ldi	r25, 0x00	; 0
    14dc:	9e 01       	movw	r18, r28
    14de:	2c 5f       	subi	r18, 0xFC	; 252
    14e0:	3f 4f       	sbci	r19, 0xFF	; 255
    14e2:	b9 01       	movw	r22, r18
    14e4:	48 e0       	ldi	r20, 0x08	; 8
    14e6:	0e 94 e6 24 	call	0x49cc	; 0x49cc <IEEPROM_ReadString>
	IEEPROM_ReadString(lastUserAddress + USERNAME_SIZE, user.password, PASSWORD_SIZE);
    14ea:	89 81       	ldd	r24, Y+1	; 0x01
    14ec:	88 2f       	mov	r24, r24
    14ee:	90 e0       	ldi	r25, 0x00	; 0
    14f0:	08 96       	adiw	r24, 0x08	; 8
    14f2:	ac 01       	movw	r20, r24
    14f4:	ce 01       	movw	r24, r28
    14f6:	04 96       	adiw	r24, 0x04	; 4
    14f8:	9c 01       	movw	r18, r24
    14fa:	28 5f       	subi	r18, 0xF8	; 248
    14fc:	3f 4f       	sbci	r19, 0xFF	; 255
    14fe:	ca 01       	movw	r24, r20
    1500:	b9 01       	movw	r22, r18
    1502:	48 e0       	ldi	r20, 0x08	; 8
    1504:	0e 94 e6 24 	call	0x49cc	; 0x49cc <IEEPROM_ReadString>

	// Replace the last user with the user that should be removed
	IEEPROM_WriteString(userIndex, user.username);
    1508:	8a 81       	ldd	r24, Y+2	; 0x02
    150a:	99 27       	eor	r25, r25
    150c:	87 fd       	sbrc	r24, 7
    150e:	90 95       	com	r25
    1510:	9e 01       	movw	r18, r28
    1512:	2c 5f       	subi	r18, 0xFC	; 252
    1514:	3f 4f       	sbci	r19, 0xFF	; 255
    1516:	b9 01       	movw	r22, r18
    1518:	0e 94 b1 24 	call	0x4962	; 0x4962 <IEEPROM_WriteString>
	IEEPROM_WriteString(userIndex + USERNAME_SIZE, user.password);
    151c:	8a 81       	ldd	r24, Y+2	; 0x02
    151e:	99 27       	eor	r25, r25
    1520:	87 fd       	sbrc	r24, 7
    1522:	90 95       	com	r25
    1524:	08 96       	adiw	r24, 0x08	; 8
    1526:	ac 01       	movw	r20, r24
    1528:	ce 01       	movw	r24, r28
    152a:	04 96       	adiw	r24, 0x04	; 4
    152c:	9c 01       	movw	r18, r24
    152e:	28 5f       	subi	r18, 0xF8	; 248
    1530:	3f 4f       	sbci	r19, 0xFF	; 255
    1532:	ca 01       	movw	r24, r20
    1534:	b9 01       	movw	r22, r18
    1536:	0e 94 b1 24 	call	0x4962	; 0x4962 <IEEPROM_WriteString>

	// Clear it's data -> 0xff
	u8 clear[8] = {0xff, 0xff, 0xff, 0xff, 0xff, 0xff, 0xff, '\0'};
    153a:	ce 01       	movw	r24, r28
    153c:	44 96       	adiw	r24, 0x14	; 20
    153e:	9e 8f       	std	Y+30, r25	; 0x1e
    1540:	8d 8f       	std	Y+29, r24	; 0x1d
    1542:	ed e4       	ldi	r30, 0x4D	; 77
    1544:	f3 e0       	ldi	r31, 0x03	; 3
    1546:	f8 a3       	std	Y+32, r31	; 0x20
    1548:	ef 8f       	std	Y+31, r30	; 0x1f
    154a:	f8 e0       	ldi	r31, 0x08	; 8
    154c:	f9 a3       	std	Y+33, r31	; 0x21
    154e:	ef 8d       	ldd	r30, Y+31	; 0x1f
    1550:	f8 a1       	ldd	r31, Y+32	; 0x20
    1552:	00 80       	ld	r0, Z
    1554:	8f 8d       	ldd	r24, Y+31	; 0x1f
    1556:	98 a1       	ldd	r25, Y+32	; 0x20
    1558:	01 96       	adiw	r24, 0x01	; 1
    155a:	98 a3       	std	Y+32, r25	; 0x20
    155c:	8f 8f       	std	Y+31, r24	; 0x1f
    155e:	ed 8d       	ldd	r30, Y+29	; 0x1d
    1560:	fe 8d       	ldd	r31, Y+30	; 0x1e
    1562:	00 82       	st	Z, r0
    1564:	8d 8d       	ldd	r24, Y+29	; 0x1d
    1566:	9e 8d       	ldd	r25, Y+30	; 0x1e
    1568:	01 96       	adiw	r24, 0x01	; 1
    156a:	9e 8f       	std	Y+30, r25	; 0x1e
    156c:	8d 8f       	std	Y+29, r24	; 0x1d
    156e:	99 a1       	ldd	r25, Y+33	; 0x21
    1570:	91 50       	subi	r25, 0x01	; 1
    1572:	99 a3       	std	Y+33, r25	; 0x21
    1574:	e9 a1       	ldd	r30, Y+33	; 0x21
    1576:	ee 23       	and	r30, r30
    1578:	51 f7       	brne	.-44     	; 0x154e <login_removeUser+0xe2>
	strcpy(user.username, clear);
    157a:	ce 01       	movw	r24, r28
    157c:	04 96       	adiw	r24, 0x04	; 4
    157e:	9e 01       	movw	r18, r28
    1580:	2c 5e       	subi	r18, 0xEC	; 236
    1582:	3f 4f       	sbci	r19, 0xFF	; 255
    1584:	b9 01       	movw	r22, r18
    1586:	0e 94 1b 2b 	call	0x5636	; 0x5636 <strcpy>
	strcpy(user.password, clear);
    158a:	ce 01       	movw	r24, r28
    158c:	04 96       	adiw	r24, 0x04	; 4
    158e:	08 96       	adiw	r24, 0x08	; 8
    1590:	9e 01       	movw	r18, r28
    1592:	2c 5e       	subi	r18, 0xEC	; 236
    1594:	3f 4f       	sbci	r19, 0xFF	; 255
    1596:	b9 01       	movw	r22, r18
    1598:	0e 94 1b 2b 	call	0x5636	; 0x5636 <strcpy>
	IEEPROM_WriteString(lastUserAddress, user.username);
    159c:	89 81       	ldd	r24, Y+1	; 0x01
    159e:	88 2f       	mov	r24, r24
    15a0:	90 e0       	ldi	r25, 0x00	; 0
    15a2:	9e 01       	movw	r18, r28
    15a4:	2c 5f       	subi	r18, 0xFC	; 252
    15a6:	3f 4f       	sbci	r19, 0xFF	; 255
    15a8:	b9 01       	movw	r22, r18
    15aa:	0e 94 b1 24 	call	0x4962	; 0x4962 <IEEPROM_WriteString>
	IEEPROM_WriteString(lastUserAddress + USERNAME_SIZE, user.password);
    15ae:	89 81       	ldd	r24, Y+1	; 0x01
    15b0:	88 2f       	mov	r24, r24
    15b2:	90 e0       	ldi	r25, 0x00	; 0
    15b4:	08 96       	adiw	r24, 0x08	; 8
    15b6:	ac 01       	movw	r20, r24
    15b8:	ce 01       	movw	r24, r28
    15ba:	04 96       	adiw	r24, 0x04	; 4
    15bc:	9c 01       	movw	r18, r24
    15be:	28 5f       	subi	r18, 0xF8	; 248
    15c0:	3f 4f       	sbci	r19, 0xFF	; 255
    15c2:	ca 01       	movw	r24, r20
    15c4:	b9 01       	movw	r22, r18
    15c6:	0e 94 b1 24 	call	0x4962	; 0x4962 <IEEPROM_WriteString>

	// Decrease the number of users
	IEEPROM_Write(0, numOfUsers - 1);
    15ca:	8b 81       	ldd	r24, Y+3	; 0x03
    15cc:	88 2f       	mov	r24, r24
    15ce:	90 e0       	ldi	r25, 0x00	; 0
    15d0:	01 97       	sbiw	r24, 0x01	; 1
    15d2:	9c 01       	movw	r18, r24
    15d4:	80 e0       	ldi	r24, 0x00	; 0
    15d6:	90 e0       	ldi	r25, 0x00	; 0
    15d8:	b9 01       	movw	r22, r18
    15da:	0e 94 8a 24 	call	0x4914	; 0x4914 <IEEPROM_Write>

	HC05_SendString("User removed Successfully\n");
    15de:	83 e8       	ldi	r24, 0x83	; 131
    15e0:	91 e0       	ldi	r25, 0x01	; 1
    15e2:	0e 94 d2 19 	call	0x33a4	; 0x33a4 <HC05_SendString>

	return TRUE;
    15e6:	f1 e0       	ldi	r31, 0x01	; 1
    15e8:	fc 8f       	std	Y+28, r31	; 0x1c
    15ea:	8c 8d       	ldd	r24, Y+28	; 0x1c

}
    15ec:	a1 96       	adiw	r28, 0x21	; 33
    15ee:	0f b6       	in	r0, 0x3f	; 63
    15f0:	f8 94       	cli
    15f2:	de bf       	out	0x3e, r29	; 62
    15f4:	0f be       	out	0x3f, r0	; 63
    15f6:	cd bf       	out	0x3d, r28	; 61
    15f8:	cf 91       	pop	r28
    15fa:	df 91       	pop	r29
    15fc:	08 95       	ret

000015fe <loginAdminMode>:

/*	Login/Register	*/
static void loginAdminMode()
{
    15fe:	df 93       	push	r29
    1600:	cf 93       	push	r28
    1602:	cd b7       	in	r28, 0x3d	; 61
    1604:	de b7       	in	r29, 0x3e	; 62
    1606:	6e 97       	sbiw	r28, 0x1e	; 30
    1608:	0f b6       	in	r0, 0x3f	; 63
    160a:	f8 94       	cli
    160c:	de bf       	out	0x3e, r29	; 62
    160e:	0f be       	out	0x3f, r0	; 63
    1610:	cd bf       	out	0x3d, r28	; 61

	u8 trials = 1;
    1612:	81 e0       	ldi	r24, 0x01	; 1
    1614:	8a 83       	std	Y+2, r24	; 0x02
	u8 successOp = TRUE;
    1616:	81 e0       	ldi	r24, 0x01	; 1
    1618:	89 83       	std	Y+1, r24	; 0x01

	// No need to validate length because they are known
	u8 command[COMMAND_SIZE] = "";
    161a:	1b 82       	std	Y+3, r1	; 0x03
    161c:	1c 82       	std	Y+4, r1	; 0x04
    161e:	1d 82       	std	Y+5, r1	; 0x05
    1620:	1e 82       	std	Y+6, r1	; 0x06
    1622:	83 e0       	ldi	r24, 0x03	; 3
    1624:	fe 01       	movw	r30, r28
    1626:	37 96       	adiw	r30, 0x07	; 7
    1628:	df 01       	movw	r26, r30
    162a:	98 2f       	mov	r25, r24
    162c:	1d 92       	st	X+, r1
    162e:	9a 95       	dec	r25
    1630:	e9 f7       	brne	.-6      	; 0x162c <loginAdminMode+0x2e>
	 * To Remove a user: remove <username> <password>
	 * To Add a user: add <username> <password>
	 * To Login a user: login <username> <password>
	 * */

	HC05_SendString("Available Commands:\n remove\n add\n login\n");
    1632:	8e e9       	ldi	r24, 0x9E	; 158
    1634:	91 e0       	ldi	r25, 0x01	; 1
    1636:	0e 94 d2 19 	call	0x33a4	; 0x33a4 <HC05_SendString>

	while (TRUE)
	{

		HC05_ReceiveString(command, COMMAND_SIZE);
    163a:	ce 01       	movw	r24, r28
    163c:	03 96       	adiw	r24, 0x03	; 3
    163e:	67 e0       	ldi	r22, 0x07	; 7
    1640:	0e 94 e3 19 	call	0x33c6	; 0x33c6 <HC05_ReceiveString>

		if ( strcmp(command, "remove") == 0 )
    1644:	ce 01       	movw	r24, r28
    1646:	03 96       	adiw	r24, 0x03	; 3
    1648:	27 ec       	ldi	r18, 0xC7	; 199
    164a:	31 e0       	ldi	r19, 0x01	; 1
    164c:	b9 01       	movw	r22, r18
    164e:	0e 94 12 2b 	call	0x5624	; 0x5624 <strcmp>
    1652:	00 97       	sbiw	r24, 0x00	; 0
    1654:	19 f4       	brne	.+6      	; 0x165c <loginAdminMode+0x5e>
		{

			// Call remove function
			login_removeUser();
    1656:	0e 94 36 0a 	call	0x146c	; 0x146c <login_removeUser>
    165a:	4e c0       	rjmp	.+156    	; 0x16f8 <loginAdminMode+0xfa>

		}
		else if ( strcmp(command, "add") == 0 )
    165c:	ce 01       	movw	r24, r28
    165e:	03 96       	adiw	r24, 0x03	; 3
    1660:	2e ec       	ldi	r18, 0xCE	; 206
    1662:	31 e0       	ldi	r19, 0x01	; 1
    1664:	b9 01       	movw	r22, r18
    1666:	0e 94 12 2b 	call	0x5624	; 0x5624 <strcmp>
    166a:	00 97       	sbiw	r24, 0x00	; 0
    166c:	19 f4       	brne	.+6      	; 0x1674 <loginAdminMode+0x76>
		{

			// Call add function
			login_addUser();
    166e:	0e 94 eb 09 	call	0x13d6	; 0x13d6 <login_addUser>
    1672:	42 c0       	rjmp	.+132    	; 0x16f8 <loginAdminMode+0xfa>

		}
		else if ( strcmp(command, "login") == 0 )
    1674:	ce 01       	movw	r24, r28
    1676:	03 96       	adiw	r24, 0x03	; 3
    1678:	22 ed       	ldi	r18, 0xD2	; 210
    167a:	31 e0       	ldi	r19, 0x01	; 1
    167c:	b9 01       	movw	r22, r18
    167e:	0e 94 12 2b 	call	0x5624	; 0x5624 <strcmp>
    1682:	00 97       	sbiw	r24, 0x00	; 0
    1684:	a9 f5       	brne	.+106    	; 0x16f0 <loginAdminMode+0xf2>
		{


			// Call login function
			User user = login_getUser();
    1686:	ce 01       	movw	r24, r28
    1688:	0a 96       	adiw	r24, 0x0a	; 10
    168a:	0e 94 2b 09 	call	0x1256	; 0x1256 <login_getUser>

			// User found
			if (login_searchForUser(&user) != -1)
    168e:	ce 01       	movw	r24, r28
    1690:	0a 96       	adiw	r24, 0x0a	; 10
    1692:	0e 94 c4 08 	call	0x1188	; 0x1188 <login_searchForUser>
    1696:	8f 3f       	cpi	r24, 0xFF	; 255
    1698:	09 f1       	breq	.+66     	; 0x16dc <loginAdminMode+0xde>
			{
				authUser = user;
    169a:	ad e6       	ldi	r26, 0x6D	; 109
    169c:	b3 e0       	ldi	r27, 0x03	; 3
    169e:	bb 8f       	std	Y+27, r27	; 0x1b
    16a0:	aa 8f       	std	Y+26, r26	; 0x1a
    16a2:	fe 01       	movw	r30, r28
    16a4:	3a 96       	adiw	r30, 0x0a	; 10
    16a6:	fd 8f       	std	Y+29, r31	; 0x1d
    16a8:	ec 8f       	std	Y+28, r30	; 0x1c
    16aa:	f0 e1       	ldi	r31, 0x10	; 16
    16ac:	fe 8f       	std	Y+30, r31	; 0x1e
    16ae:	ac 8d       	ldd	r26, Y+28	; 0x1c
    16b0:	bd 8d       	ldd	r27, Y+29	; 0x1d
    16b2:	0c 90       	ld	r0, X
    16b4:	ec 8d       	ldd	r30, Y+28	; 0x1c
    16b6:	fd 8d       	ldd	r31, Y+29	; 0x1d
    16b8:	31 96       	adiw	r30, 0x01	; 1
    16ba:	fd 8f       	std	Y+29, r31	; 0x1d
    16bc:	ec 8f       	std	Y+28, r30	; 0x1c
    16be:	aa 8d       	ldd	r26, Y+26	; 0x1a
    16c0:	bb 8d       	ldd	r27, Y+27	; 0x1b
    16c2:	0c 92       	st	X, r0
    16c4:	ea 8d       	ldd	r30, Y+26	; 0x1a
    16c6:	fb 8d       	ldd	r31, Y+27	; 0x1b
    16c8:	31 96       	adiw	r30, 0x01	; 1
    16ca:	fb 8f       	std	Y+27, r31	; 0x1b
    16cc:	ea 8f       	std	Y+26, r30	; 0x1a
    16ce:	fe 8d       	ldd	r31, Y+30	; 0x1e
    16d0:	f1 50       	subi	r31, 0x01	; 1
    16d2:	fe 8f       	std	Y+30, r31	; 0x1e
    16d4:	8e 8d       	ldd	r24, Y+30	; 0x1e
    16d6:	88 23       	and	r24, r24
    16d8:	51 f7       	brne	.-44     	; 0x16ae <loginAdminMode+0xb0>
    16da:	18 c0       	rjmp	.+48     	; 0x170c <loginAdminMode+0x10e>
				break;
			}
			else if (trials >= 3)
    16dc:	8a 81       	ldd	r24, Y+2	; 0x02
    16de:	83 30       	cpi	r24, 0x03	; 3
    16e0:	18 f0       	brcs	.+6      	; 0x16e8 <loginAdminMode+0xea>
			{
				Reset();
    16e2:	0e 94 9c 08 	call	0x1138	; 0x1138 <Reset>
    16e6:	08 c0       	rjmp	.+16     	; 0x16f8 <loginAdminMode+0xfa>
			}
			else
			{
				trials++;
    16e8:	8a 81       	ldd	r24, Y+2	; 0x02
    16ea:	8f 5f       	subi	r24, 0xFF	; 255
    16ec:	8a 83       	std	Y+2, r24	; 0x02
    16ee:	04 c0       	rjmp	.+8      	; 0x16f8 <loginAdminMode+0xfa>
			}

		}
		else
		{
			HC05_SendString("Invalid command\n");
    16f0:	88 ed       	ldi	r24, 0xD8	; 216
    16f2:	91 e0       	ldi	r25, 0x01	; 1
    16f4:	0e 94 d2 19 	call	0x33a4	; 0x33a4 <HC05_SendString>
		}
		strcpy(command, "");
    16f8:	ce 01       	movw	r24, r28
    16fa:	03 96       	adiw	r24, 0x03	; 3
    16fc:	29 ee       	ldi	r18, 0xE9	; 233
    16fe:	31 e0       	ldi	r19, 0x01	; 1
    1700:	b9 01       	movw	r22, r18
    1702:	41 e0       	ldi	r20, 0x01	; 1
    1704:	50 e0       	ldi	r21, 0x00	; 0
    1706:	0e 94 09 2b 	call	0x5612	; 0x5612 <memcpy>
    170a:	97 cf       	rjmp	.-210    	; 0x163a <loginAdminMode+0x3c>

	}

}
    170c:	6e 96       	adiw	r28, 0x1e	; 30
    170e:	0f b6       	in	r0, 0x3f	; 63
    1710:	f8 94       	cli
    1712:	de bf       	out	0x3e, r29	; 62
    1714:	0f be       	out	0x3f, r0	; 63
    1716:	cd bf       	out	0x3d, r28	; 61
    1718:	cf 91       	pop	r28
    171a:	df 91       	pop	r29
    171c:	08 95       	ret

0000171e <loginUserMode>:


/*	Login Only	*/
static void loginUserMode()
{
    171e:	df 93       	push	r29
    1720:	cf 93       	push	r28
    1722:	cd b7       	in	r28, 0x3d	; 61
    1724:	de b7       	in	r29, 0x3e	; 62
    1726:	65 97       	sbiw	r28, 0x15	; 21
    1728:	0f b6       	in	r0, 0x3f	; 63
    172a:	f8 94       	cli
    172c:	de bf       	out	0x3e, r29	; 62
    172e:	0f be       	out	0x3f, r0	; 63
    1730:	cd bf       	out	0x3d, r28	; 61

	u8 trials = 1;
    1732:	81 e0       	ldi	r24, 0x01	; 1
    1734:	8a 83       	std	Y+2, r24	; 0x02
	u8 userFound = 0;
    1736:	19 82       	std	Y+1, r1	; 0x01
    1738:	1c c0       	rjmp	.+56     	; 0x1772 <loginUserMode+0x54>
	User user;

	while (trials != MAX_LOGIN_TRIALS)
	{

		LCD_displayString("Enter Username...");
    173a:	8a ee       	ldi	r24, 0xEA	; 234
    173c:	91 e0       	ldi	r25, 0x01	; 1
    173e:	0e 94 28 16 	call	0x2c50	; 0x2c50 <LCD_displayString>
		Keypad_GetString(user.username, USERNAME_SIZE);
    1742:	ce 01       	movw	r24, r28
    1744:	06 96       	adiw	r24, 0x06	; 6
    1746:	68 e0       	ldi	r22, 0x08	; 8
    1748:	0e 94 e7 18 	call	0x31ce	; 0x31ce <Keypad_GetString>
		LCD_displayString("Enter Password...");
    174c:	8c ef       	ldi	r24, 0xFC	; 252
    174e:	91 e0       	ldi	r25, 0x01	; 1
    1750:	0e 94 28 16 	call	0x2c50	; 0x2c50 <LCD_displayString>
		Keypad_GetString(user.password, PASSWORD_SIZE);
    1754:	ce 01       	movw	r24, r28
    1756:	06 96       	adiw	r24, 0x06	; 6
    1758:	08 96       	adiw	r24, 0x08	; 8
    175a:	68 e0       	ldi	r22, 0x08	; 8
    175c:	0e 94 e7 18 	call	0x31ce	; 0x31ce <Keypad_GetString>

		// If user found
		if (login_searchForUser(&user))
    1760:	ce 01       	movw	r24, r28
    1762:	06 96       	adiw	r24, 0x06	; 6
    1764:	0e 94 c4 08 	call	0x1188	; 0x1188 <login_searchForUser>
    1768:	88 23       	and	r24, r24
    176a:	41 f4       	brne	.+16     	; 0x177c <loginUserMode+0x5e>
		{
			return;
		}

		trials++;
    176c:	8a 81       	ldd	r24, Y+2	; 0x02
    176e:	8f 5f       	subi	r24, 0xFF	; 255
    1770:	8a 83       	std	Y+2, r24	; 0x02
	u8 userFound = 0;
	u8 response[3];

	User user;

	while (trials != MAX_LOGIN_TRIALS)
    1772:	8a 81       	ldd	r24, Y+2	; 0x02
    1774:	83 30       	cpi	r24, 0x03	; 3
    1776:	09 f7       	brne	.-62     	; 0x173a <loginUserMode+0x1c>
		trials++;

	}

	// User not found for 3 attempts
	Reset();
    1778:	0e 94 9c 08 	call	0x1138	; 0x1138 <Reset>

}
    177c:	65 96       	adiw	r28, 0x15	; 21
    177e:	0f b6       	in	r0, 0x3f	; 63
    1780:	f8 94       	cli
    1782:	de bf       	out	0x3e, r29	; 62
    1784:	0f be       	out	0x3f, r0	; 63
    1786:	cd bf       	out	0x3d, r28	; 61
    1788:	cf 91       	pop	r28
    178a:	df 91       	pop	r29
    178c:	08 95       	ret

0000178e <login>:

u8 login()
{
    178e:	df 93       	push	r29
    1790:	cf 93       	push	r28
    1792:	cd b7       	in	r28, 0x3d	; 61
    1794:	de b7       	in	r29, 0x3e	; 62
    1796:	62 97       	sbiw	r28, 0x12	; 18
    1798:	0f b6       	in	r0, 0x3f	; 63
    179a:	f8 94       	cli
    179c:	de bf       	out	0x3e, r29	; 62
    179e:	0f be       	out	0x3f, r0	; 63
    17a0:	cd bf       	out	0x3d, r28	; 61


	LCD_displayString("Admin: Use mobile");
    17a2:	8e e0       	ldi	r24, 0x0E	; 14
    17a4:	92 e0       	ldi	r25, 0x02	; 2
    17a6:	0e 94 28 16 	call	0x2c50	; 0x2c50 <LCD_displayString>
	LCD_setAddressPosition(1, 0);
    17aa:	81 e0       	ldi	r24, 0x01	; 1
    17ac:	60 e0       	ldi	r22, 0x00	; 0
    17ae:	0e 94 8d 16 	call	0x2d1a	; 0x2d1a <LCD_setAddressPosition>
	LCD_displayString("User: Use Keypad");
    17b2:	80 e2       	ldi	r24, 0x20	; 32
    17b4:	92 e0       	ldi	r25, 0x02	; 2
    17b6:	0e 94 28 16 	call	0x2c50	; 0x2c50 <LCD_displayString>

	u8 userType = '\0';
    17ba:	19 8a       	std	Y+17, r1	; 0x11
	u8 keypad = KEYPAD_INVALID;
    17bc:	8f ef       	ldi	r24, 0xFF	; 255
    17be:	88 8b       	std	Y+16, r24	; 0x10
	u8 hc05 = '\0';
    17c0:	1f 86       	std	Y+15, r1	; 0x0f
	while (TRUE)
	{

		keypad = Keypad_getButton();
    17c2:	0e 94 23 17 	call	0x2e46	; 0x2e46 <Keypad_getButton>
    17c6:	88 8b       	std	Y+16, r24	; 0x10
    17c8:	80 e0       	ldi	r24, 0x00	; 0
    17ca:	90 e0       	ldi	r25, 0x00	; 0
    17cc:	a0 ea       	ldi	r26, 0xA0	; 160
    17ce:	b0 e4       	ldi	r27, 0x40	; 64
    17d0:	8b 87       	std	Y+11, r24	; 0x0b
    17d2:	9c 87       	std	Y+12, r25	; 0x0c
    17d4:	ad 87       	std	Y+13, r26	; 0x0d
    17d6:	be 87       	std	Y+14, r27	; 0x0e
 */
void
_delay_ms(double __ms)
{
	uint16_t __ticks;
	double __tmp = ((F_CPU) / 4e3) * __ms;
    17d8:	6b 85       	ldd	r22, Y+11	; 0x0b
    17da:	7c 85       	ldd	r23, Y+12	; 0x0c
    17dc:	8d 85       	ldd	r24, Y+13	; 0x0d
    17de:	9e 85       	ldd	r25, Y+14	; 0x0e
    17e0:	20 e0       	ldi	r18, 0x00	; 0
    17e2:	30 e0       	ldi	r19, 0x00	; 0
    17e4:	4a e7       	ldi	r20, 0x7A	; 122
    17e6:	55 e4       	ldi	r21, 0x45	; 69
    17e8:	0e 94 1f 02 	call	0x43e	; 0x43e <__mulsf3>
    17ec:	dc 01       	movw	r26, r24
    17ee:	cb 01       	movw	r24, r22
    17f0:	8f 83       	std	Y+7, r24	; 0x07
    17f2:	98 87       	std	Y+8, r25	; 0x08
    17f4:	a9 87       	std	Y+9, r26	; 0x09
    17f6:	ba 87       	std	Y+10, r27	; 0x0a
	if (__tmp < 1.0)
    17f8:	6f 81       	ldd	r22, Y+7	; 0x07
    17fa:	78 85       	ldd	r23, Y+8	; 0x08
    17fc:	89 85       	ldd	r24, Y+9	; 0x09
    17fe:	9a 85       	ldd	r25, Y+10	; 0x0a
    1800:	20 e0       	ldi	r18, 0x00	; 0
    1802:	30 e0       	ldi	r19, 0x00	; 0
    1804:	40 e8       	ldi	r20, 0x80	; 128
    1806:	5f e3       	ldi	r21, 0x3F	; 63
    1808:	0e 94 25 04 	call	0x84a	; 0x84a <__ltsf2>
    180c:	88 23       	and	r24, r24
    180e:	2c f4       	brge	.+10     	; 0x181a <login+0x8c>
		__ticks = 1;
    1810:	81 e0       	ldi	r24, 0x01	; 1
    1812:	90 e0       	ldi	r25, 0x00	; 0
    1814:	9e 83       	std	Y+6, r25	; 0x06
    1816:	8d 83       	std	Y+5, r24	; 0x05
    1818:	3f c0       	rjmp	.+126    	; 0x1898 <login+0x10a>
	else if (__tmp > 65535)
    181a:	6f 81       	ldd	r22, Y+7	; 0x07
    181c:	78 85       	ldd	r23, Y+8	; 0x08
    181e:	89 85       	ldd	r24, Y+9	; 0x09
    1820:	9a 85       	ldd	r25, Y+10	; 0x0a
    1822:	20 e0       	ldi	r18, 0x00	; 0
    1824:	3f ef       	ldi	r19, 0xFF	; 255
    1826:	4f e7       	ldi	r20, 0x7F	; 127
    1828:	57 e4       	ldi	r21, 0x47	; 71
    182a:	0e 94 c5 03 	call	0x78a	; 0x78a <__gtsf2>
    182e:	18 16       	cp	r1, r24
    1830:	4c f5       	brge	.+82     	; 0x1884 <login+0xf6>
	{
		//	__ticks = requested delay in 1/10 ms
		__ticks = (uint16_t) (__ms * 10.0);
    1832:	6b 85       	ldd	r22, Y+11	; 0x0b
    1834:	7c 85       	ldd	r23, Y+12	; 0x0c
    1836:	8d 85       	ldd	r24, Y+13	; 0x0d
    1838:	9e 85       	ldd	r25, Y+14	; 0x0e
    183a:	20 e0       	ldi	r18, 0x00	; 0
    183c:	30 e0       	ldi	r19, 0x00	; 0
    183e:	40 e2       	ldi	r20, 0x20	; 32
    1840:	51 e4       	ldi	r21, 0x41	; 65
    1842:	0e 94 1f 02 	call	0x43e	; 0x43e <__mulsf3>
    1846:	dc 01       	movw	r26, r24
    1848:	cb 01       	movw	r24, r22
    184a:	bc 01       	movw	r22, r24
    184c:	cd 01       	movw	r24, r26
    184e:	0e 94 49 00 	call	0x92	; 0x92 <__fixunssfsi>
    1852:	dc 01       	movw	r26, r24
    1854:	cb 01       	movw	r24, r22
    1856:	9e 83       	std	Y+6, r25	; 0x06
    1858:	8d 83       	std	Y+5, r24	; 0x05
    185a:	0f c0       	rjmp	.+30     	; 0x187a <login+0xec>
    185c:	80 e9       	ldi	r24, 0x90	; 144
    185e:	91 e0       	ldi	r25, 0x01	; 1
    1860:	9c 83       	std	Y+4, r25	; 0x04
    1862:	8b 83       	std	Y+3, r24	; 0x03
    milliseconds can be achieved.
 */
void
_delay_loop_2(uint16_t __count)
{
	__asm__ volatile (
    1864:	8b 81       	ldd	r24, Y+3	; 0x03
    1866:	9c 81       	ldd	r25, Y+4	; 0x04
    1868:	01 97       	sbiw	r24, 0x01	; 1
    186a:	f1 f7       	brne	.-4      	; 0x1868 <login+0xda>
    186c:	9c 83       	std	Y+4, r25	; 0x04
    186e:	8b 83       	std	Y+3, r24	; 0x03
		while(__ticks)
		{
			// wait 1/10 ms
			_delay_loop_2(((F_CPU) / 4e3) / 10);
			__ticks --;
    1870:	8d 81       	ldd	r24, Y+5	; 0x05
    1872:	9e 81       	ldd	r25, Y+6	; 0x06
    1874:	01 97       	sbiw	r24, 0x01	; 1
    1876:	9e 83       	std	Y+6, r25	; 0x06
    1878:	8d 83       	std	Y+5, r24	; 0x05
		__ticks = 1;
	else if (__tmp > 65535)
	{
		//	__ticks = requested delay in 1/10 ms
		__ticks = (uint16_t) (__ms * 10.0);
		while(__ticks)
    187a:	8d 81       	ldd	r24, Y+5	; 0x05
    187c:	9e 81       	ldd	r25, Y+6	; 0x06
    187e:	00 97       	sbiw	r24, 0x00	; 0
    1880:	69 f7       	brne	.-38     	; 0x185c <login+0xce>
    1882:	14 c0       	rjmp	.+40     	; 0x18ac <login+0x11e>
			__ticks --;
		}
		return;
	}
	else
		__ticks = (uint16_t)__tmp;
    1884:	6f 81       	ldd	r22, Y+7	; 0x07
    1886:	78 85       	ldd	r23, Y+8	; 0x08
    1888:	89 85       	ldd	r24, Y+9	; 0x09
    188a:	9a 85       	ldd	r25, Y+10	; 0x0a
    188c:	0e 94 49 00 	call	0x92	; 0x92 <__fixunssfsi>
    1890:	dc 01       	movw	r26, r24
    1892:	cb 01       	movw	r24, r22
    1894:	9e 83       	std	Y+6, r25	; 0x06
    1896:	8d 83       	std	Y+5, r24	; 0x05
    1898:	8d 81       	ldd	r24, Y+5	; 0x05
    189a:	9e 81       	ldd	r25, Y+6	; 0x06
    189c:	9a 83       	std	Y+2, r25	; 0x02
    189e:	89 83       	std	Y+1, r24	; 0x01
    18a0:	89 81       	ldd	r24, Y+1	; 0x01
    18a2:	9a 81       	ldd	r25, Y+2	; 0x02
    18a4:	01 97       	sbiw	r24, 0x01	; 1
    18a6:	f1 f7       	brne	.-4      	; 0x18a4 <login+0x116>
    18a8:	9a 83       	std	Y+2, r25	; 0x02
    18aa:	89 83       	std	Y+1, r24	; 0x01
		_delay_ms(5);			// Make sure to leave the delay to work in proteus properly

		if (keypad != KEYPAD_INVALID)
    18ac:	88 89       	ldd	r24, Y+16	; 0x10
    18ae:	8f 3f       	cpi	r24, 0xFF	; 255
    18b0:	19 f0       	breq	.+6      	; 0x18b8 <login+0x12a>
		{
			userType = '2';
    18b2:	82 e3       	ldi	r24, 0x32	; 50
    18b4:	89 8b       	std	Y+17, r24	; 0x11
    18b6:	0a c0       	rjmp	.+20     	; 0x18cc <login+0x13e>
			break;
		}
		if (hc05 != '\0')
    18b8:	8f 85       	ldd	r24, Y+15	; 0x0f
    18ba:	88 23       	and	r24, r24
    18bc:	19 f0       	breq	.+6      	; 0x18c4 <login+0x136>
		{
			userType = '1';
    18be:	81 e3       	ldi	r24, 0x31	; 49
    18c0:	89 8b       	std	Y+17, r24	; 0x11
    18c2:	04 c0       	rjmp	.+8      	; 0x18cc <login+0x13e>
			break;
		}

		hc05 = HC05_ReceiveCharNonBlock();
    18c4:	0e 94 c9 19 	call	0x3392	; 0x3392 <HC05_ReceiveCharNonBlock>
    18c8:	8f 87       	std	Y+15, r24	; 0x0f
    18ca:	7b cf       	rjmp	.-266    	; 0x17c2 <login+0x34>

	}

	LCD_ClearRow(0);
    18cc:	80 e0       	ldi	r24, 0x00	; 0
    18ce:	0e 94 62 16 	call	0x2cc4	; 0x2cc4 <LCD_ClearRow>
	LCD_ClearRow(1);
    18d2:	81 e0       	ldi	r24, 0x01	; 1
    18d4:	0e 94 62 16 	call	0x2cc4	; 0x2cc4 <LCD_ClearRow>
	LCD_setAddressPosition(0, 0);
    18d8:	80 e0       	ldi	r24, 0x00	; 0
    18da:	60 e0       	ldi	r22, 0x00	; 0
    18dc:	0e 94 8d 16 	call	0x2d1a	; 0x2d1a <LCD_setAddressPosition>


	if (userType == '1')
    18e0:	89 89       	ldd	r24, Y+17	; 0x11
    18e2:	81 33       	cpi	r24, 0x31	; 49
    18e4:	29 f4       	brne	.+10     	; 0x18f0 <login+0x162>
	{

		/*	Admin Mode 	*/
		loginAdminMode();
    18e6:	0e 94 ff 0a 	call	0x15fe	; 0x15fe <loginAdminMode>
		return '1';
    18ea:	81 e3       	ldi	r24, 0x31	; 49
    18ec:	8a 8b       	std	Y+18, r24	; 0x12
    18ee:	04 c0       	rjmp	.+8      	; 0x18f8 <login+0x16a>
	}
	else
	{

		/*	User Mode 	*/
		loginUserMode();
    18f0:	0e 94 8f 0b 	call	0x171e	; 0x171e <loginUserMode>
		return '2';
    18f4:	82 e3       	ldi	r24, 0x32	; 50
    18f6:	8a 8b       	std	Y+18, r24	; 0x12
    18f8:	8a 89       	ldd	r24, Y+18	; 0x12

	}

}
    18fa:	62 96       	adiw	r28, 0x12	; 18
    18fc:	0f b6       	in	r0, 0x3f	; 63
    18fe:	f8 94       	cli
    1900:	de bf       	out	0x3e, r29	; 62
    1902:	0f be       	out	0x3f, r0	; 63
    1904:	cd bf       	out	0x3d, r28	; 61
    1906:	cf 91       	pop	r28
    1908:	df 91       	pop	r29
    190a:	08 95       	ret

0000190c <Door_Init>:
#include <util/delay.h>

static isOpen = 0;

void Door_Init()
{
    190c:	df 93       	push	r29
    190e:	cf 93       	push	r28
    1910:	cd b7       	in	r28, 0x3d	; 61
    1912:	de b7       	in	r29, 0x3e	; 62

	// Init servo
	Servo_Init();
    1914:	0e 94 c3 0d 	call	0x1b86	; 0x1b86 <Servo_Init>

}
    1918:	cf 91       	pop	r28
    191a:	df 91       	pop	r29
    191c:	08 95       	ret

0000191e <Door_Open>:

void Door_Open()
{
    191e:	df 93       	push	r29
    1920:	cf 93       	push	r28
    1922:	cd b7       	in	r28, 0x3d	; 61
    1924:	de b7       	in	r29, 0x3e	; 62
    1926:	2e 97       	sbiw	r28, 0x0e	; 14
    1928:	0f b6       	in	r0, 0x3f	; 63
    192a:	f8 94       	cli
    192c:	de bf       	out	0x3e, r29	; 62
    192e:	0f be       	out	0x3f, r0	; 63
    1930:	cd bf       	out	0x3d, r28	; 61

	// Start Servo
	Servo_Start();
    1932:	0e 94 d1 0d 	call	0x1ba2	; 0x1ba2 <Servo_Start>

	// Set Angle to 90
	Servo_SetAngle(90);
    1936:	8a e5       	ldi	r24, 0x5A	; 90
    1938:	0e 94 e4 0d 	call	0x1bc8	; 0x1bc8 <Servo_SetAngle>
    193c:	80 e0       	ldi	r24, 0x00	; 0
    193e:	90 e0       	ldi	r25, 0x00	; 0
    1940:	a0 e2       	ldi	r26, 0x20	; 32
    1942:	b1 e4       	ldi	r27, 0x41	; 65
    1944:	8b 87       	std	Y+11, r24	; 0x0b
    1946:	9c 87       	std	Y+12, r25	; 0x0c
    1948:	ad 87       	std	Y+13, r26	; 0x0d
    194a:	be 87       	std	Y+14, r27	; 0x0e
 */
void
_delay_ms(double __ms)
{
	uint16_t __ticks;
	double __tmp = ((F_CPU) / 4e3) * __ms;
    194c:	6b 85       	ldd	r22, Y+11	; 0x0b
    194e:	7c 85       	ldd	r23, Y+12	; 0x0c
    1950:	8d 85       	ldd	r24, Y+13	; 0x0d
    1952:	9e 85       	ldd	r25, Y+14	; 0x0e
    1954:	20 e0       	ldi	r18, 0x00	; 0
    1956:	30 e0       	ldi	r19, 0x00	; 0
    1958:	4a e7       	ldi	r20, 0x7A	; 122
    195a:	55 e4       	ldi	r21, 0x45	; 69
    195c:	0e 94 1f 02 	call	0x43e	; 0x43e <__mulsf3>
    1960:	dc 01       	movw	r26, r24
    1962:	cb 01       	movw	r24, r22
    1964:	8f 83       	std	Y+7, r24	; 0x07
    1966:	98 87       	std	Y+8, r25	; 0x08
    1968:	a9 87       	std	Y+9, r26	; 0x09
    196a:	ba 87       	std	Y+10, r27	; 0x0a
	if (__tmp < 1.0)
    196c:	6f 81       	ldd	r22, Y+7	; 0x07
    196e:	78 85       	ldd	r23, Y+8	; 0x08
    1970:	89 85       	ldd	r24, Y+9	; 0x09
    1972:	9a 85       	ldd	r25, Y+10	; 0x0a
    1974:	20 e0       	ldi	r18, 0x00	; 0
    1976:	30 e0       	ldi	r19, 0x00	; 0
    1978:	40 e8       	ldi	r20, 0x80	; 128
    197a:	5f e3       	ldi	r21, 0x3F	; 63
    197c:	0e 94 25 04 	call	0x84a	; 0x84a <__ltsf2>
    1980:	88 23       	and	r24, r24
    1982:	2c f4       	brge	.+10     	; 0x198e <Door_Open+0x70>
		__ticks = 1;
    1984:	81 e0       	ldi	r24, 0x01	; 1
    1986:	90 e0       	ldi	r25, 0x00	; 0
    1988:	9e 83       	std	Y+6, r25	; 0x06
    198a:	8d 83       	std	Y+5, r24	; 0x05
    198c:	3f c0       	rjmp	.+126    	; 0x1a0c <Door_Open+0xee>
	else if (__tmp > 65535)
    198e:	6f 81       	ldd	r22, Y+7	; 0x07
    1990:	78 85       	ldd	r23, Y+8	; 0x08
    1992:	89 85       	ldd	r24, Y+9	; 0x09
    1994:	9a 85       	ldd	r25, Y+10	; 0x0a
    1996:	20 e0       	ldi	r18, 0x00	; 0
    1998:	3f ef       	ldi	r19, 0xFF	; 255
    199a:	4f e7       	ldi	r20, 0x7F	; 127
    199c:	57 e4       	ldi	r21, 0x47	; 71
    199e:	0e 94 c5 03 	call	0x78a	; 0x78a <__gtsf2>
    19a2:	18 16       	cp	r1, r24
    19a4:	4c f5       	brge	.+82     	; 0x19f8 <Door_Open+0xda>
	{
		//	__ticks = requested delay in 1/10 ms
		__ticks = (uint16_t) (__ms * 10.0);
    19a6:	6b 85       	ldd	r22, Y+11	; 0x0b
    19a8:	7c 85       	ldd	r23, Y+12	; 0x0c
    19aa:	8d 85       	ldd	r24, Y+13	; 0x0d
    19ac:	9e 85       	ldd	r25, Y+14	; 0x0e
    19ae:	20 e0       	ldi	r18, 0x00	; 0
    19b0:	30 e0       	ldi	r19, 0x00	; 0
    19b2:	40 e2       	ldi	r20, 0x20	; 32
    19b4:	51 e4       	ldi	r21, 0x41	; 65
    19b6:	0e 94 1f 02 	call	0x43e	; 0x43e <__mulsf3>
    19ba:	dc 01       	movw	r26, r24
    19bc:	cb 01       	movw	r24, r22
    19be:	bc 01       	movw	r22, r24
    19c0:	cd 01       	movw	r24, r26
    19c2:	0e 94 49 00 	call	0x92	; 0x92 <__fixunssfsi>
    19c6:	dc 01       	movw	r26, r24
    19c8:	cb 01       	movw	r24, r22
    19ca:	9e 83       	std	Y+6, r25	; 0x06
    19cc:	8d 83       	std	Y+5, r24	; 0x05
    19ce:	0f c0       	rjmp	.+30     	; 0x19ee <Door_Open+0xd0>
    19d0:	80 e9       	ldi	r24, 0x90	; 144
    19d2:	91 e0       	ldi	r25, 0x01	; 1
    19d4:	9c 83       	std	Y+4, r25	; 0x04
    19d6:	8b 83       	std	Y+3, r24	; 0x03
    19d8:	8b 81       	ldd	r24, Y+3	; 0x03
    19da:	9c 81       	ldd	r25, Y+4	; 0x04
    19dc:	01 97       	sbiw	r24, 0x01	; 1
    19de:	f1 f7       	brne	.-4      	; 0x19dc <Door_Open+0xbe>
    19e0:	9c 83       	std	Y+4, r25	; 0x04
    19e2:	8b 83       	std	Y+3, r24	; 0x03
		while(__ticks)
		{
			// wait 1/10 ms
			_delay_loop_2(((F_CPU) / 4e3) / 10);
			__ticks --;
    19e4:	8d 81       	ldd	r24, Y+5	; 0x05
    19e6:	9e 81       	ldd	r25, Y+6	; 0x06
    19e8:	01 97       	sbiw	r24, 0x01	; 1
    19ea:	9e 83       	std	Y+6, r25	; 0x06
    19ec:	8d 83       	std	Y+5, r24	; 0x05
		__ticks = 1;
	else if (__tmp > 65535)
	{
		//	__ticks = requested delay in 1/10 ms
		__ticks = (uint16_t) (__ms * 10.0);
		while(__ticks)
    19ee:	8d 81       	ldd	r24, Y+5	; 0x05
    19f0:	9e 81       	ldd	r25, Y+6	; 0x06
    19f2:	00 97       	sbiw	r24, 0x00	; 0
    19f4:	69 f7       	brne	.-38     	; 0x19d0 <Door_Open+0xb2>
    19f6:	14 c0       	rjmp	.+40     	; 0x1a20 <Door_Open+0x102>
			__ticks --;
		}
		return;
	}
	else
		__ticks = (uint16_t)__tmp;
    19f8:	6f 81       	ldd	r22, Y+7	; 0x07
    19fa:	78 85       	ldd	r23, Y+8	; 0x08
    19fc:	89 85       	ldd	r24, Y+9	; 0x09
    19fe:	9a 85       	ldd	r25, Y+10	; 0x0a
    1a00:	0e 94 49 00 	call	0x92	; 0x92 <__fixunssfsi>
    1a04:	dc 01       	movw	r26, r24
    1a06:	cb 01       	movw	r24, r22
    1a08:	9e 83       	std	Y+6, r25	; 0x06
    1a0a:	8d 83       	std	Y+5, r24	; 0x05
    1a0c:	8d 81       	ldd	r24, Y+5	; 0x05
    1a0e:	9e 81       	ldd	r25, Y+6	; 0x06
    1a10:	9a 83       	std	Y+2, r25	; 0x02
    1a12:	89 83       	std	Y+1, r24	; 0x01
    1a14:	89 81       	ldd	r24, Y+1	; 0x01
    1a16:	9a 81       	ldd	r25, Y+2	; 0x02
    1a18:	01 97       	sbiw	r24, 0x01	; 1
    1a1a:	f1 f7       	brne	.-4      	; 0x1a18 <Door_Open+0xfa>
    1a1c:	9a 83       	std	Y+2, r25	; 0x02
    1a1e:	89 83       	std	Y+1, r24	; 0x01
	_delay_ms(10);

	// Stop Servo
	Servo_Stop();
    1a20:	0e 94 db 0d 	call	0x1bb6	; 0x1bb6 <Servo_Stop>

	isOpen = 1;
    1a24:	81 e0       	ldi	r24, 0x01	; 1
    1a26:	90 e0       	ldi	r25, 0x00	; 0
    1a28:	90 93 57 03 	sts	0x0357, r25
    1a2c:	80 93 56 03 	sts	0x0356, r24

}
    1a30:	2e 96       	adiw	r28, 0x0e	; 14
    1a32:	0f b6       	in	r0, 0x3f	; 63
    1a34:	f8 94       	cli
    1a36:	de bf       	out	0x3e, r29	; 62
    1a38:	0f be       	out	0x3f, r0	; 63
    1a3a:	cd bf       	out	0x3d, r28	; 61
    1a3c:	cf 91       	pop	r28
    1a3e:	df 91       	pop	r29
    1a40:	08 95       	ret

00001a42 <Door_Close>:

void Door_Close()
{
    1a42:	df 93       	push	r29
    1a44:	cf 93       	push	r28
    1a46:	cd b7       	in	r28, 0x3d	; 61
    1a48:	de b7       	in	r29, 0x3e	; 62
    1a4a:	2e 97       	sbiw	r28, 0x0e	; 14
    1a4c:	0f b6       	in	r0, 0x3f	; 63
    1a4e:	f8 94       	cli
    1a50:	de bf       	out	0x3e, r29	; 62
    1a52:	0f be       	out	0x3f, r0	; 63
    1a54:	cd bf       	out	0x3d, r28	; 61

	// Start Servo
	Servo_Start();
    1a56:	0e 94 d1 0d 	call	0x1ba2	; 0x1ba2 <Servo_Start>

	// Set Angle to 0
	Servo_SetAngle(0);
    1a5a:	80 e0       	ldi	r24, 0x00	; 0
    1a5c:	0e 94 e4 0d 	call	0x1bc8	; 0x1bc8 <Servo_SetAngle>
    1a60:	80 e0       	ldi	r24, 0x00	; 0
    1a62:	90 e0       	ldi	r25, 0x00	; 0
    1a64:	a0 e2       	ldi	r26, 0x20	; 32
    1a66:	b1 e4       	ldi	r27, 0x41	; 65
    1a68:	8b 87       	std	Y+11, r24	; 0x0b
    1a6a:	9c 87       	std	Y+12, r25	; 0x0c
    1a6c:	ad 87       	std	Y+13, r26	; 0x0d
    1a6e:	be 87       	std	Y+14, r27	; 0x0e
 */
void
_delay_ms(double __ms)
{
	uint16_t __ticks;
	double __tmp = ((F_CPU) / 4e3) * __ms;
    1a70:	6b 85       	ldd	r22, Y+11	; 0x0b
    1a72:	7c 85       	ldd	r23, Y+12	; 0x0c
    1a74:	8d 85       	ldd	r24, Y+13	; 0x0d
    1a76:	9e 85       	ldd	r25, Y+14	; 0x0e
    1a78:	20 e0       	ldi	r18, 0x00	; 0
    1a7a:	30 e0       	ldi	r19, 0x00	; 0
    1a7c:	4a e7       	ldi	r20, 0x7A	; 122
    1a7e:	55 e4       	ldi	r21, 0x45	; 69
    1a80:	0e 94 1f 02 	call	0x43e	; 0x43e <__mulsf3>
    1a84:	dc 01       	movw	r26, r24
    1a86:	cb 01       	movw	r24, r22
    1a88:	8f 83       	std	Y+7, r24	; 0x07
    1a8a:	98 87       	std	Y+8, r25	; 0x08
    1a8c:	a9 87       	std	Y+9, r26	; 0x09
    1a8e:	ba 87       	std	Y+10, r27	; 0x0a
	if (__tmp < 1.0)
    1a90:	6f 81       	ldd	r22, Y+7	; 0x07
    1a92:	78 85       	ldd	r23, Y+8	; 0x08
    1a94:	89 85       	ldd	r24, Y+9	; 0x09
    1a96:	9a 85       	ldd	r25, Y+10	; 0x0a
    1a98:	20 e0       	ldi	r18, 0x00	; 0
    1a9a:	30 e0       	ldi	r19, 0x00	; 0
    1a9c:	40 e8       	ldi	r20, 0x80	; 128
    1a9e:	5f e3       	ldi	r21, 0x3F	; 63
    1aa0:	0e 94 25 04 	call	0x84a	; 0x84a <__ltsf2>
    1aa4:	88 23       	and	r24, r24
    1aa6:	2c f4       	brge	.+10     	; 0x1ab2 <Door_Close+0x70>
		__ticks = 1;
    1aa8:	81 e0       	ldi	r24, 0x01	; 1
    1aaa:	90 e0       	ldi	r25, 0x00	; 0
    1aac:	9e 83       	std	Y+6, r25	; 0x06
    1aae:	8d 83       	std	Y+5, r24	; 0x05
    1ab0:	3f c0       	rjmp	.+126    	; 0x1b30 <Door_Close+0xee>
	else if (__tmp > 65535)
    1ab2:	6f 81       	ldd	r22, Y+7	; 0x07
    1ab4:	78 85       	ldd	r23, Y+8	; 0x08
    1ab6:	89 85       	ldd	r24, Y+9	; 0x09
    1ab8:	9a 85       	ldd	r25, Y+10	; 0x0a
    1aba:	20 e0       	ldi	r18, 0x00	; 0
    1abc:	3f ef       	ldi	r19, 0xFF	; 255
    1abe:	4f e7       	ldi	r20, 0x7F	; 127
    1ac0:	57 e4       	ldi	r21, 0x47	; 71
    1ac2:	0e 94 c5 03 	call	0x78a	; 0x78a <__gtsf2>
    1ac6:	18 16       	cp	r1, r24
    1ac8:	4c f5       	brge	.+82     	; 0x1b1c <Door_Close+0xda>
	{
		//	__ticks = requested delay in 1/10 ms
		__ticks = (uint16_t) (__ms * 10.0);
    1aca:	6b 85       	ldd	r22, Y+11	; 0x0b
    1acc:	7c 85       	ldd	r23, Y+12	; 0x0c
    1ace:	8d 85       	ldd	r24, Y+13	; 0x0d
    1ad0:	9e 85       	ldd	r25, Y+14	; 0x0e
    1ad2:	20 e0       	ldi	r18, 0x00	; 0
    1ad4:	30 e0       	ldi	r19, 0x00	; 0
    1ad6:	40 e2       	ldi	r20, 0x20	; 32
    1ad8:	51 e4       	ldi	r21, 0x41	; 65
    1ada:	0e 94 1f 02 	call	0x43e	; 0x43e <__mulsf3>
    1ade:	dc 01       	movw	r26, r24
    1ae0:	cb 01       	movw	r24, r22
    1ae2:	bc 01       	movw	r22, r24
    1ae4:	cd 01       	movw	r24, r26
    1ae6:	0e 94 49 00 	call	0x92	; 0x92 <__fixunssfsi>
    1aea:	dc 01       	movw	r26, r24
    1aec:	cb 01       	movw	r24, r22
    1aee:	9e 83       	std	Y+6, r25	; 0x06
    1af0:	8d 83       	std	Y+5, r24	; 0x05
    1af2:	0f c0       	rjmp	.+30     	; 0x1b12 <Door_Close+0xd0>
    1af4:	80 e9       	ldi	r24, 0x90	; 144
    1af6:	91 e0       	ldi	r25, 0x01	; 1
    1af8:	9c 83       	std	Y+4, r25	; 0x04
    1afa:	8b 83       	std	Y+3, r24	; 0x03
    1afc:	8b 81       	ldd	r24, Y+3	; 0x03
    1afe:	9c 81       	ldd	r25, Y+4	; 0x04
    1b00:	01 97       	sbiw	r24, 0x01	; 1
    1b02:	f1 f7       	brne	.-4      	; 0x1b00 <Door_Close+0xbe>
    1b04:	9c 83       	std	Y+4, r25	; 0x04
    1b06:	8b 83       	std	Y+3, r24	; 0x03
		while(__ticks)
		{
			// wait 1/10 ms
			_delay_loop_2(((F_CPU) / 4e3) / 10);
			__ticks --;
    1b08:	8d 81       	ldd	r24, Y+5	; 0x05
    1b0a:	9e 81       	ldd	r25, Y+6	; 0x06
    1b0c:	01 97       	sbiw	r24, 0x01	; 1
    1b0e:	9e 83       	std	Y+6, r25	; 0x06
    1b10:	8d 83       	std	Y+5, r24	; 0x05
		__ticks = 1;
	else if (__tmp > 65535)
	{
		//	__ticks = requested delay in 1/10 ms
		__ticks = (uint16_t) (__ms * 10.0);
		while(__ticks)
    1b12:	8d 81       	ldd	r24, Y+5	; 0x05
    1b14:	9e 81       	ldd	r25, Y+6	; 0x06
    1b16:	00 97       	sbiw	r24, 0x00	; 0
    1b18:	69 f7       	brne	.-38     	; 0x1af4 <Door_Close+0xb2>
    1b1a:	14 c0       	rjmp	.+40     	; 0x1b44 <Door_Close+0x102>
			__ticks --;
		}
		return;
	}
	else
		__ticks = (uint16_t)__tmp;
    1b1c:	6f 81       	ldd	r22, Y+7	; 0x07
    1b1e:	78 85       	ldd	r23, Y+8	; 0x08
    1b20:	89 85       	ldd	r24, Y+9	; 0x09
    1b22:	9a 85       	ldd	r25, Y+10	; 0x0a
    1b24:	0e 94 49 00 	call	0x92	; 0x92 <__fixunssfsi>
    1b28:	dc 01       	movw	r26, r24
    1b2a:	cb 01       	movw	r24, r22
    1b2c:	9e 83       	std	Y+6, r25	; 0x06
    1b2e:	8d 83       	std	Y+5, r24	; 0x05
    1b30:	8d 81       	ldd	r24, Y+5	; 0x05
    1b32:	9e 81       	ldd	r25, Y+6	; 0x06
    1b34:	9a 83       	std	Y+2, r25	; 0x02
    1b36:	89 83       	std	Y+1, r24	; 0x01
    1b38:	89 81       	ldd	r24, Y+1	; 0x01
    1b3a:	9a 81       	ldd	r25, Y+2	; 0x02
    1b3c:	01 97       	sbiw	r24, 0x01	; 1
    1b3e:	f1 f7       	brne	.-4      	; 0x1b3c <Door_Close+0xfa>
    1b40:	9a 83       	std	Y+2, r25	; 0x02
    1b42:	89 83       	std	Y+1, r24	; 0x01
	_delay_ms(10);

	// Stop Servo
	Servo_Stop();
    1b44:	0e 94 db 0d 	call	0x1bb6	; 0x1bb6 <Servo_Stop>
	isOpen = 0;
    1b48:	10 92 57 03 	sts	0x0357, r1
    1b4c:	10 92 56 03 	sts	0x0356, r1

}
    1b50:	2e 96       	adiw	r28, 0x0e	; 14
    1b52:	0f b6       	in	r0, 0x3f	; 63
    1b54:	f8 94       	cli
    1b56:	de bf       	out	0x3e, r29	; 62
    1b58:	0f be       	out	0x3f, r0	; 63
    1b5a:	cd bf       	out	0x3d, r28	; 61
    1b5c:	cf 91       	pop	r28
    1b5e:	df 91       	pop	r29
    1b60:	08 95       	ret

00001b62 <Door_Toogle>:

void Door_Toogle()
{
    1b62:	df 93       	push	r29
    1b64:	cf 93       	push	r28
    1b66:	cd b7       	in	r28, 0x3d	; 61
    1b68:	de b7       	in	r29, 0x3e	; 62

	if (isOpen)
    1b6a:	80 91 56 03 	lds	r24, 0x0356
    1b6e:	90 91 57 03 	lds	r25, 0x0357
    1b72:	00 97       	sbiw	r24, 0x00	; 0
    1b74:	19 f0       	breq	.+6      	; 0x1b7c <Door_Toogle+0x1a>
	{

		Door_Close();
    1b76:	0e 94 21 0d 	call	0x1a42	; 0x1a42 <Door_Close>
    1b7a:	02 c0       	rjmp	.+4      	; 0x1b80 <Door_Toogle+0x1e>

	}
	else
	{

		Door_Open();
    1b7c:	0e 94 8f 0c 	call	0x191e	; 0x191e <Door_Open>

	}

}
    1b80:	cf 91       	pop	r28
    1b82:	df 91       	pop	r29
    1b84:	08 95       	ret

00001b86 <Servo_Init>:

#include "Servo.h"


void Servo_Init()
{
    1b86:	df 93       	push	r29
    1b88:	cf 93       	push	r28
    1b8a:	cd b7       	in	r28, 0x3d	; 61
    1b8c:	de b7       	in	r29, 0x3e	; 62

	// Init timer 1 as fast pwm
	// set frequency to 50
	Timer1_Init(TIMER1_FAST_PWM);
    1b8e:	83 e0       	ldi	r24, 0x03	; 3
    1b90:	0e 94 91 20 	call	0x4122	; 0x4122 <Timer1_Init>
	Timer1_SetFrequency(50);
    1b94:	82 e3       	ldi	r24, 0x32	; 50
    1b96:	90 e0       	ldi	r25, 0x00	; 0
    1b98:	0e 94 00 21 	call	0x4200	; 0x4200 <Timer1_SetFrequency>

}
    1b9c:	cf 91       	pop	r28
    1b9e:	df 91       	pop	r29
    1ba0:	08 95       	ret

00001ba2 <Servo_Start>:

void Servo_Start()
{
    1ba2:	df 93       	push	r29
    1ba4:	cf 93       	push	r28
    1ba6:	cd b7       	in	r28, 0x3d	; 61
    1ba8:	de b7       	in	r29, 0x3e	; 62

	// Set prescaler to 256
	Timer1_Start(TIMER1_BY_256);
    1baa:	84 e0       	ldi	r24, 0x04	; 4
    1bac:	0e 94 a5 20 	call	0x414a	; 0x414a <Timer1_Start>

}
    1bb0:	cf 91       	pop	r28
    1bb2:	df 91       	pop	r29
    1bb4:	08 95       	ret

00001bb6 <Servo_Stop>:

void Servo_Stop()
{
    1bb6:	df 93       	push	r29
    1bb8:	cf 93       	push	r28
    1bba:	cd b7       	in	r28, 0x3d	; 61
    1bbc:	de b7       	in	r29, 0x3e	; 62

	// Stop timer funnction (by setting no clock)
	Timer1_Stop();
    1bbe:	0e 94 b9 20 	call	0x4172	; 0x4172 <Timer1_Stop>

}
    1bc2:	cf 91       	pop	r28
    1bc4:	df 91       	pop	r29
    1bc6:	08 95       	ret

00001bc8 <Servo_SetAngle>:

void Servo_SetAngle(u8 angle)
{
    1bc8:	df 93       	push	r29
    1bca:	cf 93       	push	r28
    1bcc:	cd b7       	in	r28, 0x3d	; 61
    1bce:	de b7       	in	r29, 0x3e	; 62
    1bd0:	2d 97       	sbiw	r28, 0x0d	; 13
    1bd2:	0f b6       	in	r0, 0x3f	; 63
    1bd4:	f8 94       	cli
    1bd6:	de bf       	out	0x3e, r29	; 62
    1bd8:	0f be       	out	0x3f, r0	; 63
    1bda:	cd bf       	out	0x3d, r28	; 61
    1bdc:	8d 87       	std	Y+13, r24	; 0x0d

	// Validation
	if (angle < 0 || angle > 180)
    1bde:	8d 85       	ldd	r24, Y+13	; 0x0d
    1be0:	85 3b       	cpi	r24, 0xB5	; 181
    1be2:	08 f0       	brcs	.+2      	; 0x1be6 <Servo_SetAngle+0x1e>
    1be4:	45 c0       	rjmp	.+138    	; 0x1c70 <Servo_SetAngle+0xa8>
	{
		return;
	}

	// Servo operate at duty cycles with Ton from 0.52ms to 2.4ms: 0 to 180 degree
	f32 percentage = (angle / 180.0);
    1be6:	8d 85       	ldd	r24, Y+13	; 0x0d
    1be8:	88 2f       	mov	r24, r24
    1bea:	90 e0       	ldi	r25, 0x00	; 0
    1bec:	aa 27       	eor	r26, r26
    1bee:	97 fd       	sbrc	r25, 7
    1bf0:	a0 95       	com	r26
    1bf2:	ba 2f       	mov	r27, r26
    1bf4:	bc 01       	movw	r22, r24
    1bf6:	cd 01       	movw	r24, r26
    1bf8:	0e 94 55 04 	call	0x8aa	; 0x8aa <__floatsisf>
    1bfc:	dc 01       	movw	r26, r24
    1bfe:	cb 01       	movw	r24, r22
    1c00:	bc 01       	movw	r22, r24
    1c02:	cd 01       	movw	r24, r26
    1c04:	20 e0       	ldi	r18, 0x00	; 0
    1c06:	30 e0       	ldi	r19, 0x00	; 0
    1c08:	44 e3       	ldi	r20, 0x34	; 52
    1c0a:	53 e4       	ldi	r21, 0x43	; 67
    1c0c:	0e 94 19 03 	call	0x632	; 0x632 <__divsf3>
    1c10:	dc 01       	movw	r26, r24
    1c12:	cb 01       	movw	r24, r22
    1c14:	89 87       	std	Y+9, r24	; 0x09
    1c16:	9a 87       	std	Y+10, r25	; 0x0a
    1c18:	ab 87       	std	Y+11, r26	; 0x0b
    1c1a:	bc 87       	std	Y+12, r27	; 0x0c
	f32 minValue = (0.52 / 1000);
    1c1c:	8c e9       	ldi	r24, 0x9C	; 156
    1c1e:	90 e5       	ldi	r25, 0x50	; 80
    1c20:	a8 e0       	ldi	r26, 0x08	; 8
    1c22:	ba e3       	ldi	r27, 0x3A	; 58
    1c24:	8d 83       	std	Y+5, r24	; 0x05
    1c26:	9e 83       	std	Y+6, r25	; 0x06
    1c28:	af 83       	std	Y+7, r26	; 0x07
    1c2a:	b8 87       	std	Y+8, r27	; 0x08
	f32 Ton = minValue + (2.4 - 0.52) / 1000 * percentage;
    1c2c:	69 85       	ldd	r22, Y+9	; 0x09
    1c2e:	7a 85       	ldd	r23, Y+10	; 0x0a
    1c30:	8b 85       	ldd	r24, Y+11	; 0x0b
    1c32:	9c 85       	ldd	r25, Y+12	; 0x0c
    1c34:	26 e5       	ldi	r18, 0x56	; 86
    1c36:	3a e6       	ldi	r19, 0x6A	; 106
    1c38:	46 ef       	ldi	r20, 0xF6	; 246
    1c3a:	5a e3       	ldi	r21, 0x3A	; 58
    1c3c:	0e 94 1f 02 	call	0x43e	; 0x43e <__mulsf3>
    1c40:	dc 01       	movw	r26, r24
    1c42:	cb 01       	movw	r24, r22
    1c44:	bc 01       	movw	r22, r24
    1c46:	cd 01       	movw	r24, r26
    1c48:	2d 81       	ldd	r18, Y+5	; 0x05
    1c4a:	3e 81       	ldd	r19, Y+6	; 0x06
    1c4c:	4f 81       	ldd	r20, Y+7	; 0x07
    1c4e:	58 85       	ldd	r21, Y+8	; 0x08
    1c50:	0e 94 f2 01 	call	0x3e4	; 0x3e4 <__addsf3>
    1c54:	dc 01       	movw	r26, r24
    1c56:	cb 01       	movw	r24, r22
    1c58:	89 83       	std	Y+1, r24	; 0x01
    1c5a:	9a 83       	std	Y+2, r25	; 0x02
    1c5c:	ab 83       	std	Y+3, r26	; 0x03
    1c5e:	bc 83       	std	Y+4, r27	; 0x04

	Timer1_SetDuty(Ton);
    1c60:	89 81       	ldd	r24, Y+1	; 0x01
    1c62:	9a 81       	ldd	r25, Y+2	; 0x02
    1c64:	ab 81       	ldd	r26, Y+3	; 0x03
    1c66:	bc 81       	ldd	r27, Y+4	; 0x04
    1c68:	bc 01       	movw	r22, r24
    1c6a:	cd 01       	movw	r24, r26
    1c6c:	0e 94 c7 20 	call	0x418e	; 0x418e <Timer1_SetDuty>

}
    1c70:	2d 96       	adiw	r28, 0x0d	; 13
    1c72:	0f b6       	in	r0, 0x3f	; 63
    1c74:	f8 94       	cli
    1c76:	de bf       	out	0x3e, r29	; 62
    1c78:	0f be       	out	0x3f, r0	; 63
    1c7a:	cd bf       	out	0x3d, r28	; 61
    1c7c:	cf 91       	pop	r28
    1c7e:	df 91       	pop	r29
    1c80:	08 95       	ret

00001c82 <SSD_init>:

#include "SSD.h"


void SSD_init(void)
{
    1c82:	df 93       	push	r29
    1c84:	cf 93       	push	r28
    1c86:	cd b7       	in	r28, 0x3d	; 61
    1c88:	de b7       	in	r29, 0x3e	; 62

	Dio_configChanel(DIO_PORTB, DIO_PIN1, DIO_OUTPUT);	// En2
    1c8a:	81 e0       	ldi	r24, 0x01	; 1
    1c8c:	61 e0       	ldi	r22, 0x01	; 1
    1c8e:	41 e0       	ldi	r20, 0x01	; 1
    1c90:	0e 94 be 25 	call	0x4b7c	; 0x4b7c <Dio_configChanel>
	Dio_configChanel(DIO_PORTB, DIO_PIN2, DIO_OUTPUT);	// En1
    1c94:	81 e0       	ldi	r24, 0x01	; 1
    1c96:	62 e0       	ldi	r22, 0x02	; 2
    1c98:	41 e0       	ldi	r20, 0x01	; 1
    1c9a:	0e 94 be 25 	call	0x4b7c	; 0x4b7c <Dio_configChanel>
	Dio_configChanel(DIO_PORTB, DIO_PIN3, DIO_OUTPUT);	// DP
    1c9e:	81 e0       	ldi	r24, 0x01	; 1
    1ca0:	63 e0       	ldi	r22, 0x03	; 3
    1ca2:	41 e0       	ldi	r20, 0x01	; 1
    1ca4:	0e 94 be 25 	call	0x4b7c	; 0x4b7c <Dio_configChanel>
	Dio_configChanel(DIO_PORTA, DIO_PIN4, DIO_OUTPUT);	// A
    1ca8:	80 e0       	ldi	r24, 0x00	; 0
    1caa:	64 e0       	ldi	r22, 0x04	; 4
    1cac:	41 e0       	ldi	r20, 0x01	; 1
    1cae:	0e 94 be 25 	call	0x4b7c	; 0x4b7c <Dio_configChanel>
	Dio_configChanel(DIO_PORTA, DIO_PIN5, DIO_OUTPUT);	// B
    1cb2:	80 e0       	ldi	r24, 0x00	; 0
    1cb4:	65 e0       	ldi	r22, 0x05	; 5
    1cb6:	41 e0       	ldi	r20, 0x01	; 1
    1cb8:	0e 94 be 25 	call	0x4b7c	; 0x4b7c <Dio_configChanel>
	Dio_configChanel(DIO_PORTA, DIO_PIN6, DIO_OUTPUT);	// C
    1cbc:	80 e0       	ldi	r24, 0x00	; 0
    1cbe:	66 e0       	ldi	r22, 0x06	; 6
    1cc0:	41 e0       	ldi	r20, 0x01	; 1
    1cc2:	0e 94 be 25 	call	0x4b7c	; 0x4b7c <Dio_configChanel>
	Dio_configChanel(DIO_PORTA, DIO_PIN7, DIO_OUTPUT);	// D
    1cc6:	80 e0       	ldi	r24, 0x00	; 0
    1cc8:	67 e0       	ldi	r22, 0x07	; 7
    1cca:	41 e0       	ldi	r20, 0x01	; 1
    1ccc:	0e 94 be 25 	call	0x4b7c	; 0x4b7c <Dio_configChanel>

}
    1cd0:	cf 91       	pop	r28
    1cd2:	df 91       	pop	r29
    1cd4:	08 95       	ret

00001cd6 <SSD_displayNumber>:


// Total delay of the function
void SSD_displayNumber(u8 number)
{
    1cd6:	df 93       	push	r29
    1cd8:	cf 93       	push	r28
    1cda:	cd b7       	in	r28, 0x3d	; 61
    1cdc:	de b7       	in	r29, 0x3e	; 62
    1cde:	e3 97       	sbiw	r28, 0x33	; 51
    1ce0:	0f b6       	in	r0, 0x3f	; 63
    1ce2:	f8 94       	cli
    1ce4:	de bf       	out	0x3e, r29	; 62
    1ce6:	0f be       	out	0x3f, r0	; 63
    1ce8:	cd bf       	out	0x3d, r28	; 61
    1cea:	8b ab       	std	Y+51, r24	; 0x33
    1cec:	03 c0       	rjmp	.+6      	; 0x1cf4 <SSD_displayNumber+0x1e>

	// To prevent overflow at 255 -> 0
	while (number >= 100)
		number -= 100;
    1cee:	8b a9       	ldd	r24, Y+51	; 0x33
    1cf0:	84 56       	subi	r24, 0x64	; 100
    1cf2:	8b ab       	std	Y+51, r24	; 0x33
// Total delay of the function
void SSD_displayNumber(u8 number)
{

	// To prevent overflow at 255 -> 0
	while (number >= 100)
    1cf4:	8b a9       	ldd	r24, Y+51	; 0x33
    1cf6:	84 36       	cpi	r24, 0x64	; 100
    1cf8:	d0 f7       	brcc	.-12     	; 0x1cee <SSD_displayNumber+0x18>
		number -= 100;

	u8 rightDigit = ((number/10) % 10) << 4;
    1cfa:	8b a9       	ldd	r24, Y+51	; 0x33
    1cfc:	9a e0       	ldi	r25, 0x0A	; 10
    1cfe:	69 2f       	mov	r22, r25
    1d00:	0e 94 68 29 	call	0x52d0	; 0x52d0 <__udivmodqi4>
    1d04:	9a e0       	ldi	r25, 0x0A	; 10
    1d06:	69 2f       	mov	r22, r25
    1d08:	0e 94 68 29 	call	0x52d0	; 0x52d0 <__udivmodqi4>
    1d0c:	89 2f       	mov	r24, r25
    1d0e:	82 95       	swap	r24
    1d10:	80 7f       	andi	r24, 0xF0	; 240
    1d12:	8a ab       	std	Y+50, r24	; 0x32
	u8 leftDigit = (number % 10) << 4;
    1d14:	8b a9       	ldd	r24, Y+51	; 0x33
    1d16:	9a e0       	ldi	r25, 0x0A	; 10
    1d18:	69 2f       	mov	r22, r25
    1d1a:	0e 94 68 29 	call	0x52d0	; 0x52d0 <__udivmodqi4>
    1d1e:	89 2f       	mov	r24, r25
    1d20:	82 95       	swap	r24
    1d22:	80 7f       	andi	r24, 0xF0	; 240
    1d24:	89 ab       	std	Y+49, r24	; 0x31

	// Right Digit
	// Enable  SSD 1
	Dio_writeChanel(DIO_PORTB, DIO_PIN2, DIO_HIGH);
    1d26:	81 e0       	ldi	r24, 0x01	; 1
    1d28:	62 e0       	ldi	r22, 0x02	; 2
    1d2a:	41 e0       	ldi	r20, 0x01	; 1
    1d2c:	0e 94 a1 26 	call	0x4d42	; 0x4d42 <Dio_writeChanel>

	// Disable SSD 2
	Dio_writeChanel(DIO_PORTB, DIO_PIN1, DIO_LOW);
    1d30:	81 e0       	ldi	r24, 0x01	; 1
    1d32:	61 e0       	ldi	r22, 0x01	; 1
    1d34:	40 e0       	ldi	r20, 0x00	; 0
    1d36:	0e 94 a1 26 	call	0x4d42	; 0x4d42 <Dio_writeChanel>

	// Write the rightDigit
	Dio_writeChanelGroup(DIO_PORTA, rightDigit, SSD_MASK);
    1d3a:	80 e0       	ldi	r24, 0x00	; 0
    1d3c:	6a a9       	ldd	r22, Y+50	; 0x32
    1d3e:	4f e0       	ldi	r20, 0x0F	; 15
    1d40:	0e 94 84 27 	call	0x4f08	; 0x4f08 <Dio_writeChanelGroup>
    1d44:	80 e0       	ldi	r24, 0x00	; 0
    1d46:	90 e0       	ldi	r25, 0x00	; 0
    1d48:	aa ef       	ldi	r26, 0xFA	; 250
    1d4a:	b3 e4       	ldi	r27, 0x43	; 67
    1d4c:	8d a7       	std	Y+45, r24	; 0x2d
    1d4e:	9e a7       	std	Y+46, r25	; 0x2e
    1d50:	af a7       	std	Y+47, r26	; 0x2f
    1d52:	b8 ab       	std	Y+48, r27	; 0x30
 */
void
_delay_us(double __us)
{
	uint8_t __ticks;
	double __tmp = ((F_CPU) / 3e6) * __us;
    1d54:	6d a5       	ldd	r22, Y+45	; 0x2d
    1d56:	7e a5       	ldd	r23, Y+46	; 0x2e
    1d58:	8f a5       	ldd	r24, Y+47	; 0x2f
    1d5a:	98 a9       	ldd	r25, Y+48	; 0x30
    1d5c:	2b ea       	ldi	r18, 0xAB	; 171
    1d5e:	3a ea       	ldi	r19, 0xAA	; 170
    1d60:	4a ea       	ldi	r20, 0xAA	; 170
    1d62:	50 e4       	ldi	r21, 0x40	; 64
    1d64:	0e 94 1f 02 	call	0x43e	; 0x43e <__mulsf3>
    1d68:	dc 01       	movw	r26, r24
    1d6a:	cb 01       	movw	r24, r22
    1d6c:	89 a7       	std	Y+41, r24	; 0x29
    1d6e:	9a a7       	std	Y+42, r25	; 0x2a
    1d70:	ab a7       	std	Y+43, r26	; 0x2b
    1d72:	bc a7       	std	Y+44, r27	; 0x2c
	if (__tmp < 1.0)
    1d74:	69 a5       	ldd	r22, Y+41	; 0x29
    1d76:	7a a5       	ldd	r23, Y+42	; 0x2a
    1d78:	8b a5       	ldd	r24, Y+43	; 0x2b
    1d7a:	9c a5       	ldd	r25, Y+44	; 0x2c
    1d7c:	20 e0       	ldi	r18, 0x00	; 0
    1d7e:	30 e0       	ldi	r19, 0x00	; 0
    1d80:	40 e8       	ldi	r20, 0x80	; 128
    1d82:	5f e3       	ldi	r21, 0x3F	; 63
    1d84:	0e 94 25 04 	call	0x84a	; 0x84a <__ltsf2>
    1d88:	88 23       	and	r24, r24
    1d8a:	1c f4       	brge	.+6      	; 0x1d92 <SSD_displayNumber+0xbc>
		__ticks = 1;
    1d8c:	81 e0       	ldi	r24, 0x01	; 1
    1d8e:	88 a7       	std	Y+40, r24	; 0x28
    1d90:	91 c0       	rjmp	.+290    	; 0x1eb4 <SSD_displayNumber+0x1de>
	else if (__tmp > 255)
    1d92:	69 a5       	ldd	r22, Y+41	; 0x29
    1d94:	7a a5       	ldd	r23, Y+42	; 0x2a
    1d96:	8b a5       	ldd	r24, Y+43	; 0x2b
    1d98:	9c a5       	ldd	r25, Y+44	; 0x2c
    1d9a:	20 e0       	ldi	r18, 0x00	; 0
    1d9c:	30 e0       	ldi	r19, 0x00	; 0
    1d9e:	4f e7       	ldi	r20, 0x7F	; 127
    1da0:	53 e4       	ldi	r21, 0x43	; 67
    1da2:	0e 94 c5 03 	call	0x78a	; 0x78a <__gtsf2>
    1da6:	18 16       	cp	r1, r24
    1da8:	0c f0       	brlt	.+2      	; 0x1dac <SSD_displayNumber+0xd6>
    1daa:	7b c0       	rjmp	.+246    	; 0x1ea2 <SSD_displayNumber+0x1cc>
	{
		_delay_ms(__us / 1000.0);
    1dac:	6d a5       	ldd	r22, Y+45	; 0x2d
    1dae:	7e a5       	ldd	r23, Y+46	; 0x2e
    1db0:	8f a5       	ldd	r24, Y+47	; 0x2f
    1db2:	98 a9       	ldd	r25, Y+48	; 0x30
    1db4:	20 e0       	ldi	r18, 0x00	; 0
    1db6:	30 e0       	ldi	r19, 0x00	; 0
    1db8:	4a e7       	ldi	r20, 0x7A	; 122
    1dba:	54 e4       	ldi	r21, 0x44	; 68
    1dbc:	0e 94 19 03 	call	0x632	; 0x632 <__divsf3>
    1dc0:	dc 01       	movw	r26, r24
    1dc2:	cb 01       	movw	r24, r22
    1dc4:	8c a3       	std	Y+36, r24	; 0x24
    1dc6:	9d a3       	std	Y+37, r25	; 0x25
    1dc8:	ae a3       	std	Y+38, r26	; 0x26
    1dca:	bf a3       	std	Y+39, r27	; 0x27
 */
void
_delay_ms(double __ms)
{
	uint16_t __ticks;
	double __tmp = ((F_CPU) / 4e3) * __ms;
    1dcc:	6c a1       	ldd	r22, Y+36	; 0x24
    1dce:	7d a1       	ldd	r23, Y+37	; 0x25
    1dd0:	8e a1       	ldd	r24, Y+38	; 0x26
    1dd2:	9f a1       	ldd	r25, Y+39	; 0x27
    1dd4:	20 e0       	ldi	r18, 0x00	; 0
    1dd6:	30 e0       	ldi	r19, 0x00	; 0
    1dd8:	4a e7       	ldi	r20, 0x7A	; 122
    1dda:	55 e4       	ldi	r21, 0x45	; 69
    1ddc:	0e 94 1f 02 	call	0x43e	; 0x43e <__mulsf3>
    1de0:	dc 01       	movw	r26, r24
    1de2:	cb 01       	movw	r24, r22
    1de4:	88 a3       	std	Y+32, r24	; 0x20
    1de6:	99 a3       	std	Y+33, r25	; 0x21
    1de8:	aa a3       	std	Y+34, r26	; 0x22
    1dea:	bb a3       	std	Y+35, r27	; 0x23
	if (__tmp < 1.0)
    1dec:	68 a1       	ldd	r22, Y+32	; 0x20
    1dee:	79 a1       	ldd	r23, Y+33	; 0x21
    1df0:	8a a1       	ldd	r24, Y+34	; 0x22
    1df2:	9b a1       	ldd	r25, Y+35	; 0x23
    1df4:	20 e0       	ldi	r18, 0x00	; 0
    1df6:	30 e0       	ldi	r19, 0x00	; 0
    1df8:	40 e8       	ldi	r20, 0x80	; 128
    1dfa:	5f e3       	ldi	r21, 0x3F	; 63
    1dfc:	0e 94 25 04 	call	0x84a	; 0x84a <__ltsf2>
    1e00:	88 23       	and	r24, r24
    1e02:	2c f4       	brge	.+10     	; 0x1e0e <SSD_displayNumber+0x138>
		__ticks = 1;
    1e04:	81 e0       	ldi	r24, 0x01	; 1
    1e06:	90 e0       	ldi	r25, 0x00	; 0
    1e08:	9f 8f       	std	Y+31, r25	; 0x1f
    1e0a:	8e 8f       	std	Y+30, r24	; 0x1e
    1e0c:	3f c0       	rjmp	.+126    	; 0x1e8c <SSD_displayNumber+0x1b6>
	else if (__tmp > 65535)
    1e0e:	68 a1       	ldd	r22, Y+32	; 0x20
    1e10:	79 a1       	ldd	r23, Y+33	; 0x21
    1e12:	8a a1       	ldd	r24, Y+34	; 0x22
    1e14:	9b a1       	ldd	r25, Y+35	; 0x23
    1e16:	20 e0       	ldi	r18, 0x00	; 0
    1e18:	3f ef       	ldi	r19, 0xFF	; 255
    1e1a:	4f e7       	ldi	r20, 0x7F	; 127
    1e1c:	57 e4       	ldi	r21, 0x47	; 71
    1e1e:	0e 94 c5 03 	call	0x78a	; 0x78a <__gtsf2>
    1e22:	18 16       	cp	r1, r24
    1e24:	4c f5       	brge	.+82     	; 0x1e78 <SSD_displayNumber+0x1a2>
	{
		//	__ticks = requested delay in 1/10 ms
		__ticks = (uint16_t) (__ms * 10.0);
    1e26:	6c a1       	ldd	r22, Y+36	; 0x24
    1e28:	7d a1       	ldd	r23, Y+37	; 0x25
    1e2a:	8e a1       	ldd	r24, Y+38	; 0x26
    1e2c:	9f a1       	ldd	r25, Y+39	; 0x27
    1e2e:	20 e0       	ldi	r18, 0x00	; 0
    1e30:	30 e0       	ldi	r19, 0x00	; 0
    1e32:	40 e2       	ldi	r20, 0x20	; 32
    1e34:	51 e4       	ldi	r21, 0x41	; 65
    1e36:	0e 94 1f 02 	call	0x43e	; 0x43e <__mulsf3>
    1e3a:	dc 01       	movw	r26, r24
    1e3c:	cb 01       	movw	r24, r22
    1e3e:	bc 01       	movw	r22, r24
    1e40:	cd 01       	movw	r24, r26
    1e42:	0e 94 49 00 	call	0x92	; 0x92 <__fixunssfsi>
    1e46:	dc 01       	movw	r26, r24
    1e48:	cb 01       	movw	r24, r22
    1e4a:	9f 8f       	std	Y+31, r25	; 0x1f
    1e4c:	8e 8f       	std	Y+30, r24	; 0x1e
    1e4e:	0f c0       	rjmp	.+30     	; 0x1e6e <SSD_displayNumber+0x198>
    1e50:	80 e9       	ldi	r24, 0x90	; 144
    1e52:	91 e0       	ldi	r25, 0x01	; 1
    1e54:	9d 8f       	std	Y+29, r25	; 0x1d
    1e56:	8c 8f       	std	Y+28, r24	; 0x1c
    1e58:	8c 8d       	ldd	r24, Y+28	; 0x1c
    1e5a:	9d 8d       	ldd	r25, Y+29	; 0x1d
    1e5c:	01 97       	sbiw	r24, 0x01	; 1
    1e5e:	f1 f7       	brne	.-4      	; 0x1e5c <SSD_displayNumber+0x186>
    1e60:	9d 8f       	std	Y+29, r25	; 0x1d
    1e62:	8c 8f       	std	Y+28, r24	; 0x1c
		while(__ticks)
		{
			// wait 1/10 ms
			_delay_loop_2(((F_CPU) / 4e3) / 10);
			__ticks --;
    1e64:	8e 8d       	ldd	r24, Y+30	; 0x1e
    1e66:	9f 8d       	ldd	r25, Y+31	; 0x1f
    1e68:	01 97       	sbiw	r24, 0x01	; 1
    1e6a:	9f 8f       	std	Y+31, r25	; 0x1f
    1e6c:	8e 8f       	std	Y+30, r24	; 0x1e
		__ticks = 1;
	else if (__tmp > 65535)
	{
		//	__ticks = requested delay in 1/10 ms
		__ticks = (uint16_t) (__ms * 10.0);
		while(__ticks)
    1e6e:	8e 8d       	ldd	r24, Y+30	; 0x1e
    1e70:	9f 8d       	ldd	r25, Y+31	; 0x1f
    1e72:	00 97       	sbiw	r24, 0x00	; 0
    1e74:	69 f7       	brne	.-38     	; 0x1e50 <SSD_displayNumber+0x17a>
    1e76:	24 c0       	rjmp	.+72     	; 0x1ec0 <SSD_displayNumber+0x1ea>
			__ticks --;
		}
		return;
	}
	else
		__ticks = (uint16_t)__tmp;
    1e78:	68 a1       	ldd	r22, Y+32	; 0x20
    1e7a:	79 a1       	ldd	r23, Y+33	; 0x21
    1e7c:	8a a1       	ldd	r24, Y+34	; 0x22
    1e7e:	9b a1       	ldd	r25, Y+35	; 0x23
    1e80:	0e 94 49 00 	call	0x92	; 0x92 <__fixunssfsi>
    1e84:	dc 01       	movw	r26, r24
    1e86:	cb 01       	movw	r24, r22
    1e88:	9f 8f       	std	Y+31, r25	; 0x1f
    1e8a:	8e 8f       	std	Y+30, r24	; 0x1e
    1e8c:	8e 8d       	ldd	r24, Y+30	; 0x1e
    1e8e:	9f 8d       	ldd	r25, Y+31	; 0x1f
    1e90:	9b 8f       	std	Y+27, r25	; 0x1b
    1e92:	8a 8f       	std	Y+26, r24	; 0x1a
    1e94:	8a 8d       	ldd	r24, Y+26	; 0x1a
    1e96:	9b 8d       	ldd	r25, Y+27	; 0x1b
    1e98:	01 97       	sbiw	r24, 0x01	; 1
    1e9a:	f1 f7       	brne	.-4      	; 0x1e98 <SSD_displayNumber+0x1c2>
    1e9c:	9b 8f       	std	Y+27, r25	; 0x1b
    1e9e:	8a 8f       	std	Y+26, r24	; 0x1a
    1ea0:	0f c0       	rjmp	.+30     	; 0x1ec0 <SSD_displayNumber+0x1ea>
	{
		_delay_ms(__us / 1000.0);
		return;
	}
	else
		__ticks = (uint8_t)__tmp;
    1ea2:	69 a5       	ldd	r22, Y+41	; 0x29
    1ea4:	7a a5       	ldd	r23, Y+42	; 0x2a
    1ea6:	8b a5       	ldd	r24, Y+43	; 0x2b
    1ea8:	9c a5       	ldd	r25, Y+44	; 0x2c
    1eaa:	0e 94 49 00 	call	0x92	; 0x92 <__fixunssfsi>
    1eae:	dc 01       	movw	r26, r24
    1eb0:	cb 01       	movw	r24, r22
    1eb2:	88 a7       	std	Y+40, r24	; 0x28
    1eb4:	88 a5       	ldd	r24, Y+40	; 0x28
    1eb6:	89 8f       	std	Y+25, r24	; 0x19
    can be achieved.
*/
void
_delay_loop_1(uint8_t __count)
{
	__asm__ volatile (
    1eb8:	89 8d       	ldd	r24, Y+25	; 0x19
    1eba:	8a 95       	dec	r24
    1ebc:	f1 f7       	brne	.-4      	; 0x1eba <SSD_displayNumber+0x1e4>
    1ebe:	89 8f       	std	Y+25, r24	; 0x19

	_delay_us(500);

	// Left Digit
	// Disable SSD 1
	Dio_writeChanel(DIO_PORTB, DIO_PIN2, DIO_LOW);
    1ec0:	81 e0       	ldi	r24, 0x01	; 1
    1ec2:	62 e0       	ldi	r22, 0x02	; 2
    1ec4:	40 e0       	ldi	r20, 0x00	; 0
    1ec6:	0e 94 a1 26 	call	0x4d42	; 0x4d42 <Dio_writeChanel>

	// Enable  SSD 2
	Dio_writeChanel(DIO_PORTB, DIO_PIN1, DIO_HIGH);
    1eca:	81 e0       	ldi	r24, 0x01	; 1
    1ecc:	61 e0       	ldi	r22, 0x01	; 1
    1ece:	41 e0       	ldi	r20, 0x01	; 1
    1ed0:	0e 94 a1 26 	call	0x4d42	; 0x4d42 <Dio_writeChanel>

	// Write the leftDigit
	Dio_writeChanelGroup(DIO_PORTA, leftDigit, SSD_MASK);
    1ed4:	80 e0       	ldi	r24, 0x00	; 0
    1ed6:	69 a9       	ldd	r22, Y+49	; 0x31
    1ed8:	4f e0       	ldi	r20, 0x0F	; 15
    1eda:	0e 94 84 27 	call	0x4f08	; 0x4f08 <Dio_writeChanelGroup>
    1ede:	80 e0       	ldi	r24, 0x00	; 0
    1ee0:	90 e0       	ldi	r25, 0x00	; 0
    1ee2:	aa ef       	ldi	r26, 0xFA	; 250
    1ee4:	b3 e4       	ldi	r27, 0x43	; 67
    1ee6:	8d 8b       	std	Y+21, r24	; 0x15
    1ee8:	9e 8b       	std	Y+22, r25	; 0x16
    1eea:	af 8b       	std	Y+23, r26	; 0x17
    1eec:	b8 8f       	std	Y+24, r27	; 0x18
 */
void
_delay_us(double __us)
{
	uint8_t __ticks;
	double __tmp = ((F_CPU) / 3e6) * __us;
    1eee:	6d 89       	ldd	r22, Y+21	; 0x15
    1ef0:	7e 89       	ldd	r23, Y+22	; 0x16
    1ef2:	8f 89       	ldd	r24, Y+23	; 0x17
    1ef4:	98 8d       	ldd	r25, Y+24	; 0x18
    1ef6:	2b ea       	ldi	r18, 0xAB	; 171
    1ef8:	3a ea       	ldi	r19, 0xAA	; 170
    1efa:	4a ea       	ldi	r20, 0xAA	; 170
    1efc:	50 e4       	ldi	r21, 0x40	; 64
    1efe:	0e 94 1f 02 	call	0x43e	; 0x43e <__mulsf3>
    1f02:	dc 01       	movw	r26, r24
    1f04:	cb 01       	movw	r24, r22
    1f06:	89 8b       	std	Y+17, r24	; 0x11
    1f08:	9a 8b       	std	Y+18, r25	; 0x12
    1f0a:	ab 8b       	std	Y+19, r26	; 0x13
    1f0c:	bc 8b       	std	Y+20, r27	; 0x14
	if (__tmp < 1.0)
    1f0e:	69 89       	ldd	r22, Y+17	; 0x11
    1f10:	7a 89       	ldd	r23, Y+18	; 0x12
    1f12:	8b 89       	ldd	r24, Y+19	; 0x13
    1f14:	9c 89       	ldd	r25, Y+20	; 0x14
    1f16:	20 e0       	ldi	r18, 0x00	; 0
    1f18:	30 e0       	ldi	r19, 0x00	; 0
    1f1a:	40 e8       	ldi	r20, 0x80	; 128
    1f1c:	5f e3       	ldi	r21, 0x3F	; 63
    1f1e:	0e 94 25 04 	call	0x84a	; 0x84a <__ltsf2>
    1f22:	88 23       	and	r24, r24
    1f24:	1c f4       	brge	.+6      	; 0x1f2c <SSD_displayNumber+0x256>
		__ticks = 1;
    1f26:	81 e0       	ldi	r24, 0x01	; 1
    1f28:	88 8b       	std	Y+16, r24	; 0x10
    1f2a:	91 c0       	rjmp	.+290    	; 0x204e <SSD_displayNumber+0x378>
	else if (__tmp > 255)
    1f2c:	69 89       	ldd	r22, Y+17	; 0x11
    1f2e:	7a 89       	ldd	r23, Y+18	; 0x12
    1f30:	8b 89       	ldd	r24, Y+19	; 0x13
    1f32:	9c 89       	ldd	r25, Y+20	; 0x14
    1f34:	20 e0       	ldi	r18, 0x00	; 0
    1f36:	30 e0       	ldi	r19, 0x00	; 0
    1f38:	4f e7       	ldi	r20, 0x7F	; 127
    1f3a:	53 e4       	ldi	r21, 0x43	; 67
    1f3c:	0e 94 c5 03 	call	0x78a	; 0x78a <__gtsf2>
    1f40:	18 16       	cp	r1, r24
    1f42:	0c f0       	brlt	.+2      	; 0x1f46 <SSD_displayNumber+0x270>
    1f44:	7b c0       	rjmp	.+246    	; 0x203c <SSD_displayNumber+0x366>
	{
		_delay_ms(__us / 1000.0);
    1f46:	6d 89       	ldd	r22, Y+21	; 0x15
    1f48:	7e 89       	ldd	r23, Y+22	; 0x16
    1f4a:	8f 89       	ldd	r24, Y+23	; 0x17
    1f4c:	98 8d       	ldd	r25, Y+24	; 0x18
    1f4e:	20 e0       	ldi	r18, 0x00	; 0
    1f50:	30 e0       	ldi	r19, 0x00	; 0
    1f52:	4a e7       	ldi	r20, 0x7A	; 122
    1f54:	54 e4       	ldi	r21, 0x44	; 68
    1f56:	0e 94 19 03 	call	0x632	; 0x632 <__divsf3>
    1f5a:	dc 01       	movw	r26, r24
    1f5c:	cb 01       	movw	r24, r22
    1f5e:	8c 87       	std	Y+12, r24	; 0x0c
    1f60:	9d 87       	std	Y+13, r25	; 0x0d
    1f62:	ae 87       	std	Y+14, r26	; 0x0e
    1f64:	bf 87       	std	Y+15, r27	; 0x0f
 */
void
_delay_ms(double __ms)
{
	uint16_t __ticks;
	double __tmp = ((F_CPU) / 4e3) * __ms;
    1f66:	6c 85       	ldd	r22, Y+12	; 0x0c
    1f68:	7d 85       	ldd	r23, Y+13	; 0x0d
    1f6a:	8e 85       	ldd	r24, Y+14	; 0x0e
    1f6c:	9f 85       	ldd	r25, Y+15	; 0x0f
    1f6e:	20 e0       	ldi	r18, 0x00	; 0
    1f70:	30 e0       	ldi	r19, 0x00	; 0
    1f72:	4a e7       	ldi	r20, 0x7A	; 122
    1f74:	55 e4       	ldi	r21, 0x45	; 69
    1f76:	0e 94 1f 02 	call	0x43e	; 0x43e <__mulsf3>
    1f7a:	dc 01       	movw	r26, r24
    1f7c:	cb 01       	movw	r24, r22
    1f7e:	88 87       	std	Y+8, r24	; 0x08
    1f80:	99 87       	std	Y+9, r25	; 0x09
    1f82:	aa 87       	std	Y+10, r26	; 0x0a
    1f84:	bb 87       	std	Y+11, r27	; 0x0b
	if (__tmp < 1.0)
    1f86:	68 85       	ldd	r22, Y+8	; 0x08
    1f88:	79 85       	ldd	r23, Y+9	; 0x09
    1f8a:	8a 85       	ldd	r24, Y+10	; 0x0a
    1f8c:	9b 85       	ldd	r25, Y+11	; 0x0b
    1f8e:	20 e0       	ldi	r18, 0x00	; 0
    1f90:	30 e0       	ldi	r19, 0x00	; 0
    1f92:	40 e8       	ldi	r20, 0x80	; 128
    1f94:	5f e3       	ldi	r21, 0x3F	; 63
    1f96:	0e 94 25 04 	call	0x84a	; 0x84a <__ltsf2>
    1f9a:	88 23       	and	r24, r24
    1f9c:	2c f4       	brge	.+10     	; 0x1fa8 <SSD_displayNumber+0x2d2>
		__ticks = 1;
    1f9e:	81 e0       	ldi	r24, 0x01	; 1
    1fa0:	90 e0       	ldi	r25, 0x00	; 0
    1fa2:	9f 83       	std	Y+7, r25	; 0x07
    1fa4:	8e 83       	std	Y+6, r24	; 0x06
    1fa6:	3f c0       	rjmp	.+126    	; 0x2026 <SSD_displayNumber+0x350>
	else if (__tmp > 65535)
    1fa8:	68 85       	ldd	r22, Y+8	; 0x08
    1faa:	79 85       	ldd	r23, Y+9	; 0x09
    1fac:	8a 85       	ldd	r24, Y+10	; 0x0a
    1fae:	9b 85       	ldd	r25, Y+11	; 0x0b
    1fb0:	20 e0       	ldi	r18, 0x00	; 0
    1fb2:	3f ef       	ldi	r19, 0xFF	; 255
    1fb4:	4f e7       	ldi	r20, 0x7F	; 127
    1fb6:	57 e4       	ldi	r21, 0x47	; 71
    1fb8:	0e 94 c5 03 	call	0x78a	; 0x78a <__gtsf2>
    1fbc:	18 16       	cp	r1, r24
    1fbe:	4c f5       	brge	.+82     	; 0x2012 <SSD_displayNumber+0x33c>
	{
		//	__ticks = requested delay in 1/10 ms
		__ticks = (uint16_t) (__ms * 10.0);
    1fc0:	6c 85       	ldd	r22, Y+12	; 0x0c
    1fc2:	7d 85       	ldd	r23, Y+13	; 0x0d
    1fc4:	8e 85       	ldd	r24, Y+14	; 0x0e
    1fc6:	9f 85       	ldd	r25, Y+15	; 0x0f
    1fc8:	20 e0       	ldi	r18, 0x00	; 0
    1fca:	30 e0       	ldi	r19, 0x00	; 0
    1fcc:	40 e2       	ldi	r20, 0x20	; 32
    1fce:	51 e4       	ldi	r21, 0x41	; 65
    1fd0:	0e 94 1f 02 	call	0x43e	; 0x43e <__mulsf3>
    1fd4:	dc 01       	movw	r26, r24
    1fd6:	cb 01       	movw	r24, r22
    1fd8:	bc 01       	movw	r22, r24
    1fda:	cd 01       	movw	r24, r26
    1fdc:	0e 94 49 00 	call	0x92	; 0x92 <__fixunssfsi>
    1fe0:	dc 01       	movw	r26, r24
    1fe2:	cb 01       	movw	r24, r22
    1fe4:	9f 83       	std	Y+7, r25	; 0x07
    1fe6:	8e 83       	std	Y+6, r24	; 0x06
    1fe8:	0f c0       	rjmp	.+30     	; 0x2008 <SSD_displayNumber+0x332>
    1fea:	80 e9       	ldi	r24, 0x90	; 144
    1fec:	91 e0       	ldi	r25, 0x01	; 1
    1fee:	9d 83       	std	Y+5, r25	; 0x05
    1ff0:	8c 83       	std	Y+4, r24	; 0x04
    milliseconds can be achieved.
 */
void
_delay_loop_2(uint16_t __count)
{
	__asm__ volatile (
    1ff2:	8c 81       	ldd	r24, Y+4	; 0x04
    1ff4:	9d 81       	ldd	r25, Y+5	; 0x05
    1ff6:	01 97       	sbiw	r24, 0x01	; 1
    1ff8:	f1 f7       	brne	.-4      	; 0x1ff6 <SSD_displayNumber+0x320>
    1ffa:	9d 83       	std	Y+5, r25	; 0x05
    1ffc:	8c 83       	std	Y+4, r24	; 0x04
		while(__ticks)
		{
			// wait 1/10 ms
			_delay_loop_2(((F_CPU) / 4e3) / 10);
			__ticks --;
    1ffe:	8e 81       	ldd	r24, Y+6	; 0x06
    2000:	9f 81       	ldd	r25, Y+7	; 0x07
    2002:	01 97       	sbiw	r24, 0x01	; 1
    2004:	9f 83       	std	Y+7, r25	; 0x07
    2006:	8e 83       	std	Y+6, r24	; 0x06
		__ticks = 1;
	else if (__tmp > 65535)
	{
		//	__ticks = requested delay in 1/10 ms
		__ticks = (uint16_t) (__ms * 10.0);
		while(__ticks)
    2008:	8e 81       	ldd	r24, Y+6	; 0x06
    200a:	9f 81       	ldd	r25, Y+7	; 0x07
    200c:	00 97       	sbiw	r24, 0x00	; 0
    200e:	69 f7       	brne	.-38     	; 0x1fea <SSD_displayNumber+0x314>
    2010:	24 c0       	rjmp	.+72     	; 0x205a <SSD_displayNumber+0x384>
			__ticks --;
		}
		return;
	}
	else
		__ticks = (uint16_t)__tmp;
    2012:	68 85       	ldd	r22, Y+8	; 0x08
    2014:	79 85       	ldd	r23, Y+9	; 0x09
    2016:	8a 85       	ldd	r24, Y+10	; 0x0a
    2018:	9b 85       	ldd	r25, Y+11	; 0x0b
    201a:	0e 94 49 00 	call	0x92	; 0x92 <__fixunssfsi>
    201e:	dc 01       	movw	r26, r24
    2020:	cb 01       	movw	r24, r22
    2022:	9f 83       	std	Y+7, r25	; 0x07
    2024:	8e 83       	std	Y+6, r24	; 0x06
    2026:	8e 81       	ldd	r24, Y+6	; 0x06
    2028:	9f 81       	ldd	r25, Y+7	; 0x07
    202a:	9b 83       	std	Y+3, r25	; 0x03
    202c:	8a 83       	std	Y+2, r24	; 0x02
    202e:	8a 81       	ldd	r24, Y+2	; 0x02
    2030:	9b 81       	ldd	r25, Y+3	; 0x03
    2032:	01 97       	sbiw	r24, 0x01	; 1
    2034:	f1 f7       	brne	.-4      	; 0x2032 <SSD_displayNumber+0x35c>
    2036:	9b 83       	std	Y+3, r25	; 0x03
    2038:	8a 83       	std	Y+2, r24	; 0x02
    203a:	0f c0       	rjmp	.+30     	; 0x205a <SSD_displayNumber+0x384>
	{
		_delay_ms(__us / 1000.0);
		return;
	}
	else
		__ticks = (uint8_t)__tmp;
    203c:	69 89       	ldd	r22, Y+17	; 0x11
    203e:	7a 89       	ldd	r23, Y+18	; 0x12
    2040:	8b 89       	ldd	r24, Y+19	; 0x13
    2042:	9c 89       	ldd	r25, Y+20	; 0x14
    2044:	0e 94 49 00 	call	0x92	; 0x92 <__fixunssfsi>
    2048:	dc 01       	movw	r26, r24
    204a:	cb 01       	movw	r24, r22
    204c:	88 8b       	std	Y+16, r24	; 0x10
    204e:	88 89       	ldd	r24, Y+16	; 0x10
    2050:	89 83       	std	Y+1, r24	; 0x01
    can be achieved.
*/
void
_delay_loop_1(uint8_t __count)
{
	__asm__ volatile (
    2052:	89 81       	ldd	r24, Y+1	; 0x01
    2054:	8a 95       	dec	r24
    2056:	f1 f7       	brne	.-4      	; 0x2054 <SSD_displayNumber+0x37e>
    2058:	89 83       	std	Y+1, r24	; 0x01
	_delay_us(500);


}
    205a:	e3 96       	adiw	r28, 0x33	; 51
    205c:	0f b6       	in	r0, 0x3f	; 63
    205e:	f8 94       	cli
    2060:	de bf       	out	0x3e, r29	; 62
    2062:	0f be       	out	0x3f, r0	; 63
    2064:	cd bf       	out	0x3d, r28	; 61
    2066:	cf 91       	pop	r28
    2068:	df 91       	pop	r29
    206a:	08 95       	ret

0000206c <SSD_displayNumberAndDelay>:

void SSD_displayNumberAndDelay(u8 number, u8 msec)
{
    206c:	df 93       	push	r29
    206e:	cf 93       	push	r28
    2070:	00 d0       	rcall	.+0      	; 0x2072 <SSD_displayNumberAndDelay+0x6>
    2072:	00 d0       	rcall	.+0      	; 0x2074 <SSD_displayNumberAndDelay+0x8>
    2074:	cd b7       	in	r28, 0x3d	; 61
    2076:	de b7       	in	r29, 0x3e	; 62
    2078:	8b 83       	std	Y+3, r24	; 0x03
    207a:	6c 83       	std	Y+4, r22	; 0x04


	// Display function takes about 3 ms

	for (u16 i = 0; i < msec; i++)
    207c:	1a 82       	std	Y+2, r1	; 0x02
    207e:	19 82       	std	Y+1, r1	; 0x01
    2080:	08 c0       	rjmp	.+16     	; 0x2092 <SSD_displayNumberAndDelay+0x26>
	{

		SSD_displayNumber(number);
    2082:	8b 81       	ldd	r24, Y+3	; 0x03
    2084:	0e 94 6b 0e 	call	0x1cd6	; 0x1cd6 <SSD_displayNumber>
{


	// Display function takes about 3 ms

	for (u16 i = 0; i < msec; i++)
    2088:	89 81       	ldd	r24, Y+1	; 0x01
    208a:	9a 81       	ldd	r25, Y+2	; 0x02
    208c:	01 96       	adiw	r24, 0x01	; 1
    208e:	9a 83       	std	Y+2, r25	; 0x02
    2090:	89 83       	std	Y+1, r24	; 0x01
    2092:	8c 81       	ldd	r24, Y+4	; 0x04
    2094:	28 2f       	mov	r18, r24
    2096:	30 e0       	ldi	r19, 0x00	; 0
    2098:	89 81       	ldd	r24, Y+1	; 0x01
    209a:	9a 81       	ldd	r25, Y+2	; 0x02
    209c:	82 17       	cp	r24, r18
    209e:	93 07       	cpc	r25, r19
    20a0:	80 f3       	brcs	.-32     	; 0x2082 <SSD_displayNumberAndDelay+0x16>

		SSD_displayNumber(number);

	}

}
    20a2:	0f 90       	pop	r0
    20a4:	0f 90       	pop	r0
    20a6:	0f 90       	pop	r0
    20a8:	0f 90       	pop	r0
    20aa:	cf 91       	pop	r28
    20ac:	df 91       	pop	r29
    20ae:	08 95       	ret

000020b0 <Relay_Init>:

#include "Relay.h"
#include "Timer2.h"

void Relay_Init()
{
    20b0:	df 93       	push	r29
    20b2:	cf 93       	push	r28
    20b4:	cd b7       	in	r28, 0x3d	; 61
    20b6:	de b7       	in	r29, 0x3e	; 62

	// Normal Lamps
	Dio_configChanel(DIO_PORTA, DIO_PIN1, DIO_OUTPUT);
    20b8:	80 e0       	ldi	r24, 0x00	; 0
    20ba:	61 e0       	ldi	r22, 0x01	; 1
    20bc:	41 e0       	ldi	r20, 0x01	; 1
    20be:	0e 94 be 25 	call	0x4b7c	; 0x4b7c <Dio_configChanel>
	Dio_configChanel(DIO_PORTA, DIO_PIN2, DIO_OUTPUT);
    20c2:	80 e0       	ldi	r24, 0x00	; 0
    20c4:	62 e0       	ldi	r22, 0x02	; 2
    20c6:	41 e0       	ldi	r20, 0x01	; 1
    20c8:	0e 94 be 25 	call	0x4b7c	; 0x4b7c <Dio_configChanel>
	Dio_configChanel(DIO_PORTB, DIO_PIN0, DIO_OUTPUT);
    20cc:	81 e0       	ldi	r24, 0x01	; 1
    20ce:	60 e0       	ldi	r22, 0x00	; 0
    20d0:	41 e0       	ldi	r20, 0x01	; 1
    20d2:	0e 94 be 25 	call	0x4b7c	; 0x4b7c <Dio_configChanel>
	Dio_configChanel(DIO_PORTC, DIO_PIN2, DIO_OUTPUT);
    20d6:	82 e0       	ldi	r24, 0x02	; 2
    20d8:	62 e0       	ldi	r22, 0x02	; 2
    20da:	41 e0       	ldi	r20, 0x01	; 1
    20dc:	0e 94 be 25 	call	0x4b7c	; 0x4b7c <Dio_configChanel>
	Dio_configChanel(DIO_PORTD, DIO_PIN6, DIO_OUTPUT);
    20e0:	83 e0       	ldi	r24, 0x03	; 3
    20e2:	66 e0       	ldi	r22, 0x06	; 6
    20e4:	41 e0       	ldi	r20, 0x01	; 1
    20e6:	0e 94 be 25 	call	0x4b7c	; 0x4b7c <Dio_configChanel>

	Dio_writeChanel(DIO_PORTA, DIO_PIN1, DIO_LOW);
    20ea:	80 e0       	ldi	r24, 0x00	; 0
    20ec:	61 e0       	ldi	r22, 0x01	; 1
    20ee:	40 e0       	ldi	r20, 0x00	; 0
    20f0:	0e 94 a1 26 	call	0x4d42	; 0x4d42 <Dio_writeChanel>
	Dio_writeChanel(DIO_PORTA, DIO_PIN2, DIO_LOW);
    20f4:	80 e0       	ldi	r24, 0x00	; 0
    20f6:	62 e0       	ldi	r22, 0x02	; 2
    20f8:	40 e0       	ldi	r20, 0x00	; 0
    20fa:	0e 94 a1 26 	call	0x4d42	; 0x4d42 <Dio_writeChanel>
	Dio_writeChanel(DIO_PORTB, DIO_PIN0, DIO_LOW);
    20fe:	81 e0       	ldi	r24, 0x01	; 1
    2100:	60 e0       	ldi	r22, 0x00	; 0
    2102:	40 e0       	ldi	r20, 0x00	; 0
    2104:	0e 94 a1 26 	call	0x4d42	; 0x4d42 <Dio_writeChanel>
	Dio_writeChanel(DIO_PORTC, DIO_PIN2, DIO_LOW);
    2108:	82 e0       	ldi	r24, 0x02	; 2
    210a:	62 e0       	ldi	r22, 0x02	; 2
    210c:	40 e0       	ldi	r20, 0x00	; 0
    210e:	0e 94 a1 26 	call	0x4d42	; 0x4d42 <Dio_writeChanel>
	Dio_writeChanel(DIO_PORTD, DIO_PIN6, DIO_LOW);
    2112:	83 e0       	ldi	r24, 0x03	; 3
    2114:	66 e0       	ldi	r22, 0x06	; 6
    2116:	40 e0       	ldi	r20, 0x00	; 0
    2118:	0e 94 a1 26 	call	0x4d42	; 0x4d42 <Dio_writeChanel>

	// Dimmer using timer2
	Timer2_Init(TIMER2_FAST_PWM);
    211c:	83 e0       	ldi	r24, 0x03	; 3
    211e:	0e 94 82 1f 	call	0x3f04	; 0x3f04 <Timer2_Init>
	Timer2_Start(TIMER2_BY_256);
    2122:	84 e0       	ldi	r24, 0x04	; 4
    2124:	0e 94 fb 1f 	call	0x3ff6	; 0x3ff6 <Timer2_Start>

}
    2128:	cf 91       	pop	r28
    212a:	df 91       	pop	r29
    212c:	08 95       	ret

0000212e <Relay_toogle>:

void Relay_toogle(Relay_t T)
{
    212e:	df 93       	push	r29
    2130:	cf 93       	push	r28
    2132:	00 d0       	rcall	.+0      	; 0x2134 <Relay_toogle+0x6>
    2134:	0f 92       	push	r0
    2136:	cd b7       	in	r28, 0x3d	; 61
    2138:	de b7       	in	r29, 0x3e	; 62
    213a:	89 83       	std	Y+1, r24	; 0x01

	switch (T)
    213c:	89 81       	ldd	r24, Y+1	; 0x01
    213e:	28 2f       	mov	r18, r24
    2140:	30 e0       	ldi	r19, 0x00	; 0
    2142:	3b 83       	std	Y+3, r19	; 0x03
    2144:	2a 83       	std	Y+2, r18	; 0x02
    2146:	8a 81       	ldd	r24, Y+2	; 0x02
    2148:	9b 81       	ldd	r25, Y+3	; 0x03
    214a:	82 30       	cpi	r24, 0x02	; 2
    214c:	91 05       	cpc	r25, r1
    214e:	21 f1       	breq	.+72     	; 0x2198 <Relay_toogle+0x6a>
    2150:	2a 81       	ldd	r18, Y+2	; 0x02
    2152:	3b 81       	ldd	r19, Y+3	; 0x03
    2154:	23 30       	cpi	r18, 0x03	; 3
    2156:	31 05       	cpc	r19, r1
    2158:	54 f4       	brge	.+20     	; 0x216e <Relay_toogle+0x40>
    215a:	8a 81       	ldd	r24, Y+2	; 0x02
    215c:	9b 81       	ldd	r25, Y+3	; 0x03
    215e:	00 97       	sbiw	r24, 0x00	; 0
    2160:	89 f0       	breq	.+34     	; 0x2184 <Relay_toogle+0x56>
    2162:	2a 81       	ldd	r18, Y+2	; 0x02
    2164:	3b 81       	ldd	r19, Y+3	; 0x03
    2166:	21 30       	cpi	r18, 0x01	; 1
    2168:	31 05       	cpc	r19, r1
    216a:	89 f0       	breq	.+34     	; 0x218e <Relay_toogle+0x60>
    216c:	23 c0       	rjmp	.+70     	; 0x21b4 <Relay_toogle+0x86>
    216e:	8a 81       	ldd	r24, Y+2	; 0x02
    2170:	9b 81       	ldd	r25, Y+3	; 0x03
    2172:	83 30       	cpi	r24, 0x03	; 3
    2174:	91 05       	cpc	r25, r1
    2176:	a9 f0       	breq	.+42     	; 0x21a2 <Relay_toogle+0x74>
    2178:	2a 81       	ldd	r18, Y+2	; 0x02
    217a:	3b 81       	ldd	r19, Y+3	; 0x03
    217c:	24 30       	cpi	r18, 0x04	; 4
    217e:	31 05       	cpc	r19, r1
    2180:	a9 f0       	breq	.+42     	; 0x21ac <Relay_toogle+0x7e>
    2182:	18 c0       	rjmp	.+48     	; 0x21b4 <Relay_toogle+0x86>
	{

		case Relay_1:
		{
			Dio_flipChanel(DIO_PORTA, DIO_PIN1);
    2184:	80 e0       	ldi	r24, 0x00	; 0
    2186:	61 e0       	ldi	r22, 0x01	; 1
    2188:	0e 94 5a 28 	call	0x50b4	; 0x50b4 <Dio_flipChanel>
    218c:	13 c0       	rjmp	.+38     	; 0x21b4 <Relay_toogle+0x86>
			break;
		}
		case Relay_2:
		{
			Dio_flipChanel(DIO_PORTA, DIO_PIN2);
    218e:	80 e0       	ldi	r24, 0x00	; 0
    2190:	62 e0       	ldi	r22, 0x02	; 2
    2192:	0e 94 5a 28 	call	0x50b4	; 0x50b4 <Dio_flipChanel>
    2196:	0e c0       	rjmp	.+28     	; 0x21b4 <Relay_toogle+0x86>
			break;
		}

		case Relay_3:
		{
			Dio_flipChanel(DIO_PORTB, DIO_PIN0);
    2198:	81 e0       	ldi	r24, 0x01	; 1
    219a:	60 e0       	ldi	r22, 0x00	; 0
    219c:	0e 94 5a 28 	call	0x50b4	; 0x50b4 <Dio_flipChanel>
    21a0:	09 c0       	rjmp	.+18     	; 0x21b4 <Relay_toogle+0x86>
			break;
		}

		case Relay_4:
		{
			Dio_flipChanel(DIO_PORTC, DIO_PIN2);
    21a2:	82 e0       	ldi	r24, 0x02	; 2
    21a4:	62 e0       	ldi	r22, 0x02	; 2
    21a6:	0e 94 5a 28 	call	0x50b4	; 0x50b4 <Dio_flipChanel>
    21aa:	04 c0       	rjmp	.+8      	; 0x21b4 <Relay_toogle+0x86>
			break;
		}

		case Relay_5:
		{
			Dio_flipChanel(DIO_PORTD, DIO_PIN6);
    21ac:	83 e0       	ldi	r24, 0x03	; 3
    21ae:	66 e0       	ldi	r22, 0x06	; 6
    21b0:	0e 94 5a 28 	call	0x50b4	; 0x50b4 <Dio_flipChanel>
			break;
		}

	}

}
    21b4:	0f 90       	pop	r0
    21b6:	0f 90       	pop	r0
    21b8:	0f 90       	pop	r0
    21ba:	cf 91       	pop	r28
    21bc:	df 91       	pop	r29
    21be:	08 95       	ret

000021c0 <Relay_setDimmer>:

void Relay_setDimmer(u8 percentage)
{
    21c0:	df 93       	push	r29
    21c2:	cf 93       	push	r28
    21c4:	0f 92       	push	r0
    21c6:	cd b7       	in	r28, 0x3d	; 61
    21c8:	de b7       	in	r29, 0x3e	; 62
    21ca:	89 83       	std	Y+1, r24	; 0x01

	if (percentage < 0 || percentage > 100)
    21cc:	89 81       	ldd	r24, Y+1	; 0x01
    21ce:	85 36       	cpi	r24, 0x65	; 101
    21d0:	18 f4       	brcc	.+6      	; 0x21d8 <Relay_setDimmer+0x18>
		return;

	Timer2_SetDuty(percentage);
    21d2:	89 81       	ldd	r24, Y+1	; 0x01
    21d4:	0e 94 3e 20 	call	0x407c	; 0x407c <Timer2_SetDuty>

}
    21d8:	0f 90       	pop	r0
    21da:	cf 91       	pop	r28
    21dc:	df 91       	pop	r29
    21de:	08 95       	ret

000021e0 <LM35_Init>:
 */

#include "LM35.h"

void LM35_Init(void)
{
    21e0:	df 93       	push	r29
    21e2:	cf 93       	push	r28
    21e4:	cd b7       	in	r28, 0x3d	; 61
    21e6:	de b7       	in	r29, 0x3e	; 62


	Dio_configChanel(DIO_PORTA, DIO_PIN0, DIO_INPUT);
    21e8:	80 e0       	ldi	r24, 0x00	; 0
    21ea:	60 e0       	ldi	r22, 0x00	; 0
    21ec:	40 e0       	ldi	r20, 0x00	; 0
    21ee:	0e 94 be 25 	call	0x4b7c	; 0x4b7c <Dio_configChanel>

	ADC_InitADC();
    21f2:	0e 94 d7 28 	call	0x51ae	; 0x51ae <ADC_InitADC>

}
    21f6:	cf 91       	pop	r28
    21f8:	df 91       	pop	r29
    21fa:	08 95       	ret

000021fc <LM35_ReadTemperature>:

u8 LM35_ReadTemperature(void)
{
    21fc:	df 93       	push	r29
    21fe:	cf 93       	push	r28
    2200:	00 d0       	rcall	.+0      	; 0x2202 <LM35_ReadTemperature+0x6>
    2202:	00 d0       	rcall	.+0      	; 0x2204 <LM35_ReadTemperature+0x8>
    2204:	0f 92       	push	r0
    2206:	cd b7       	in	r28, 0x3d	; 61
    2208:	de b7       	in	r29, 0x3e	; 62


	// Convert from V to mV
	f32 mVolts = ADC_f32ReadChannel(ADC_CHANNEL0) * 1000;
    220a:	80 e0       	ldi	r24, 0x00	; 0
    220c:	0e 94 f3 28 	call	0x51e6	; 0x51e6 <ADC_f32ReadChannel>
    2210:	dc 01       	movw	r26, r24
    2212:	cb 01       	movw	r24, r22
    2214:	bc 01       	movw	r22, r24
    2216:	cd 01       	movw	r24, r26
    2218:	20 e0       	ldi	r18, 0x00	; 0
    221a:	30 e0       	ldi	r19, 0x00	; 0
    221c:	4a e7       	ldi	r20, 0x7A	; 122
    221e:	54 e4       	ldi	r21, 0x44	; 68
    2220:	0e 94 1f 02 	call	0x43e	; 0x43e <__mulsf3>
    2224:	dc 01       	movw	r26, r24
    2226:	cb 01       	movw	r24, r22
    2228:	8a 83       	std	Y+2, r24	; 0x02
    222a:	9b 83       	std	Y+3, r25	; 0x03
    222c:	ac 83       	std	Y+4, r26	; 0x04
    222e:	bd 83       	std	Y+5, r27	; 0x05



	// From mV to degree C, where each 10mv -> 1 C
	u8 degreeC = (mVolts / 10) + 1;
    2230:	6a 81       	ldd	r22, Y+2	; 0x02
    2232:	7b 81       	ldd	r23, Y+3	; 0x03
    2234:	8c 81       	ldd	r24, Y+4	; 0x04
    2236:	9d 81       	ldd	r25, Y+5	; 0x05
    2238:	20 e0       	ldi	r18, 0x00	; 0
    223a:	30 e0       	ldi	r19, 0x00	; 0
    223c:	40 e2       	ldi	r20, 0x20	; 32
    223e:	51 e4       	ldi	r21, 0x41	; 65
    2240:	0e 94 19 03 	call	0x632	; 0x632 <__divsf3>
    2244:	dc 01       	movw	r26, r24
    2246:	cb 01       	movw	r24, r22
    2248:	bc 01       	movw	r22, r24
    224a:	cd 01       	movw	r24, r26
    224c:	20 e0       	ldi	r18, 0x00	; 0
    224e:	30 e0       	ldi	r19, 0x00	; 0
    2250:	40 e8       	ldi	r20, 0x80	; 128
    2252:	5f e3       	ldi	r21, 0x3F	; 63
    2254:	0e 94 f2 01 	call	0x3e4	; 0x3e4 <__addsf3>
    2258:	dc 01       	movw	r26, r24
    225a:	cb 01       	movw	r24, r22
    225c:	bc 01       	movw	r22, r24
    225e:	cd 01       	movw	r24, r26
    2260:	0e 94 49 00 	call	0x92	; 0x92 <__fixunssfsi>
    2264:	dc 01       	movw	r26, r24
    2266:	cb 01       	movw	r24, r22
    2268:	89 83       	std	Y+1, r24	; 0x01

	return degreeC;
    226a:	89 81       	ldd	r24, Y+1	; 0x01

}
    226c:	0f 90       	pop	r0
    226e:	0f 90       	pop	r0
    2270:	0f 90       	pop	r0
    2272:	0f 90       	pop	r0
    2274:	0f 90       	pop	r0
    2276:	cf 91       	pop	r28
    2278:	df 91       	pop	r29
    227a:	08 95       	ret

0000227c <Led_ledInit>:

#include "Led.h"
#include <util/delay.h>

void Led_ledInit()
{
    227c:	df 93       	push	r29
    227e:	cf 93       	push	r28
    2280:	cd b7       	in	r28, 0x3d	; 61
    2282:	de b7       	in	r29, 0x3e	; 62

	Dio_configChanel(DIO_PORTC, DIO_PIN2, DIO_OUTPUT);
    2284:	82 e0       	ldi	r24, 0x02	; 2
    2286:	62 e0       	ldi	r22, 0x02	; 2
    2288:	41 e0       	ldi	r20, 0x01	; 1
    228a:	0e 94 be 25 	call	0x4b7c	; 0x4b7c <Dio_configChanel>
	Dio_configChanel(DIO_PORTC, DIO_PIN7, DIO_OUTPUT);
    228e:	82 e0       	ldi	r24, 0x02	; 2
    2290:	67 e0       	ldi	r22, 0x07	; 7
    2292:	41 e0       	ldi	r20, 0x01	; 1
    2294:	0e 94 be 25 	call	0x4b7c	; 0x4b7c <Dio_configChanel>
	Dio_configChanel(DIO_PORTD, DIO_PIN3, DIO_OUTPUT);
    2298:	83 e0       	ldi	r24, 0x03	; 3
    229a:	63 e0       	ldi	r22, 0x03	; 3
    229c:	41 e0       	ldi	r20, 0x01	; 1
    229e:	0e 94 be 25 	call	0x4b7c	; 0x4b7c <Dio_configChanel>

}
    22a2:	cf 91       	pop	r28
    22a4:	df 91       	pop	r29
    22a6:	08 95       	ret

000022a8 <Led_turnOn>:

void Led_turnOn(led_ledId_t led)
{
    22a8:	df 93       	push	r29
    22aa:	cf 93       	push	r28
    22ac:	00 d0       	rcall	.+0      	; 0x22ae <Led_turnOn+0x6>
    22ae:	0f 92       	push	r0
    22b0:	cd b7       	in	r28, 0x3d	; 61
    22b2:	de b7       	in	r29, 0x3e	; 62
    22b4:	89 83       	std	Y+1, r24	; 0x01

	switch(led)
    22b6:	89 81       	ldd	r24, Y+1	; 0x01
    22b8:	28 2f       	mov	r18, r24
    22ba:	30 e0       	ldi	r19, 0x00	; 0
    22bc:	3b 83       	std	Y+3, r19	; 0x03
    22be:	2a 83       	std	Y+2, r18	; 0x02
    22c0:	8a 81       	ldd	r24, Y+2	; 0x02
    22c2:	9b 81       	ldd	r25, Y+3	; 0x03
    22c4:	81 30       	cpi	r24, 0x01	; 1
    22c6:	91 05       	cpc	r25, r1
    22c8:	79 f0       	breq	.+30     	; 0x22e8 <Led_turnOn+0x40>
    22ca:	2a 81       	ldd	r18, Y+2	; 0x02
    22cc:	3b 81       	ldd	r19, Y+3	; 0x03
    22ce:	22 30       	cpi	r18, 0x02	; 2
    22d0:	31 05       	cpc	r19, r1
    22d2:	81 f0       	breq	.+32     	; 0x22f4 <Led_turnOn+0x4c>
    22d4:	8a 81       	ldd	r24, Y+2	; 0x02
    22d6:	9b 81       	ldd	r25, Y+3	; 0x03
    22d8:	00 97       	sbiw	r24, 0x00	; 0
    22da:	89 f4       	brne	.+34     	; 0x22fe <Led_turnOn+0x56>
	{

	case LED0:
		Dio_writeChanel(DIO_PORTC, DIO_PIN2, DIO_HIGH);
    22dc:	82 e0       	ldi	r24, 0x02	; 2
    22de:	62 e0       	ldi	r22, 0x02	; 2
    22e0:	41 e0       	ldi	r20, 0x01	; 1
    22e2:	0e 94 a1 26 	call	0x4d42	; 0x4d42 <Dio_writeChanel>
    22e6:	0b c0       	rjmp	.+22     	; 0x22fe <Led_turnOn+0x56>
		break;

	case LED1:
		Dio_writeChanel(DIO_PORTC, DIO_PIN7, DIO_HIGH);
    22e8:	82 e0       	ldi	r24, 0x02	; 2
    22ea:	67 e0       	ldi	r22, 0x07	; 7
    22ec:	41 e0       	ldi	r20, 0x01	; 1
    22ee:	0e 94 a1 26 	call	0x4d42	; 0x4d42 <Dio_writeChanel>
    22f2:	05 c0       	rjmp	.+10     	; 0x22fe <Led_turnOn+0x56>
		break;

	case LED2:
		Dio_writeChanel(DIO_PORTD, DIO_PIN3, DIO_HIGH);
    22f4:	83 e0       	ldi	r24, 0x03	; 3
    22f6:	63 e0       	ldi	r22, 0x03	; 3
    22f8:	41 e0       	ldi	r20, 0x01	; 1
    22fa:	0e 94 a1 26 	call	0x4d42	; 0x4d42 <Dio_writeChanel>
		break;
	}

}
    22fe:	0f 90       	pop	r0
    2300:	0f 90       	pop	r0
    2302:	0f 90       	pop	r0
    2304:	cf 91       	pop	r28
    2306:	df 91       	pop	r29
    2308:	08 95       	ret

0000230a <Led_turnOff>:

void Led_turnOff(led_ledId_t led)
{
    230a:	df 93       	push	r29
    230c:	cf 93       	push	r28
    230e:	00 d0       	rcall	.+0      	; 0x2310 <Led_turnOff+0x6>
    2310:	0f 92       	push	r0
    2312:	cd b7       	in	r28, 0x3d	; 61
    2314:	de b7       	in	r29, 0x3e	; 62
    2316:	89 83       	std	Y+1, r24	; 0x01

	switch(led)
    2318:	89 81       	ldd	r24, Y+1	; 0x01
    231a:	28 2f       	mov	r18, r24
    231c:	30 e0       	ldi	r19, 0x00	; 0
    231e:	3b 83       	std	Y+3, r19	; 0x03
    2320:	2a 83       	std	Y+2, r18	; 0x02
    2322:	8a 81       	ldd	r24, Y+2	; 0x02
    2324:	9b 81       	ldd	r25, Y+3	; 0x03
    2326:	81 30       	cpi	r24, 0x01	; 1
    2328:	91 05       	cpc	r25, r1
    232a:	79 f0       	breq	.+30     	; 0x234a <Led_turnOff+0x40>
    232c:	2a 81       	ldd	r18, Y+2	; 0x02
    232e:	3b 81       	ldd	r19, Y+3	; 0x03
    2330:	22 30       	cpi	r18, 0x02	; 2
    2332:	31 05       	cpc	r19, r1
    2334:	81 f0       	breq	.+32     	; 0x2356 <Led_turnOff+0x4c>
    2336:	8a 81       	ldd	r24, Y+2	; 0x02
    2338:	9b 81       	ldd	r25, Y+3	; 0x03
    233a:	00 97       	sbiw	r24, 0x00	; 0
    233c:	89 f4       	brne	.+34     	; 0x2360 <Led_turnOff+0x56>
	{

	case LED0:
		Dio_writeChanel(DIO_PORTC, DIO_PIN2, DIO_LOW);
    233e:	82 e0       	ldi	r24, 0x02	; 2
    2340:	62 e0       	ldi	r22, 0x02	; 2
    2342:	40 e0       	ldi	r20, 0x00	; 0
    2344:	0e 94 a1 26 	call	0x4d42	; 0x4d42 <Dio_writeChanel>
    2348:	0b c0       	rjmp	.+22     	; 0x2360 <Led_turnOff+0x56>
		break;

	case LED1:
		Dio_writeChanel(DIO_PORTC, DIO_PIN7, DIO_LOW);
    234a:	82 e0       	ldi	r24, 0x02	; 2
    234c:	67 e0       	ldi	r22, 0x07	; 7
    234e:	40 e0       	ldi	r20, 0x00	; 0
    2350:	0e 94 a1 26 	call	0x4d42	; 0x4d42 <Dio_writeChanel>
    2354:	05 c0       	rjmp	.+10     	; 0x2360 <Led_turnOff+0x56>
		break;

	case LED2:
		Dio_writeChanel(DIO_PORTD, DIO_PIN3, DIO_LOW);
    2356:	83 e0       	ldi	r24, 0x03	; 3
    2358:	63 e0       	ldi	r22, 0x03	; 3
    235a:	40 e0       	ldi	r20, 0x00	; 0
    235c:	0e 94 a1 26 	call	0x4d42	; 0x4d42 <Dio_writeChanel>
		break;
	}

}
    2360:	0f 90       	pop	r0
    2362:	0f 90       	pop	r0
    2364:	0f 90       	pop	r0
    2366:	cf 91       	pop	r28
    2368:	df 91       	pop	r29
    236a:	08 95       	ret

0000236c <Led_toggle>:

void Led_toggle(led_ledId_t led)
{
    236c:	df 93       	push	r29
    236e:	cf 93       	push	r28
    2370:	00 d0       	rcall	.+0      	; 0x2372 <Led_toggle+0x6>
    2372:	0f 92       	push	r0
    2374:	cd b7       	in	r28, 0x3d	; 61
    2376:	de b7       	in	r29, 0x3e	; 62
    2378:	89 83       	std	Y+1, r24	; 0x01

	switch(led)
    237a:	89 81       	ldd	r24, Y+1	; 0x01
    237c:	28 2f       	mov	r18, r24
    237e:	30 e0       	ldi	r19, 0x00	; 0
    2380:	3b 83       	std	Y+3, r19	; 0x03
    2382:	2a 83       	std	Y+2, r18	; 0x02
    2384:	8a 81       	ldd	r24, Y+2	; 0x02
    2386:	9b 81       	ldd	r25, Y+3	; 0x03
    2388:	81 30       	cpi	r24, 0x01	; 1
    238a:	91 05       	cpc	r25, r1
    238c:	71 f0       	breq	.+28     	; 0x23aa <Led_toggle+0x3e>
    238e:	2a 81       	ldd	r18, Y+2	; 0x02
    2390:	3b 81       	ldd	r19, Y+3	; 0x03
    2392:	22 30       	cpi	r18, 0x02	; 2
    2394:	31 05       	cpc	r19, r1
    2396:	71 f0       	breq	.+28     	; 0x23b4 <Led_toggle+0x48>
    2398:	8a 81       	ldd	r24, Y+2	; 0x02
    239a:	9b 81       	ldd	r25, Y+3	; 0x03
    239c:	00 97       	sbiw	r24, 0x00	; 0
    239e:	71 f4       	brne	.+28     	; 0x23bc <Led_toggle+0x50>
	{

	case LED0:
		Dio_flipChanel(DIO_PORTC, DIO_PIN2);
    23a0:	82 e0       	ldi	r24, 0x02	; 2
    23a2:	62 e0       	ldi	r22, 0x02	; 2
    23a4:	0e 94 5a 28 	call	0x50b4	; 0x50b4 <Dio_flipChanel>
    23a8:	09 c0       	rjmp	.+18     	; 0x23bc <Led_toggle+0x50>
		break;

	case LED1:
		Dio_flipChanel(DIO_PORTC, DIO_PIN7);
    23aa:	82 e0       	ldi	r24, 0x02	; 2
    23ac:	67 e0       	ldi	r22, 0x07	; 7
    23ae:	0e 94 5a 28 	call	0x50b4	; 0x50b4 <Dio_flipChanel>
    23b2:	04 c0       	rjmp	.+8      	; 0x23bc <Led_toggle+0x50>
		break;

	case LED2:
		Dio_flipChanel(DIO_PORTD, DIO_PIN3);
    23b4:	83 e0       	ldi	r24, 0x03	; 3
    23b6:	63 e0       	ldi	r22, 0x03	; 3
    23b8:	0e 94 5a 28 	call	0x50b4	; 0x50b4 <Dio_flipChanel>
		break;
	}

}
    23bc:	0f 90       	pop	r0
    23be:	0f 90       	pop	r0
    23c0:	0f 90       	pop	r0
    23c2:	cf 91       	pop	r28
    23c4:	df 91       	pop	r29
    23c6:	08 95       	ret

000023c8 <LCD_init>:
static u8 col = 0;
static lcd_alignment_t alignment = LCD_LEFT;
static void LCD_staticdisplayString(u8* _char, lcd_animate_t animate, lcd_alignment_t align);

void LCD_init(void)
{
    23c8:	df 93       	push	r29
    23ca:	cf 93       	push	r28
    23cc:	cd b7       	in	r28, 0x3d	; 61
    23ce:	de b7       	in	r29, 0x3e	; 62
    23d0:	e4 97       	sbiw	r28, 0x34	; 52
    23d2:	0f b6       	in	r0, 0x3f	; 63
    23d4:	f8 94       	cli
    23d6:	de bf       	out	0x3e, r29	; 62
    23d8:	0f be       	out	0x3f, r0	; 63
    23da:	cd bf       	out	0x3d, r28	; 61

	// Control pins
	Dio_configChanel(DIO_PORTB, DIO_PIN1, DIO_OUTPUT);
    23dc:	81 e0       	ldi	r24, 0x01	; 1
    23de:	61 e0       	ldi	r22, 0x01	; 1
    23e0:	41 e0       	ldi	r20, 0x01	; 1
    23e2:	0e 94 be 25 	call	0x4b7c	; 0x4b7c <Dio_configChanel>
	Dio_configChanel(DIO_PORTB, DIO_PIN2, DIO_OUTPUT);
    23e6:	81 e0       	ldi	r24, 0x01	; 1
    23e8:	62 e0       	ldi	r22, 0x02	; 2
    23ea:	41 e0       	ldi	r20, 0x01	; 1
    23ec:	0e 94 be 25 	call	0x4b7c	; 0x4b7c <Dio_configChanel>
	Dio_configChanel(DIO_PORTB, DIO_PIN3, DIO_OUTPUT);
    23f0:	81 e0       	ldi	r24, 0x01	; 1
    23f2:	63 e0       	ldi	r22, 0x03	; 3
    23f4:	41 e0       	ldi	r20, 0x01	; 1
    23f6:	0e 94 be 25 	call	0x4b7c	; 0x4b7c <Dio_configChanel>

	// Data pins
	Dio_configChanel(DIO_PORTA, DIO_PIN4, DIO_OUTPUT);
    23fa:	80 e0       	ldi	r24, 0x00	; 0
    23fc:	64 e0       	ldi	r22, 0x04	; 4
    23fe:	41 e0       	ldi	r20, 0x01	; 1
    2400:	0e 94 be 25 	call	0x4b7c	; 0x4b7c <Dio_configChanel>
	Dio_configChanel(DIO_PORTA, DIO_PIN5, DIO_OUTPUT);
    2404:	80 e0       	ldi	r24, 0x00	; 0
    2406:	65 e0       	ldi	r22, 0x05	; 5
    2408:	41 e0       	ldi	r20, 0x01	; 1
    240a:	0e 94 be 25 	call	0x4b7c	; 0x4b7c <Dio_configChanel>
	Dio_configChanel(DIO_PORTA, DIO_PIN6, DIO_OUTPUT);
    240e:	80 e0       	ldi	r24, 0x00	; 0
    2410:	66 e0       	ldi	r22, 0x06	; 6
    2412:	41 e0       	ldi	r20, 0x01	; 1
    2414:	0e 94 be 25 	call	0x4b7c	; 0x4b7c <Dio_configChanel>
	Dio_configChanel(DIO_PORTA, DIO_PIN7, DIO_OUTPUT);
    2418:	80 e0       	ldi	r24, 0x00	; 0
    241a:	67 e0       	ldi	r22, 0x07	; 7
    241c:	41 e0       	ldi	r20, 0x01	; 1
    241e:	0e 94 be 25 	call	0x4b7c	; 0x4b7c <Dio_configChanel>

	// R/W -> Write to LCD
	Dio_writeChanel(DIO_PORTB, DIO_PIN2, DIO_LOW);
    2422:	81 e0       	ldi	r24, 0x01	; 1
    2424:	62 e0       	ldi	r22, 0x02	; 2
    2426:	40 e0       	ldi	r20, 0x00	; 0
    2428:	0e 94 a1 26 	call	0x4d42	; 0x4d42 <Dio_writeChanel>
    242c:	80 e0       	ldi	r24, 0x00	; 0
    242e:	90 e0       	ldi	r25, 0x00	; 0
    2430:	a0 e7       	ldi	r26, 0x70	; 112
    2432:	b1 e4       	ldi	r27, 0x41	; 65
    2434:	89 ab       	std	Y+49, r24	; 0x31
    2436:	9a ab       	std	Y+50, r25	; 0x32
    2438:	ab ab       	std	Y+51, r26	; 0x33
    243a:	bc ab       	std	Y+52, r27	; 0x34
 */
void
_delay_ms(double __ms)
{
	uint16_t __ticks;
	double __tmp = ((F_CPU) / 4e3) * __ms;
    243c:	69 a9       	ldd	r22, Y+49	; 0x31
    243e:	7a a9       	ldd	r23, Y+50	; 0x32
    2440:	8b a9       	ldd	r24, Y+51	; 0x33
    2442:	9c a9       	ldd	r25, Y+52	; 0x34
    2444:	20 e0       	ldi	r18, 0x00	; 0
    2446:	30 e0       	ldi	r19, 0x00	; 0
    2448:	4a e7       	ldi	r20, 0x7A	; 122
    244a:	55 e4       	ldi	r21, 0x45	; 69
    244c:	0e 94 1f 02 	call	0x43e	; 0x43e <__mulsf3>
    2450:	dc 01       	movw	r26, r24
    2452:	cb 01       	movw	r24, r22
    2454:	8d a7       	std	Y+45, r24	; 0x2d
    2456:	9e a7       	std	Y+46, r25	; 0x2e
    2458:	af a7       	std	Y+47, r26	; 0x2f
    245a:	b8 ab       	std	Y+48, r27	; 0x30
	if (__tmp < 1.0)
    245c:	6d a5       	ldd	r22, Y+45	; 0x2d
    245e:	7e a5       	ldd	r23, Y+46	; 0x2e
    2460:	8f a5       	ldd	r24, Y+47	; 0x2f
    2462:	98 a9       	ldd	r25, Y+48	; 0x30
    2464:	20 e0       	ldi	r18, 0x00	; 0
    2466:	30 e0       	ldi	r19, 0x00	; 0
    2468:	40 e8       	ldi	r20, 0x80	; 128
    246a:	5f e3       	ldi	r21, 0x3F	; 63
    246c:	0e 94 25 04 	call	0x84a	; 0x84a <__ltsf2>
    2470:	88 23       	and	r24, r24
    2472:	2c f4       	brge	.+10     	; 0x247e <LCD_init+0xb6>
		__ticks = 1;
    2474:	81 e0       	ldi	r24, 0x01	; 1
    2476:	90 e0       	ldi	r25, 0x00	; 0
    2478:	9c a7       	std	Y+44, r25	; 0x2c
    247a:	8b a7       	std	Y+43, r24	; 0x2b
    247c:	3f c0       	rjmp	.+126    	; 0x24fc <LCD_init+0x134>
	else if (__tmp > 65535)
    247e:	6d a5       	ldd	r22, Y+45	; 0x2d
    2480:	7e a5       	ldd	r23, Y+46	; 0x2e
    2482:	8f a5       	ldd	r24, Y+47	; 0x2f
    2484:	98 a9       	ldd	r25, Y+48	; 0x30
    2486:	20 e0       	ldi	r18, 0x00	; 0
    2488:	3f ef       	ldi	r19, 0xFF	; 255
    248a:	4f e7       	ldi	r20, 0x7F	; 127
    248c:	57 e4       	ldi	r21, 0x47	; 71
    248e:	0e 94 c5 03 	call	0x78a	; 0x78a <__gtsf2>
    2492:	18 16       	cp	r1, r24
    2494:	4c f5       	brge	.+82     	; 0x24e8 <LCD_init+0x120>
	{
		//	__ticks = requested delay in 1/10 ms
		__ticks = (uint16_t) (__ms * 10.0);
    2496:	69 a9       	ldd	r22, Y+49	; 0x31
    2498:	7a a9       	ldd	r23, Y+50	; 0x32
    249a:	8b a9       	ldd	r24, Y+51	; 0x33
    249c:	9c a9       	ldd	r25, Y+52	; 0x34
    249e:	20 e0       	ldi	r18, 0x00	; 0
    24a0:	30 e0       	ldi	r19, 0x00	; 0
    24a2:	40 e2       	ldi	r20, 0x20	; 32
    24a4:	51 e4       	ldi	r21, 0x41	; 65
    24a6:	0e 94 1f 02 	call	0x43e	; 0x43e <__mulsf3>
    24aa:	dc 01       	movw	r26, r24
    24ac:	cb 01       	movw	r24, r22
    24ae:	bc 01       	movw	r22, r24
    24b0:	cd 01       	movw	r24, r26
    24b2:	0e 94 49 00 	call	0x92	; 0x92 <__fixunssfsi>
    24b6:	dc 01       	movw	r26, r24
    24b8:	cb 01       	movw	r24, r22
    24ba:	9c a7       	std	Y+44, r25	; 0x2c
    24bc:	8b a7       	std	Y+43, r24	; 0x2b
    24be:	0f c0       	rjmp	.+30     	; 0x24de <LCD_init+0x116>
    24c0:	80 e9       	ldi	r24, 0x90	; 144
    24c2:	91 e0       	ldi	r25, 0x01	; 1
    24c4:	9a a7       	std	Y+42, r25	; 0x2a
    24c6:	89 a7       	std	Y+41, r24	; 0x29
    milliseconds can be achieved.
 */
void
_delay_loop_2(uint16_t __count)
{
	__asm__ volatile (
    24c8:	89 a5       	ldd	r24, Y+41	; 0x29
    24ca:	9a a5       	ldd	r25, Y+42	; 0x2a
    24cc:	01 97       	sbiw	r24, 0x01	; 1
    24ce:	f1 f7       	brne	.-4      	; 0x24cc <LCD_init+0x104>
    24d0:	9a a7       	std	Y+42, r25	; 0x2a
    24d2:	89 a7       	std	Y+41, r24	; 0x29
		while(__ticks)
		{
			// wait 1/10 ms
			_delay_loop_2(((F_CPU) / 4e3) / 10);
			__ticks --;
    24d4:	8b a5       	ldd	r24, Y+43	; 0x2b
    24d6:	9c a5       	ldd	r25, Y+44	; 0x2c
    24d8:	01 97       	sbiw	r24, 0x01	; 1
    24da:	9c a7       	std	Y+44, r25	; 0x2c
    24dc:	8b a7       	std	Y+43, r24	; 0x2b
		__ticks = 1;
	else if (__tmp > 65535)
	{
		//	__ticks = requested delay in 1/10 ms
		__ticks = (uint16_t) (__ms * 10.0);
		while(__ticks)
    24de:	8b a5       	ldd	r24, Y+43	; 0x2b
    24e0:	9c a5       	ldd	r25, Y+44	; 0x2c
    24e2:	00 97       	sbiw	r24, 0x00	; 0
    24e4:	69 f7       	brne	.-38     	; 0x24c0 <LCD_init+0xf8>
    24e6:	14 c0       	rjmp	.+40     	; 0x2510 <LCD_init+0x148>
			__ticks --;
		}
		return;
	}
	else
		__ticks = (uint16_t)__tmp;
    24e8:	6d a5       	ldd	r22, Y+45	; 0x2d
    24ea:	7e a5       	ldd	r23, Y+46	; 0x2e
    24ec:	8f a5       	ldd	r24, Y+47	; 0x2f
    24ee:	98 a9       	ldd	r25, Y+48	; 0x30
    24f0:	0e 94 49 00 	call	0x92	; 0x92 <__fixunssfsi>
    24f4:	dc 01       	movw	r26, r24
    24f6:	cb 01       	movw	r24, r22
    24f8:	9c a7       	std	Y+44, r25	; 0x2c
    24fa:	8b a7       	std	Y+43, r24	; 0x2b
    24fc:	8b a5       	ldd	r24, Y+43	; 0x2b
    24fe:	9c a5       	ldd	r25, Y+44	; 0x2c
    2500:	98 a7       	std	Y+40, r25	; 0x28
    2502:	8f a3       	std	Y+39, r24	; 0x27
    2504:	8f a1       	ldd	r24, Y+39	; 0x27
    2506:	98 a5       	ldd	r25, Y+40	; 0x28
    2508:	01 97       	sbiw	r24, 0x01	; 1
    250a:	f1 f7       	brne	.-4      	; 0x2508 <LCD_init+0x140>
    250c:	98 a7       	std	Y+40, r25	; 0x28
    250e:	8f a3       	std	Y+39, r24	; 0x27

	_delay_ms(15);
	LCD_sendCmd(0x03);
    2510:	83 e0       	ldi	r24, 0x03	; 3
    2512:	0e 94 50 16 	call	0x2ca0	; 0x2ca0 <LCD_sendCmd>
    2516:	80 e0       	ldi	r24, 0x00	; 0
    2518:	90 e0       	ldi	r25, 0x00	; 0
    251a:	a0 ea       	ldi	r26, 0xA0	; 160
    251c:	b0 e4       	ldi	r27, 0x40	; 64
    251e:	8b a3       	std	Y+35, r24	; 0x23
    2520:	9c a3       	std	Y+36, r25	; 0x24
    2522:	ad a3       	std	Y+37, r26	; 0x25
    2524:	be a3       	std	Y+38, r27	; 0x26
 */
void
_delay_ms(double __ms)
{
	uint16_t __ticks;
	double __tmp = ((F_CPU) / 4e3) * __ms;
    2526:	6b a1       	ldd	r22, Y+35	; 0x23
    2528:	7c a1       	ldd	r23, Y+36	; 0x24
    252a:	8d a1       	ldd	r24, Y+37	; 0x25
    252c:	9e a1       	ldd	r25, Y+38	; 0x26
    252e:	20 e0       	ldi	r18, 0x00	; 0
    2530:	30 e0       	ldi	r19, 0x00	; 0
    2532:	4a e7       	ldi	r20, 0x7A	; 122
    2534:	55 e4       	ldi	r21, 0x45	; 69
    2536:	0e 94 1f 02 	call	0x43e	; 0x43e <__mulsf3>
    253a:	dc 01       	movw	r26, r24
    253c:	cb 01       	movw	r24, r22
    253e:	8f 8f       	std	Y+31, r24	; 0x1f
    2540:	98 a3       	std	Y+32, r25	; 0x20
    2542:	a9 a3       	std	Y+33, r26	; 0x21
    2544:	ba a3       	std	Y+34, r27	; 0x22
	if (__tmp < 1.0)
    2546:	6f 8d       	ldd	r22, Y+31	; 0x1f
    2548:	78 a1       	ldd	r23, Y+32	; 0x20
    254a:	89 a1       	ldd	r24, Y+33	; 0x21
    254c:	9a a1       	ldd	r25, Y+34	; 0x22
    254e:	20 e0       	ldi	r18, 0x00	; 0
    2550:	30 e0       	ldi	r19, 0x00	; 0
    2552:	40 e8       	ldi	r20, 0x80	; 128
    2554:	5f e3       	ldi	r21, 0x3F	; 63
    2556:	0e 94 25 04 	call	0x84a	; 0x84a <__ltsf2>
    255a:	88 23       	and	r24, r24
    255c:	2c f4       	brge	.+10     	; 0x2568 <LCD_init+0x1a0>
		__ticks = 1;
    255e:	81 e0       	ldi	r24, 0x01	; 1
    2560:	90 e0       	ldi	r25, 0x00	; 0
    2562:	9e 8f       	std	Y+30, r25	; 0x1e
    2564:	8d 8f       	std	Y+29, r24	; 0x1d
    2566:	3f c0       	rjmp	.+126    	; 0x25e6 <LCD_init+0x21e>
	else if (__tmp > 65535)
    2568:	6f 8d       	ldd	r22, Y+31	; 0x1f
    256a:	78 a1       	ldd	r23, Y+32	; 0x20
    256c:	89 a1       	ldd	r24, Y+33	; 0x21
    256e:	9a a1       	ldd	r25, Y+34	; 0x22
    2570:	20 e0       	ldi	r18, 0x00	; 0
    2572:	3f ef       	ldi	r19, 0xFF	; 255
    2574:	4f e7       	ldi	r20, 0x7F	; 127
    2576:	57 e4       	ldi	r21, 0x47	; 71
    2578:	0e 94 c5 03 	call	0x78a	; 0x78a <__gtsf2>
    257c:	18 16       	cp	r1, r24
    257e:	4c f5       	brge	.+82     	; 0x25d2 <LCD_init+0x20a>
	{
		//	__ticks = requested delay in 1/10 ms
		__ticks = (uint16_t) (__ms * 10.0);
    2580:	6b a1       	ldd	r22, Y+35	; 0x23
    2582:	7c a1       	ldd	r23, Y+36	; 0x24
    2584:	8d a1       	ldd	r24, Y+37	; 0x25
    2586:	9e a1       	ldd	r25, Y+38	; 0x26
    2588:	20 e0       	ldi	r18, 0x00	; 0
    258a:	30 e0       	ldi	r19, 0x00	; 0
    258c:	40 e2       	ldi	r20, 0x20	; 32
    258e:	51 e4       	ldi	r21, 0x41	; 65
    2590:	0e 94 1f 02 	call	0x43e	; 0x43e <__mulsf3>
    2594:	dc 01       	movw	r26, r24
    2596:	cb 01       	movw	r24, r22
    2598:	bc 01       	movw	r22, r24
    259a:	cd 01       	movw	r24, r26
    259c:	0e 94 49 00 	call	0x92	; 0x92 <__fixunssfsi>
    25a0:	dc 01       	movw	r26, r24
    25a2:	cb 01       	movw	r24, r22
    25a4:	9e 8f       	std	Y+30, r25	; 0x1e
    25a6:	8d 8f       	std	Y+29, r24	; 0x1d
    25a8:	0f c0       	rjmp	.+30     	; 0x25c8 <LCD_init+0x200>
    25aa:	80 e9       	ldi	r24, 0x90	; 144
    25ac:	91 e0       	ldi	r25, 0x01	; 1
    25ae:	9c 8f       	std	Y+28, r25	; 0x1c
    25b0:	8b 8f       	std	Y+27, r24	; 0x1b
    25b2:	8b 8d       	ldd	r24, Y+27	; 0x1b
    25b4:	9c 8d       	ldd	r25, Y+28	; 0x1c
    25b6:	01 97       	sbiw	r24, 0x01	; 1
    25b8:	f1 f7       	brne	.-4      	; 0x25b6 <LCD_init+0x1ee>
    25ba:	9c 8f       	std	Y+28, r25	; 0x1c
    25bc:	8b 8f       	std	Y+27, r24	; 0x1b
		while(__ticks)
		{
			// wait 1/10 ms
			_delay_loop_2(((F_CPU) / 4e3) / 10);
			__ticks --;
    25be:	8d 8d       	ldd	r24, Y+29	; 0x1d
    25c0:	9e 8d       	ldd	r25, Y+30	; 0x1e
    25c2:	01 97       	sbiw	r24, 0x01	; 1
    25c4:	9e 8f       	std	Y+30, r25	; 0x1e
    25c6:	8d 8f       	std	Y+29, r24	; 0x1d
		__ticks = 1;
	else if (__tmp > 65535)
	{
		//	__ticks = requested delay in 1/10 ms
		__ticks = (uint16_t) (__ms * 10.0);
		while(__ticks)
    25c8:	8d 8d       	ldd	r24, Y+29	; 0x1d
    25ca:	9e 8d       	ldd	r25, Y+30	; 0x1e
    25cc:	00 97       	sbiw	r24, 0x00	; 0
    25ce:	69 f7       	brne	.-38     	; 0x25aa <LCD_init+0x1e2>
    25d0:	14 c0       	rjmp	.+40     	; 0x25fa <LCD_init+0x232>
			__ticks --;
		}
		return;
	}
	else
		__ticks = (uint16_t)__tmp;
    25d2:	6f 8d       	ldd	r22, Y+31	; 0x1f
    25d4:	78 a1       	ldd	r23, Y+32	; 0x20
    25d6:	89 a1       	ldd	r24, Y+33	; 0x21
    25d8:	9a a1       	ldd	r25, Y+34	; 0x22
    25da:	0e 94 49 00 	call	0x92	; 0x92 <__fixunssfsi>
    25de:	dc 01       	movw	r26, r24
    25e0:	cb 01       	movw	r24, r22
    25e2:	9e 8f       	std	Y+30, r25	; 0x1e
    25e4:	8d 8f       	std	Y+29, r24	; 0x1d
    25e6:	8d 8d       	ldd	r24, Y+29	; 0x1d
    25e8:	9e 8d       	ldd	r25, Y+30	; 0x1e
    25ea:	9a 8f       	std	Y+26, r25	; 0x1a
    25ec:	89 8f       	std	Y+25, r24	; 0x19
    25ee:	89 8d       	ldd	r24, Y+25	; 0x19
    25f0:	9a 8d       	ldd	r25, Y+26	; 0x1a
    25f2:	01 97       	sbiw	r24, 0x01	; 1
    25f4:	f1 f7       	brne	.-4      	; 0x25f2 <LCD_init+0x22a>
    25f6:	9a 8f       	std	Y+26, r25	; 0x1a
    25f8:	89 8f       	std	Y+25, r24	; 0x19

	_delay_ms(5);
	LCD_sendCmd(0x03);
    25fa:	83 e0       	ldi	r24, 0x03	; 3
    25fc:	0e 94 50 16 	call	0x2ca0	; 0x2ca0 <LCD_sendCmd>
    2600:	80 e0       	ldi	r24, 0x00	; 0
    2602:	90 e0       	ldi	r25, 0x00	; 0
    2604:	a8 ec       	ldi	r26, 0xC8	; 200
    2606:	b2 e4       	ldi	r27, 0x42	; 66
    2608:	8d 8b       	std	Y+21, r24	; 0x15
    260a:	9e 8b       	std	Y+22, r25	; 0x16
    260c:	af 8b       	std	Y+23, r26	; 0x17
    260e:	b8 8f       	std	Y+24, r27	; 0x18
 */
void
_delay_us(double __us)
{
	uint8_t __ticks;
	double __tmp = ((F_CPU) / 3e6) * __us;
    2610:	6d 89       	ldd	r22, Y+21	; 0x15
    2612:	7e 89       	ldd	r23, Y+22	; 0x16
    2614:	8f 89       	ldd	r24, Y+23	; 0x17
    2616:	98 8d       	ldd	r25, Y+24	; 0x18
    2618:	2b ea       	ldi	r18, 0xAB	; 171
    261a:	3a ea       	ldi	r19, 0xAA	; 170
    261c:	4a ea       	ldi	r20, 0xAA	; 170
    261e:	50 e4       	ldi	r21, 0x40	; 64
    2620:	0e 94 1f 02 	call	0x43e	; 0x43e <__mulsf3>
    2624:	dc 01       	movw	r26, r24
    2626:	cb 01       	movw	r24, r22
    2628:	89 8b       	std	Y+17, r24	; 0x11
    262a:	9a 8b       	std	Y+18, r25	; 0x12
    262c:	ab 8b       	std	Y+19, r26	; 0x13
    262e:	bc 8b       	std	Y+20, r27	; 0x14
	if (__tmp < 1.0)
    2630:	69 89       	ldd	r22, Y+17	; 0x11
    2632:	7a 89       	ldd	r23, Y+18	; 0x12
    2634:	8b 89       	ldd	r24, Y+19	; 0x13
    2636:	9c 89       	ldd	r25, Y+20	; 0x14
    2638:	20 e0       	ldi	r18, 0x00	; 0
    263a:	30 e0       	ldi	r19, 0x00	; 0
    263c:	40 e8       	ldi	r20, 0x80	; 128
    263e:	5f e3       	ldi	r21, 0x3F	; 63
    2640:	0e 94 25 04 	call	0x84a	; 0x84a <__ltsf2>
    2644:	88 23       	and	r24, r24
    2646:	1c f4       	brge	.+6      	; 0x264e <LCD_init+0x286>
		__ticks = 1;
    2648:	81 e0       	ldi	r24, 0x01	; 1
    264a:	88 8b       	std	Y+16, r24	; 0x10
    264c:	91 c0       	rjmp	.+290    	; 0x2770 <LCD_init+0x3a8>
	else if (__tmp > 255)
    264e:	69 89       	ldd	r22, Y+17	; 0x11
    2650:	7a 89       	ldd	r23, Y+18	; 0x12
    2652:	8b 89       	ldd	r24, Y+19	; 0x13
    2654:	9c 89       	ldd	r25, Y+20	; 0x14
    2656:	20 e0       	ldi	r18, 0x00	; 0
    2658:	30 e0       	ldi	r19, 0x00	; 0
    265a:	4f e7       	ldi	r20, 0x7F	; 127
    265c:	53 e4       	ldi	r21, 0x43	; 67
    265e:	0e 94 c5 03 	call	0x78a	; 0x78a <__gtsf2>
    2662:	18 16       	cp	r1, r24
    2664:	0c f0       	brlt	.+2      	; 0x2668 <LCD_init+0x2a0>
    2666:	7b c0       	rjmp	.+246    	; 0x275e <LCD_init+0x396>
	{
		_delay_ms(__us / 1000.0);
    2668:	6d 89       	ldd	r22, Y+21	; 0x15
    266a:	7e 89       	ldd	r23, Y+22	; 0x16
    266c:	8f 89       	ldd	r24, Y+23	; 0x17
    266e:	98 8d       	ldd	r25, Y+24	; 0x18
    2670:	20 e0       	ldi	r18, 0x00	; 0
    2672:	30 e0       	ldi	r19, 0x00	; 0
    2674:	4a e7       	ldi	r20, 0x7A	; 122
    2676:	54 e4       	ldi	r21, 0x44	; 68
    2678:	0e 94 19 03 	call	0x632	; 0x632 <__divsf3>
    267c:	dc 01       	movw	r26, r24
    267e:	cb 01       	movw	r24, r22
    2680:	8c 87       	std	Y+12, r24	; 0x0c
    2682:	9d 87       	std	Y+13, r25	; 0x0d
    2684:	ae 87       	std	Y+14, r26	; 0x0e
    2686:	bf 87       	std	Y+15, r27	; 0x0f
 */
void
_delay_ms(double __ms)
{
	uint16_t __ticks;
	double __tmp = ((F_CPU) / 4e3) * __ms;
    2688:	6c 85       	ldd	r22, Y+12	; 0x0c
    268a:	7d 85       	ldd	r23, Y+13	; 0x0d
    268c:	8e 85       	ldd	r24, Y+14	; 0x0e
    268e:	9f 85       	ldd	r25, Y+15	; 0x0f
    2690:	20 e0       	ldi	r18, 0x00	; 0
    2692:	30 e0       	ldi	r19, 0x00	; 0
    2694:	4a e7       	ldi	r20, 0x7A	; 122
    2696:	55 e4       	ldi	r21, 0x45	; 69
    2698:	0e 94 1f 02 	call	0x43e	; 0x43e <__mulsf3>
    269c:	dc 01       	movw	r26, r24
    269e:	cb 01       	movw	r24, r22
    26a0:	88 87       	std	Y+8, r24	; 0x08
    26a2:	99 87       	std	Y+9, r25	; 0x09
    26a4:	aa 87       	std	Y+10, r26	; 0x0a
    26a6:	bb 87       	std	Y+11, r27	; 0x0b
	if (__tmp < 1.0)
    26a8:	68 85       	ldd	r22, Y+8	; 0x08
    26aa:	79 85       	ldd	r23, Y+9	; 0x09
    26ac:	8a 85       	ldd	r24, Y+10	; 0x0a
    26ae:	9b 85       	ldd	r25, Y+11	; 0x0b
    26b0:	20 e0       	ldi	r18, 0x00	; 0
    26b2:	30 e0       	ldi	r19, 0x00	; 0
    26b4:	40 e8       	ldi	r20, 0x80	; 128
    26b6:	5f e3       	ldi	r21, 0x3F	; 63
    26b8:	0e 94 25 04 	call	0x84a	; 0x84a <__ltsf2>
    26bc:	88 23       	and	r24, r24
    26be:	2c f4       	brge	.+10     	; 0x26ca <LCD_init+0x302>
		__ticks = 1;
    26c0:	81 e0       	ldi	r24, 0x01	; 1
    26c2:	90 e0       	ldi	r25, 0x00	; 0
    26c4:	9f 83       	std	Y+7, r25	; 0x07
    26c6:	8e 83       	std	Y+6, r24	; 0x06
    26c8:	3f c0       	rjmp	.+126    	; 0x2748 <LCD_init+0x380>
	else if (__tmp > 65535)
    26ca:	68 85       	ldd	r22, Y+8	; 0x08
    26cc:	79 85       	ldd	r23, Y+9	; 0x09
    26ce:	8a 85       	ldd	r24, Y+10	; 0x0a
    26d0:	9b 85       	ldd	r25, Y+11	; 0x0b
    26d2:	20 e0       	ldi	r18, 0x00	; 0
    26d4:	3f ef       	ldi	r19, 0xFF	; 255
    26d6:	4f e7       	ldi	r20, 0x7F	; 127
    26d8:	57 e4       	ldi	r21, 0x47	; 71
    26da:	0e 94 c5 03 	call	0x78a	; 0x78a <__gtsf2>
    26de:	18 16       	cp	r1, r24
    26e0:	4c f5       	brge	.+82     	; 0x2734 <LCD_init+0x36c>
	{
		//	__ticks = requested delay in 1/10 ms
		__ticks = (uint16_t) (__ms * 10.0);
    26e2:	6c 85       	ldd	r22, Y+12	; 0x0c
    26e4:	7d 85       	ldd	r23, Y+13	; 0x0d
    26e6:	8e 85       	ldd	r24, Y+14	; 0x0e
    26e8:	9f 85       	ldd	r25, Y+15	; 0x0f
    26ea:	20 e0       	ldi	r18, 0x00	; 0
    26ec:	30 e0       	ldi	r19, 0x00	; 0
    26ee:	40 e2       	ldi	r20, 0x20	; 32
    26f0:	51 e4       	ldi	r21, 0x41	; 65
    26f2:	0e 94 1f 02 	call	0x43e	; 0x43e <__mulsf3>
    26f6:	dc 01       	movw	r26, r24
    26f8:	cb 01       	movw	r24, r22
    26fa:	bc 01       	movw	r22, r24
    26fc:	cd 01       	movw	r24, r26
    26fe:	0e 94 49 00 	call	0x92	; 0x92 <__fixunssfsi>
    2702:	dc 01       	movw	r26, r24
    2704:	cb 01       	movw	r24, r22
    2706:	9f 83       	std	Y+7, r25	; 0x07
    2708:	8e 83       	std	Y+6, r24	; 0x06
    270a:	0f c0       	rjmp	.+30     	; 0x272a <LCD_init+0x362>
    270c:	80 e9       	ldi	r24, 0x90	; 144
    270e:	91 e0       	ldi	r25, 0x01	; 1
    2710:	9d 83       	std	Y+5, r25	; 0x05
    2712:	8c 83       	std	Y+4, r24	; 0x04
    2714:	8c 81       	ldd	r24, Y+4	; 0x04
    2716:	9d 81       	ldd	r25, Y+5	; 0x05
    2718:	01 97       	sbiw	r24, 0x01	; 1
    271a:	f1 f7       	brne	.-4      	; 0x2718 <LCD_init+0x350>
    271c:	9d 83       	std	Y+5, r25	; 0x05
    271e:	8c 83       	std	Y+4, r24	; 0x04
		while(__ticks)
		{
			// wait 1/10 ms
			_delay_loop_2(((F_CPU) / 4e3) / 10);
			__ticks --;
    2720:	8e 81       	ldd	r24, Y+6	; 0x06
    2722:	9f 81       	ldd	r25, Y+7	; 0x07
    2724:	01 97       	sbiw	r24, 0x01	; 1
    2726:	9f 83       	std	Y+7, r25	; 0x07
    2728:	8e 83       	std	Y+6, r24	; 0x06
		__ticks = 1;
	else if (__tmp > 65535)
	{
		//	__ticks = requested delay in 1/10 ms
		__ticks = (uint16_t) (__ms * 10.0);
		while(__ticks)
    272a:	8e 81       	ldd	r24, Y+6	; 0x06
    272c:	9f 81       	ldd	r25, Y+7	; 0x07
    272e:	00 97       	sbiw	r24, 0x00	; 0
    2730:	69 f7       	brne	.-38     	; 0x270c <LCD_init+0x344>
    2732:	24 c0       	rjmp	.+72     	; 0x277c <LCD_init+0x3b4>
			__ticks --;
		}
		return;
	}
	else
		__ticks = (uint16_t)__tmp;
    2734:	68 85       	ldd	r22, Y+8	; 0x08
    2736:	79 85       	ldd	r23, Y+9	; 0x09
    2738:	8a 85       	ldd	r24, Y+10	; 0x0a
    273a:	9b 85       	ldd	r25, Y+11	; 0x0b
    273c:	0e 94 49 00 	call	0x92	; 0x92 <__fixunssfsi>
    2740:	dc 01       	movw	r26, r24
    2742:	cb 01       	movw	r24, r22
    2744:	9f 83       	std	Y+7, r25	; 0x07
    2746:	8e 83       	std	Y+6, r24	; 0x06
    2748:	8e 81       	ldd	r24, Y+6	; 0x06
    274a:	9f 81       	ldd	r25, Y+7	; 0x07
    274c:	9b 83       	std	Y+3, r25	; 0x03
    274e:	8a 83       	std	Y+2, r24	; 0x02
    2750:	8a 81       	ldd	r24, Y+2	; 0x02
    2752:	9b 81       	ldd	r25, Y+3	; 0x03
    2754:	01 97       	sbiw	r24, 0x01	; 1
    2756:	f1 f7       	brne	.-4      	; 0x2754 <LCD_init+0x38c>
    2758:	9b 83       	std	Y+3, r25	; 0x03
    275a:	8a 83       	std	Y+2, r24	; 0x02
    275c:	0f c0       	rjmp	.+30     	; 0x277c <LCD_init+0x3b4>
	{
		_delay_ms(__us / 1000.0);
		return;
	}
	else
		__ticks = (uint8_t)__tmp;
    275e:	69 89       	ldd	r22, Y+17	; 0x11
    2760:	7a 89       	ldd	r23, Y+18	; 0x12
    2762:	8b 89       	ldd	r24, Y+19	; 0x13
    2764:	9c 89       	ldd	r25, Y+20	; 0x14
    2766:	0e 94 49 00 	call	0x92	; 0x92 <__fixunssfsi>
    276a:	dc 01       	movw	r26, r24
    276c:	cb 01       	movw	r24, r22
    276e:	88 8b       	std	Y+16, r24	; 0x10
    2770:	88 89       	ldd	r24, Y+16	; 0x10
    2772:	89 83       	std	Y+1, r24	; 0x01
    can be achieved.
*/
void
_delay_loop_1(uint8_t __count)
{
	__asm__ volatile (
    2774:	89 81       	ldd	r24, Y+1	; 0x01
    2776:	8a 95       	dec	r24
    2778:	f1 f7       	brne	.-4      	; 0x2776 <LCD_init+0x3ae>
    277a:	89 83       	std	Y+1, r24	; 0x01

	_delay_us(100);
	LCD_sendCmd(0x03);
    277c:	83 e0       	ldi	r24, 0x03	; 3
    277e:	0e 94 50 16 	call	0x2ca0	; 0x2ca0 <LCD_sendCmd>

	LCD_sendCmd(0x02);
    2782:	82 e0       	ldi	r24, 0x02	; 2
    2784:	0e 94 50 16 	call	0x2ca0	; 0x2ca0 <LCD_sendCmd>
	LCD_sendCmd(_LCD_4BIT_MODE);
    2788:	88 e2       	ldi	r24, 0x28	; 40
    278a:	0e 94 50 16 	call	0x2ca0	; 0x2ca0 <LCD_sendCmd>
	LCD_sendCmd(_LCD_CLEAR);
    278e:	81 e0       	ldi	r24, 0x01	; 1
    2790:	0e 94 50 16 	call	0x2ca0	; 0x2ca0 <LCD_sendCmd>
	LCD_sendCmd(_LCD_CURSOR_ON);
    2794:	8f e0       	ldi	r24, 0x0F	; 15
    2796:	0e 94 50 16 	call	0x2ca0	; 0x2ca0 <LCD_sendCmd>

}
    279a:	e4 96       	adiw	r28, 0x34	; 52
    279c:	0f b6       	in	r0, 0x3f	; 63
    279e:	f8 94       	cli
    27a0:	de bf       	out	0x3e, r29	; 62
    27a2:	0f be       	out	0x3f, r0	; 63
    27a4:	cd bf       	out	0x3d, r28	; 61
    27a6:	cf 91       	pop	r28
    27a8:	df 91       	pop	r29
    27aa:	08 95       	ret

000027ac <LCD_generateEnablePulse>:

static void LCD_generateEnablePulse()
{
    27ac:	df 93       	push	r29
    27ae:	cf 93       	push	r28
    27b0:	cd b7       	in	r28, 0x3d	; 61
    27b2:	de b7       	in	r29, 0x3e	; 62
    27b4:	2e 97       	sbiw	r28, 0x0e	; 14
    27b6:	0f b6       	in	r0, 0x3f	; 63
    27b8:	f8 94       	cli
    27ba:	de bf       	out	0x3e, r29	; 62
    27bc:	0f be       	out	0x3f, r0	; 63
    27be:	cd bf       	out	0x3d, r28	; 61

	Dio_writeChanel(DIO_PORTB, DIO_PIN3, DIO_HIGH);
    27c0:	81 e0       	ldi	r24, 0x01	; 1
    27c2:	63 e0       	ldi	r22, 0x03	; 3
    27c4:	41 e0       	ldi	r20, 0x01	; 1
    27c6:	0e 94 a1 26 	call	0x4d42	; 0x4d42 <Dio_writeChanel>
    27ca:	80 e0       	ldi	r24, 0x00	; 0
    27cc:	90 e0       	ldi	r25, 0x00	; 0
    27ce:	a0 e0       	ldi	r26, 0x00	; 0
    27d0:	b0 e4       	ldi	r27, 0x40	; 64
    27d2:	8b 87       	std	Y+11, r24	; 0x0b
    27d4:	9c 87       	std	Y+12, r25	; 0x0c
    27d6:	ad 87       	std	Y+13, r26	; 0x0d
    27d8:	be 87       	std	Y+14, r27	; 0x0e
 */
void
_delay_ms(double __ms)
{
	uint16_t __ticks;
	double __tmp = ((F_CPU) / 4e3) * __ms;
    27da:	6b 85       	ldd	r22, Y+11	; 0x0b
    27dc:	7c 85       	ldd	r23, Y+12	; 0x0c
    27de:	8d 85       	ldd	r24, Y+13	; 0x0d
    27e0:	9e 85       	ldd	r25, Y+14	; 0x0e
    27e2:	20 e0       	ldi	r18, 0x00	; 0
    27e4:	30 e0       	ldi	r19, 0x00	; 0
    27e6:	4a e7       	ldi	r20, 0x7A	; 122
    27e8:	55 e4       	ldi	r21, 0x45	; 69
    27ea:	0e 94 1f 02 	call	0x43e	; 0x43e <__mulsf3>
    27ee:	dc 01       	movw	r26, r24
    27f0:	cb 01       	movw	r24, r22
    27f2:	8f 83       	std	Y+7, r24	; 0x07
    27f4:	98 87       	std	Y+8, r25	; 0x08
    27f6:	a9 87       	std	Y+9, r26	; 0x09
    27f8:	ba 87       	std	Y+10, r27	; 0x0a
	if (__tmp < 1.0)
    27fa:	6f 81       	ldd	r22, Y+7	; 0x07
    27fc:	78 85       	ldd	r23, Y+8	; 0x08
    27fe:	89 85       	ldd	r24, Y+9	; 0x09
    2800:	9a 85       	ldd	r25, Y+10	; 0x0a
    2802:	20 e0       	ldi	r18, 0x00	; 0
    2804:	30 e0       	ldi	r19, 0x00	; 0
    2806:	40 e8       	ldi	r20, 0x80	; 128
    2808:	5f e3       	ldi	r21, 0x3F	; 63
    280a:	0e 94 25 04 	call	0x84a	; 0x84a <__ltsf2>
    280e:	88 23       	and	r24, r24
    2810:	2c f4       	brge	.+10     	; 0x281c <LCD_generateEnablePulse+0x70>
		__ticks = 1;
    2812:	81 e0       	ldi	r24, 0x01	; 1
    2814:	90 e0       	ldi	r25, 0x00	; 0
    2816:	9e 83       	std	Y+6, r25	; 0x06
    2818:	8d 83       	std	Y+5, r24	; 0x05
    281a:	3f c0       	rjmp	.+126    	; 0x289a <LCD_generateEnablePulse+0xee>
	else if (__tmp > 65535)
    281c:	6f 81       	ldd	r22, Y+7	; 0x07
    281e:	78 85       	ldd	r23, Y+8	; 0x08
    2820:	89 85       	ldd	r24, Y+9	; 0x09
    2822:	9a 85       	ldd	r25, Y+10	; 0x0a
    2824:	20 e0       	ldi	r18, 0x00	; 0
    2826:	3f ef       	ldi	r19, 0xFF	; 255
    2828:	4f e7       	ldi	r20, 0x7F	; 127
    282a:	57 e4       	ldi	r21, 0x47	; 71
    282c:	0e 94 c5 03 	call	0x78a	; 0x78a <__gtsf2>
    2830:	18 16       	cp	r1, r24
    2832:	4c f5       	brge	.+82     	; 0x2886 <LCD_generateEnablePulse+0xda>
	{
		//	__ticks = requested delay in 1/10 ms
		__ticks = (uint16_t) (__ms * 10.0);
    2834:	6b 85       	ldd	r22, Y+11	; 0x0b
    2836:	7c 85       	ldd	r23, Y+12	; 0x0c
    2838:	8d 85       	ldd	r24, Y+13	; 0x0d
    283a:	9e 85       	ldd	r25, Y+14	; 0x0e
    283c:	20 e0       	ldi	r18, 0x00	; 0
    283e:	30 e0       	ldi	r19, 0x00	; 0
    2840:	40 e2       	ldi	r20, 0x20	; 32
    2842:	51 e4       	ldi	r21, 0x41	; 65
    2844:	0e 94 1f 02 	call	0x43e	; 0x43e <__mulsf3>
    2848:	dc 01       	movw	r26, r24
    284a:	cb 01       	movw	r24, r22
    284c:	bc 01       	movw	r22, r24
    284e:	cd 01       	movw	r24, r26
    2850:	0e 94 49 00 	call	0x92	; 0x92 <__fixunssfsi>
    2854:	dc 01       	movw	r26, r24
    2856:	cb 01       	movw	r24, r22
    2858:	9e 83       	std	Y+6, r25	; 0x06
    285a:	8d 83       	std	Y+5, r24	; 0x05
    285c:	0f c0       	rjmp	.+30     	; 0x287c <LCD_generateEnablePulse+0xd0>
    285e:	80 e9       	ldi	r24, 0x90	; 144
    2860:	91 e0       	ldi	r25, 0x01	; 1
    2862:	9c 83       	std	Y+4, r25	; 0x04
    2864:	8b 83       	std	Y+3, r24	; 0x03
    milliseconds can be achieved.
 */
void
_delay_loop_2(uint16_t __count)
{
	__asm__ volatile (
    2866:	8b 81       	ldd	r24, Y+3	; 0x03
    2868:	9c 81       	ldd	r25, Y+4	; 0x04
    286a:	01 97       	sbiw	r24, 0x01	; 1
    286c:	f1 f7       	brne	.-4      	; 0x286a <LCD_generateEnablePulse+0xbe>
    286e:	9c 83       	std	Y+4, r25	; 0x04
    2870:	8b 83       	std	Y+3, r24	; 0x03
		while(__ticks)
		{
			// wait 1/10 ms
			_delay_loop_2(((F_CPU) / 4e3) / 10);
			__ticks --;
    2872:	8d 81       	ldd	r24, Y+5	; 0x05
    2874:	9e 81       	ldd	r25, Y+6	; 0x06
    2876:	01 97       	sbiw	r24, 0x01	; 1
    2878:	9e 83       	std	Y+6, r25	; 0x06
    287a:	8d 83       	std	Y+5, r24	; 0x05
		__ticks = 1;
	else if (__tmp > 65535)
	{
		//	__ticks = requested delay in 1/10 ms
		__ticks = (uint16_t) (__ms * 10.0);
		while(__ticks)
    287c:	8d 81       	ldd	r24, Y+5	; 0x05
    287e:	9e 81       	ldd	r25, Y+6	; 0x06
    2880:	00 97       	sbiw	r24, 0x00	; 0
    2882:	69 f7       	brne	.-38     	; 0x285e <LCD_generateEnablePulse+0xb2>
    2884:	14 c0       	rjmp	.+40     	; 0x28ae <LCD_generateEnablePulse+0x102>
			__ticks --;
		}
		return;
	}
	else
		__ticks = (uint16_t)__tmp;
    2886:	6f 81       	ldd	r22, Y+7	; 0x07
    2888:	78 85       	ldd	r23, Y+8	; 0x08
    288a:	89 85       	ldd	r24, Y+9	; 0x09
    288c:	9a 85       	ldd	r25, Y+10	; 0x0a
    288e:	0e 94 49 00 	call	0x92	; 0x92 <__fixunssfsi>
    2892:	dc 01       	movw	r26, r24
    2894:	cb 01       	movw	r24, r22
    2896:	9e 83       	std	Y+6, r25	; 0x06
    2898:	8d 83       	std	Y+5, r24	; 0x05
    289a:	8d 81       	ldd	r24, Y+5	; 0x05
    289c:	9e 81       	ldd	r25, Y+6	; 0x06
    289e:	9a 83       	std	Y+2, r25	; 0x02
    28a0:	89 83       	std	Y+1, r24	; 0x01
    28a2:	89 81       	ldd	r24, Y+1	; 0x01
    28a4:	9a 81       	ldd	r25, Y+2	; 0x02
    28a6:	01 97       	sbiw	r24, 0x01	; 1
    28a8:	f1 f7       	brne	.-4      	; 0x28a6 <LCD_generateEnablePulse+0xfa>
    28aa:	9a 83       	std	Y+2, r25	; 0x02
    28ac:	89 83       	std	Y+1, r24	; 0x01
	_delay_ms(2);
	Dio_writeChanel(DIO_PORTB, DIO_PIN3, DIO_LOW);
    28ae:	81 e0       	ldi	r24, 0x01	; 1
    28b0:	63 e0       	ldi	r22, 0x03	; 3
    28b2:	40 e0       	ldi	r20, 0x00	; 0
    28b4:	0e 94 a1 26 	call	0x4d42	; 0x4d42 <Dio_writeChanel>

}
    28b8:	2e 96       	adiw	r28, 0x0e	; 14
    28ba:	0f b6       	in	r0, 0x3f	; 63
    28bc:	f8 94       	cli
    28be:	de bf       	out	0x3e, r29	; 62
    28c0:	0f be       	out	0x3f, r0	; 63
    28c2:	cd bf       	out	0x3d, r28	; 61
    28c4:	cf 91       	pop	r28
    28c6:	df 91       	pop	r29
    28c8:	08 95       	ret

000028ca <LCD_sendData>:

static void LCD_sendData(u8 data)
{
    28ca:	df 93       	push	r29
    28cc:	cf 93       	push	r28
    28ce:	00 d0       	rcall	.+0      	; 0x28d0 <LCD_sendData+0x6>
    28d0:	0f 92       	push	r0
    28d2:	cd b7       	in	r28, 0x3d	; 61
    28d4:	de b7       	in	r29, 0x3e	; 62
    28d6:	8b 83       	std	Y+3, r24	; 0x03

	u8 msb = data & ~LCD_MASK;
    28d8:	8b 81       	ldd	r24, Y+3	; 0x03
    28da:	80 7f       	andi	r24, 0xF0	; 240
    28dc:	8a 83       	std	Y+2, r24	; 0x02
	u8 lsb = data << 4;
    28de:	8b 81       	ldd	r24, Y+3	; 0x03
    28e0:	82 95       	swap	r24
    28e2:	80 7f       	andi	r24, 0xF0	; 240
    28e4:	89 83       	std	Y+1, r24	; 0x01

	// Write to port by group two times
	// MSB (Most)
	Dio_writeChanelGroup(DIO_PORTA, msb, LCD_MASK);
    28e6:	80 e0       	ldi	r24, 0x00	; 0
    28e8:	6a 81       	ldd	r22, Y+2	; 0x02
    28ea:	4f e0       	ldi	r20, 0x0F	; 15
    28ec:	0e 94 84 27 	call	0x4f08	; 0x4f08 <Dio_writeChanelGroup>

	// Generate enable pulse to enable lcd to read last bits
	LCD_generateEnablePulse();
    28f0:	0e 94 d6 13 	call	0x27ac	; 0x27ac <LCD_generateEnablePulse>

	// LSB (Least)
	Dio_writeChanelGroup(DIO_PORTA, lsb, LCD_MASK);
    28f4:	80 e0       	ldi	r24, 0x00	; 0
    28f6:	69 81       	ldd	r22, Y+1	; 0x01
    28f8:	4f e0       	ldi	r20, 0x0F	; 15
    28fa:	0e 94 84 27 	call	0x4f08	; 0x4f08 <Dio_writeChanelGroup>

	// Generate enable pulse to enable lcd to read last bits
	LCD_generateEnablePulse();
    28fe:	0e 94 d6 13 	call	0x27ac	; 0x27ac <LCD_generateEnablePulse>


}
    2902:	0f 90       	pop	r0
    2904:	0f 90       	pop	r0
    2906:	0f 90       	pop	r0
    2908:	cf 91       	pop	r28
    290a:	df 91       	pop	r29
    290c:	08 95       	ret

0000290e <LCD_displayChar>:

void LCD_displayChar(u8 _char)
{
    290e:	df 93       	push	r29
    2910:	cf 93       	push	r28
    2912:	0f 92       	push	r0
    2914:	cd b7       	in	r28, 0x3d	; 61
    2916:	de b7       	in	r29, 0x3e	; 62
    2918:	89 83       	std	Y+1, r24	; 0x01

	if (_char == '\0')
    291a:	89 81       	ldd	r24, Y+1	; 0x01
    291c:	88 23       	and	r24, r24
    291e:	69 f0       	breq	.+26     	; 0x293a <LCD_displayChar+0x2c>
	{
		return;
	}

	// RS = 1 -> to be displayed
	Dio_writeChanel(DIO_PORTB, DIO_PIN1, DIO_HIGH);
    2920:	81 e0       	ldi	r24, 0x01	; 1
    2922:	61 e0       	ldi	r22, 0x01	; 1
    2924:	41 e0       	ldi	r20, 0x01	; 1
    2926:	0e 94 a1 26 	call	0x4d42	; 0x4d42 <Dio_writeChanel>

	LCD_sendData(_char);
    292a:	89 81       	ldd	r24, Y+1	; 0x01
    292c:	0e 94 65 14 	call	0x28ca	; 0x28ca <LCD_sendData>
	col++;
    2930:	80 91 59 03 	lds	r24, 0x0359
    2934:	8f 5f       	subi	r24, 0xFF	; 255
    2936:	80 93 59 03 	sts	0x0359, r24

}
    293a:	0f 90       	pop	r0
    293c:	cf 91       	pop	r28
    293e:	df 91       	pop	r29
    2940:	08 95       	ret

00002942 <LCD_displayInt>:

void LCD_displayInt(u32 number)
{
    2942:	df 93       	push	r29
    2944:	cf 93       	push	r28
    2946:	cd b7       	in	r28, 0x3d	; 61
    2948:	de b7       	in	r29, 0x3e	; 62
    294a:	c8 56       	subi	r28, 0x68	; 104
    294c:	d0 40       	sbci	r29, 0x00	; 0
    294e:	0f b6       	in	r0, 0x3f	; 63
    2950:	f8 94       	cli
    2952:	de bf       	out	0x3e, r29	; 62
    2954:	0f be       	out	0x3f, r0	; 63
    2956:	cd bf       	out	0x3d, r28	; 61
    2958:	fe 01       	movw	r30, r28
    295a:	eb 59       	subi	r30, 0x9B	; 155
    295c:	ff 4f       	sbci	r31, 0xFF	; 255
    295e:	60 83       	st	Z, r22
    2960:	71 83       	std	Z+1, r23	; 0x01
    2962:	82 83       	std	Z+2, r24	; 0x02
    2964:	93 83       	std	Z+3, r25	; 0x03

	u8 buffer[100];

	sprintf(buffer, "%d", number);
    2966:	8d b7       	in	r24, 0x3d	; 61
    2968:	9e b7       	in	r25, 0x3e	; 62
    296a:	08 97       	sbiw	r24, 0x08	; 8
    296c:	0f b6       	in	r0, 0x3f	; 63
    296e:	f8 94       	cli
    2970:	9e bf       	out	0x3e, r25	; 62
    2972:	0f be       	out	0x3f, r0	; 63
    2974:	8d bf       	out	0x3d, r24	; 61
    2976:	2d b7       	in	r18, 0x3d	; 61
    2978:	3e b7       	in	r19, 0x3e	; 62
    297a:	2f 5f       	subi	r18, 0xFF	; 255
    297c:	3f 4f       	sbci	r19, 0xFF	; 255
    297e:	ce 01       	movw	r24, r28
    2980:	01 96       	adiw	r24, 0x01	; 1
    2982:	f9 01       	movw	r30, r18
    2984:	91 83       	std	Z+1, r25	; 0x01
    2986:	80 83       	st	Z, r24
    2988:	81 e3       	ldi	r24, 0x31	; 49
    298a:	92 e0       	ldi	r25, 0x02	; 2
    298c:	f9 01       	movw	r30, r18
    298e:	93 83       	std	Z+3, r25	; 0x03
    2990:	82 83       	std	Z+2, r24	; 0x02
    2992:	fe 01       	movw	r30, r28
    2994:	eb 59       	subi	r30, 0x9B	; 155
    2996:	ff 4f       	sbci	r31, 0xFF	; 255
    2998:	80 81       	ld	r24, Z
    299a:	91 81       	ldd	r25, Z+1	; 0x01
    299c:	a2 81       	ldd	r26, Z+2	; 0x02
    299e:	b3 81       	ldd	r27, Z+3	; 0x03
    29a0:	f9 01       	movw	r30, r18
    29a2:	84 83       	std	Z+4, r24	; 0x04
    29a4:	95 83       	std	Z+5, r25	; 0x05
    29a6:	a6 83       	std	Z+6, r26	; 0x06
    29a8:	b7 83       	std	Z+7, r27	; 0x07
    29aa:	0e 94 5c 2b 	call	0x56b8	; 0x56b8 <sprintf>
    29ae:	8d b7       	in	r24, 0x3d	; 61
    29b0:	9e b7       	in	r25, 0x3e	; 62
    29b2:	08 96       	adiw	r24, 0x08	; 8
    29b4:	0f b6       	in	r0, 0x3f	; 63
    29b6:	f8 94       	cli
    29b8:	9e bf       	out	0x3e, r25	; 62
    29ba:	0f be       	out	0x3f, r0	; 63
    29bc:	8d bf       	out	0x3d, r24	; 61

	LCD_staticdisplayString(buffer, LCD_NO_ANIMATE, LCD_NONE);
    29be:	ce 01       	movw	r24, r28
    29c0:	01 96       	adiw	r24, 0x01	; 1
    29c2:	60 e0       	ldi	r22, 0x00	; 0
    29c4:	40 e0       	ldi	r20, 0x00	; 0
    29c6:	0e 94 4c 15 	call	0x2a98	; 0x2a98 <LCD_staticdisplayString>

}
    29ca:	c8 59       	subi	r28, 0x98	; 152
    29cc:	df 4f       	sbci	r29, 0xFF	; 255
    29ce:	0f b6       	in	r0, 0x3f	; 63
    29d0:	f8 94       	cli
    29d2:	de bf       	out	0x3e, r29	; 62
    29d4:	0f be       	out	0x3f, r0	; 63
    29d6:	cd bf       	out	0x3d, r28	; 61
    29d8:	cf 91       	pop	r28
    29da:	df 91       	pop	r29
    29dc:	08 95       	ret

000029de <LCD_displayFloat>:

void LCD_displayFloat(f32 number)
{
    29de:	df 93       	push	r29
    29e0:	cf 93       	push	r28
    29e2:	00 d0       	rcall	.+0      	; 0x29e4 <LCD_displayFloat+0x6>
    29e4:	00 d0       	rcall	.+0      	; 0x29e6 <LCD_displayFloat+0x8>
    29e6:	0f 92       	push	r0
    29e8:	cd b7       	in	r28, 0x3d	; 61
    29ea:	de b7       	in	r29, 0x3e	; 62
    29ec:	6a 83       	std	Y+2, r22	; 0x02
    29ee:	7b 83       	std	Y+3, r23	; 0x03
    29f0:	8c 83       	std	Y+4, r24	; 0x04
    29f2:	9d 83       	std	Y+5, r25	; 0x05

	u8 wholeNum = number;
    29f4:	6a 81       	ldd	r22, Y+2	; 0x02
    29f6:	7b 81       	ldd	r23, Y+3	; 0x03
    29f8:	8c 81       	ldd	r24, Y+4	; 0x04
    29fa:	9d 81       	ldd	r25, Y+5	; 0x05
    29fc:	0e 94 49 00 	call	0x92	; 0x92 <__fixunssfsi>
    2a00:	dc 01       	movw	r26, r24
    2a02:	cb 01       	movw	r24, r22
    2a04:	89 83       	std	Y+1, r24	; 0x01

	LCD_displayInt(wholeNum);
    2a06:	89 81       	ldd	r24, Y+1	; 0x01
    2a08:	88 2f       	mov	r24, r24
    2a0a:	90 e0       	ldi	r25, 0x00	; 0
    2a0c:	a0 e0       	ldi	r26, 0x00	; 0
    2a0e:	b0 e0       	ldi	r27, 0x00	; 0
    2a10:	bc 01       	movw	r22, r24
    2a12:	cd 01       	movw	r24, r26
    2a14:	0e 94 a1 14 	call	0x2942	; 0x2942 <LCD_displayInt>
	LCD_displayChar('.');
    2a18:	8e e2       	ldi	r24, 0x2E	; 46
    2a1a:	0e 94 87 14 	call	0x290e	; 0x290e <LCD_displayChar>

	number -= wholeNum;
    2a1e:	89 81       	ldd	r24, Y+1	; 0x01
    2a20:	88 2f       	mov	r24, r24
    2a22:	90 e0       	ldi	r25, 0x00	; 0
    2a24:	aa 27       	eor	r26, r26
    2a26:	97 fd       	sbrc	r25, 7
    2a28:	a0 95       	com	r26
    2a2a:	ba 2f       	mov	r27, r26
    2a2c:	bc 01       	movw	r22, r24
    2a2e:	cd 01       	movw	r24, r26
    2a30:	0e 94 55 04 	call	0x8aa	; 0x8aa <__floatsisf>
    2a34:	9b 01       	movw	r18, r22
    2a36:	ac 01       	movw	r20, r24
    2a38:	6a 81       	ldd	r22, Y+2	; 0x02
    2a3a:	7b 81       	ldd	r23, Y+3	; 0x03
    2a3c:	8c 81       	ldd	r24, Y+4	; 0x04
    2a3e:	9d 81       	ldd	r25, Y+5	; 0x05
    2a40:	0e 94 c1 01 	call	0x382	; 0x382 <__subsf3>
    2a44:	dc 01       	movw	r26, r24
    2a46:	cb 01       	movw	r24, r22
    2a48:	8a 83       	std	Y+2, r24	; 0x02
    2a4a:	9b 83       	std	Y+3, r25	; 0x03
    2a4c:	ac 83       	std	Y+4, r26	; 0x04
    2a4e:	bd 83       	std	Y+5, r27	; 0x05
	number *= 100;
    2a50:	6a 81       	ldd	r22, Y+2	; 0x02
    2a52:	7b 81       	ldd	r23, Y+3	; 0x03
    2a54:	8c 81       	ldd	r24, Y+4	; 0x04
    2a56:	9d 81       	ldd	r25, Y+5	; 0x05
    2a58:	20 e0       	ldi	r18, 0x00	; 0
    2a5a:	30 e0       	ldi	r19, 0x00	; 0
    2a5c:	48 ec       	ldi	r20, 0xC8	; 200
    2a5e:	52 e4       	ldi	r21, 0x42	; 66
    2a60:	0e 94 1f 02 	call	0x43e	; 0x43e <__mulsf3>
    2a64:	dc 01       	movw	r26, r24
    2a66:	cb 01       	movw	r24, r22
    2a68:	8a 83       	std	Y+2, r24	; 0x02
    2a6a:	9b 83       	std	Y+3, r25	; 0x03
    2a6c:	ac 83       	std	Y+4, r26	; 0x04
    2a6e:	bd 83       	std	Y+5, r27	; 0x05

	LCD_displayInt(number);
    2a70:	6a 81       	ldd	r22, Y+2	; 0x02
    2a72:	7b 81       	ldd	r23, Y+3	; 0x03
    2a74:	8c 81       	ldd	r24, Y+4	; 0x04
    2a76:	9d 81       	ldd	r25, Y+5	; 0x05
    2a78:	0e 94 49 00 	call	0x92	; 0x92 <__fixunssfsi>
    2a7c:	dc 01       	movw	r26, r24
    2a7e:	cb 01       	movw	r24, r22
    2a80:	bc 01       	movw	r22, r24
    2a82:	cd 01       	movw	r24, r26
    2a84:	0e 94 a1 14 	call	0x2942	; 0x2942 <LCD_displayInt>

}
    2a88:	0f 90       	pop	r0
    2a8a:	0f 90       	pop	r0
    2a8c:	0f 90       	pop	r0
    2a8e:	0f 90       	pop	r0
    2a90:	0f 90       	pop	r0
    2a92:	cf 91       	pop	r28
    2a94:	df 91       	pop	r29
    2a96:	08 95       	ret

00002a98 <LCD_staticdisplayString>:

static void LCD_staticdisplayString(u8* _char, lcd_animate_t animate, lcd_alignment_t align)
{
    2a98:	df 93       	push	r29
    2a9a:	cf 93       	push	r28
    2a9c:	cd b7       	in	r28, 0x3d	; 61
    2a9e:	de b7       	in	r29, 0x3e	; 62
    2aa0:	67 97       	sbiw	r28, 0x17	; 23
    2aa2:	0f b6       	in	r0, 0x3f	; 63
    2aa4:	f8 94       	cli
    2aa6:	de bf       	out	0x3e, r29	; 62
    2aa8:	0f be       	out	0x3f, r0	; 63
    2aaa:	cd bf       	out	0x3d, r28	; 61
    2aac:	9b 8b       	std	Y+19, r25	; 0x13
    2aae:	8a 8b       	std	Y+18, r24	; 0x12
    2ab0:	6c 8b       	std	Y+20, r22	; 0x14
    2ab2:	4d 8b       	std	Y+21, r20	; 0x15

	u8 size = strlen(_char);
    2ab4:	8a 89       	ldd	r24, Y+18	; 0x12
    2ab6:	9b 89       	ldd	r25, Y+19	; 0x13
    2ab8:	0e 94 22 2b 	call	0x5644	; 0x5644 <strlen>
    2abc:	89 8b       	std	Y+17, r24	; 0x11

	if (align)
    2abe:	8d 89       	ldd	r24, Y+21	; 0x15
    2ac0:	88 23       	and	r24, r24
    2ac2:	91 f1       	breq	.+100    	; 0x2b28 <LCD_staticdisplayString+0x90>
	{

		switch (alignment)
    2ac4:	80 91 3c 03 	lds	r24, 0x033C
    2ac8:	28 2f       	mov	r18, r24
    2aca:	30 e0       	ldi	r19, 0x00	; 0
    2acc:	3f 8b       	std	Y+23, r19	; 0x17
    2ace:	2e 8b       	std	Y+22, r18	; 0x16
    2ad0:	8e 89       	ldd	r24, Y+22	; 0x16
    2ad2:	9f 89       	ldd	r25, Y+23	; 0x17
    2ad4:	82 30       	cpi	r24, 0x02	; 2
    2ad6:	91 05       	cpc	r25, r1
    2ad8:	81 f0       	breq	.+32     	; 0x2afa <LCD_staticdisplayString+0x62>
    2ada:	2e 89       	ldd	r18, Y+22	; 0x16
    2adc:	3f 89       	ldd	r19, Y+23	; 0x17
    2ade:	23 30       	cpi	r18, 0x03	; 3
    2ae0:	31 05       	cpc	r19, r1
    2ae2:	c9 f0       	breq	.+50     	; 0x2b16 <LCD_staticdisplayString+0x7e>
    2ae4:	8e 89       	ldd	r24, Y+22	; 0x16
    2ae6:	9f 89       	ldd	r25, Y+23	; 0x17
    2ae8:	81 30       	cpi	r24, 0x01	; 1
    2aea:	91 05       	cpc	r25, r1
    2aec:	e9 f4       	brne	.+58     	; 0x2b28 <LCD_staticdisplayString+0x90>
		{

		case LCD_LEFT:
			LCD_setAddressPosition(row, 0);
    2aee:	80 91 58 03 	lds	r24, 0x0358
    2af2:	60 e0       	ldi	r22, 0x00	; 0
    2af4:	0e 94 8d 16 	call	0x2d1a	; 0x2d1a <LCD_setAddressPosition>
    2af8:	17 c0       	rjmp	.+46     	; 0x2b28 <LCD_staticdisplayString+0x90>
			break;
		case LCD_CENTER:
			LCD_setAddressPosition(row, 8 - (size / 2));
    2afa:	20 91 58 03 	lds	r18, 0x0358
    2afe:	89 89       	ldd	r24, Y+17	; 0x11
    2b00:	98 2f       	mov	r25, r24
    2b02:	96 95       	lsr	r25
    2b04:	88 e0       	ldi	r24, 0x08	; 8
    2b06:	38 2f       	mov	r19, r24
    2b08:	39 1b       	sub	r19, r25
    2b0a:	93 2f       	mov	r25, r19
    2b0c:	82 2f       	mov	r24, r18
    2b0e:	69 2f       	mov	r22, r25
    2b10:	0e 94 8d 16 	call	0x2d1a	; 0x2d1a <LCD_setAddressPosition>
    2b14:	09 c0       	rjmp	.+18     	; 0x2b28 <LCD_staticdisplayString+0x90>
			break;
		case LCD_RIGHT:
			LCD_setAddressPosition(row, 16 - size);
    2b16:	20 91 58 03 	lds	r18, 0x0358
    2b1a:	90 e1       	ldi	r25, 0x10	; 16
    2b1c:	89 89       	ldd	r24, Y+17	; 0x11
    2b1e:	98 1b       	sub	r25, r24
    2b20:	82 2f       	mov	r24, r18
    2b22:	69 2f       	mov	r22, r25
    2b24:	0e 94 8d 16 	call	0x2d1a	; 0x2d1a <LCD_setAddressPosition>

		}

	}

	for (u8* i = _char; *i != '\0'; i++)
    2b28:	8a 89       	ldd	r24, Y+18	; 0x12
    2b2a:	9b 89       	ldd	r25, Y+19	; 0x13
    2b2c:	98 8b       	std	Y+16, r25	; 0x10
    2b2e:	8f 87       	std	Y+15, r24	; 0x0f
    2b30:	80 c0       	rjmp	.+256    	; 0x2c32 <LCD_staticdisplayString+0x19a>
	{

		LCD_displayChar(*i);
    2b32:	ef 85       	ldd	r30, Y+15	; 0x0f
    2b34:	f8 89       	ldd	r31, Y+16	; 0x10
    2b36:	80 81       	ld	r24, Z
    2b38:	0e 94 87 14 	call	0x290e	; 0x290e <LCD_displayChar>
		if (animate == LCD_ANIMATE)
    2b3c:	8c 89       	ldd	r24, Y+20	; 0x14
    2b3e:	81 30       	cpi	r24, 0x01	; 1
    2b40:	09 f0       	breq	.+2      	; 0x2b44 <LCD_staticdisplayString+0xac>
    2b42:	72 c0       	rjmp	.+228    	; 0x2c28 <LCD_staticdisplayString+0x190>
    2b44:	80 e0       	ldi	r24, 0x00	; 0
    2b46:	90 e0       	ldi	r25, 0x00	; 0
    2b48:	a8 ec       	ldi	r26, 0xC8	; 200
    2b4a:	b2 e4       	ldi	r27, 0x42	; 66
    2b4c:	8b 87       	std	Y+11, r24	; 0x0b
    2b4e:	9c 87       	std	Y+12, r25	; 0x0c
    2b50:	ad 87       	std	Y+13, r26	; 0x0d
    2b52:	be 87       	std	Y+14, r27	; 0x0e
 */
void
_delay_ms(double __ms)
{
	uint16_t __ticks;
	double __tmp = ((F_CPU) / 4e3) * __ms;
    2b54:	6b 85       	ldd	r22, Y+11	; 0x0b
    2b56:	7c 85       	ldd	r23, Y+12	; 0x0c
    2b58:	8d 85       	ldd	r24, Y+13	; 0x0d
    2b5a:	9e 85       	ldd	r25, Y+14	; 0x0e
    2b5c:	20 e0       	ldi	r18, 0x00	; 0
    2b5e:	30 e0       	ldi	r19, 0x00	; 0
    2b60:	4a e7       	ldi	r20, 0x7A	; 122
    2b62:	55 e4       	ldi	r21, 0x45	; 69
    2b64:	0e 94 1f 02 	call	0x43e	; 0x43e <__mulsf3>
    2b68:	dc 01       	movw	r26, r24
    2b6a:	cb 01       	movw	r24, r22
    2b6c:	8f 83       	std	Y+7, r24	; 0x07
    2b6e:	98 87       	std	Y+8, r25	; 0x08
    2b70:	a9 87       	std	Y+9, r26	; 0x09
    2b72:	ba 87       	std	Y+10, r27	; 0x0a
	if (__tmp < 1.0)
    2b74:	6f 81       	ldd	r22, Y+7	; 0x07
    2b76:	78 85       	ldd	r23, Y+8	; 0x08
    2b78:	89 85       	ldd	r24, Y+9	; 0x09
    2b7a:	9a 85       	ldd	r25, Y+10	; 0x0a
    2b7c:	20 e0       	ldi	r18, 0x00	; 0
    2b7e:	30 e0       	ldi	r19, 0x00	; 0
    2b80:	40 e8       	ldi	r20, 0x80	; 128
    2b82:	5f e3       	ldi	r21, 0x3F	; 63
    2b84:	0e 94 25 04 	call	0x84a	; 0x84a <__ltsf2>
    2b88:	88 23       	and	r24, r24
    2b8a:	2c f4       	brge	.+10     	; 0x2b96 <LCD_staticdisplayString+0xfe>
		__ticks = 1;
    2b8c:	81 e0       	ldi	r24, 0x01	; 1
    2b8e:	90 e0       	ldi	r25, 0x00	; 0
    2b90:	9e 83       	std	Y+6, r25	; 0x06
    2b92:	8d 83       	std	Y+5, r24	; 0x05
    2b94:	3f c0       	rjmp	.+126    	; 0x2c14 <LCD_staticdisplayString+0x17c>
	else if (__tmp > 65535)
    2b96:	6f 81       	ldd	r22, Y+7	; 0x07
    2b98:	78 85       	ldd	r23, Y+8	; 0x08
    2b9a:	89 85       	ldd	r24, Y+9	; 0x09
    2b9c:	9a 85       	ldd	r25, Y+10	; 0x0a
    2b9e:	20 e0       	ldi	r18, 0x00	; 0
    2ba0:	3f ef       	ldi	r19, 0xFF	; 255
    2ba2:	4f e7       	ldi	r20, 0x7F	; 127
    2ba4:	57 e4       	ldi	r21, 0x47	; 71
    2ba6:	0e 94 c5 03 	call	0x78a	; 0x78a <__gtsf2>
    2baa:	18 16       	cp	r1, r24
    2bac:	4c f5       	brge	.+82     	; 0x2c00 <LCD_staticdisplayString+0x168>
	{
		//	__ticks = requested delay in 1/10 ms
		__ticks = (uint16_t) (__ms * 10.0);
    2bae:	6b 85       	ldd	r22, Y+11	; 0x0b
    2bb0:	7c 85       	ldd	r23, Y+12	; 0x0c
    2bb2:	8d 85       	ldd	r24, Y+13	; 0x0d
    2bb4:	9e 85       	ldd	r25, Y+14	; 0x0e
    2bb6:	20 e0       	ldi	r18, 0x00	; 0
    2bb8:	30 e0       	ldi	r19, 0x00	; 0
    2bba:	40 e2       	ldi	r20, 0x20	; 32
    2bbc:	51 e4       	ldi	r21, 0x41	; 65
    2bbe:	0e 94 1f 02 	call	0x43e	; 0x43e <__mulsf3>
    2bc2:	dc 01       	movw	r26, r24
    2bc4:	cb 01       	movw	r24, r22
    2bc6:	bc 01       	movw	r22, r24
    2bc8:	cd 01       	movw	r24, r26
    2bca:	0e 94 49 00 	call	0x92	; 0x92 <__fixunssfsi>
    2bce:	dc 01       	movw	r26, r24
    2bd0:	cb 01       	movw	r24, r22
    2bd2:	9e 83       	std	Y+6, r25	; 0x06
    2bd4:	8d 83       	std	Y+5, r24	; 0x05
    2bd6:	0f c0       	rjmp	.+30     	; 0x2bf6 <LCD_staticdisplayString+0x15e>
    2bd8:	80 e9       	ldi	r24, 0x90	; 144
    2bda:	91 e0       	ldi	r25, 0x01	; 1
    2bdc:	9c 83       	std	Y+4, r25	; 0x04
    2bde:	8b 83       	std	Y+3, r24	; 0x03
    2be0:	8b 81       	ldd	r24, Y+3	; 0x03
    2be2:	9c 81       	ldd	r25, Y+4	; 0x04
    2be4:	01 97       	sbiw	r24, 0x01	; 1
    2be6:	f1 f7       	brne	.-4      	; 0x2be4 <LCD_staticdisplayString+0x14c>
    2be8:	9c 83       	std	Y+4, r25	; 0x04
    2bea:	8b 83       	std	Y+3, r24	; 0x03
		while(__ticks)
		{
			// wait 1/10 ms
			_delay_loop_2(((F_CPU) / 4e3) / 10);
			__ticks --;
    2bec:	8d 81       	ldd	r24, Y+5	; 0x05
    2bee:	9e 81       	ldd	r25, Y+6	; 0x06
    2bf0:	01 97       	sbiw	r24, 0x01	; 1
    2bf2:	9e 83       	std	Y+6, r25	; 0x06
    2bf4:	8d 83       	std	Y+5, r24	; 0x05
		__ticks = 1;
	else if (__tmp > 65535)
	{
		//	__ticks = requested delay in 1/10 ms
		__ticks = (uint16_t) (__ms * 10.0);
		while(__ticks)
    2bf6:	8d 81       	ldd	r24, Y+5	; 0x05
    2bf8:	9e 81       	ldd	r25, Y+6	; 0x06
    2bfa:	00 97       	sbiw	r24, 0x00	; 0
    2bfc:	69 f7       	brne	.-38     	; 0x2bd8 <LCD_staticdisplayString+0x140>
    2bfe:	14 c0       	rjmp	.+40     	; 0x2c28 <LCD_staticdisplayString+0x190>
			__ticks --;
		}
		return;
	}
	else
		__ticks = (uint16_t)__tmp;
    2c00:	6f 81       	ldd	r22, Y+7	; 0x07
    2c02:	78 85       	ldd	r23, Y+8	; 0x08
    2c04:	89 85       	ldd	r24, Y+9	; 0x09
    2c06:	9a 85       	ldd	r25, Y+10	; 0x0a
    2c08:	0e 94 49 00 	call	0x92	; 0x92 <__fixunssfsi>
    2c0c:	dc 01       	movw	r26, r24
    2c0e:	cb 01       	movw	r24, r22
    2c10:	9e 83       	std	Y+6, r25	; 0x06
    2c12:	8d 83       	std	Y+5, r24	; 0x05
    2c14:	8d 81       	ldd	r24, Y+5	; 0x05
    2c16:	9e 81       	ldd	r25, Y+6	; 0x06
    2c18:	9a 83       	std	Y+2, r25	; 0x02
    2c1a:	89 83       	std	Y+1, r24	; 0x01
    2c1c:	89 81       	ldd	r24, Y+1	; 0x01
    2c1e:	9a 81       	ldd	r25, Y+2	; 0x02
    2c20:	01 97       	sbiw	r24, 0x01	; 1
    2c22:	f1 f7       	brne	.-4      	; 0x2c20 <LCD_staticdisplayString+0x188>
    2c24:	9a 83       	std	Y+2, r25	; 0x02
    2c26:	89 83       	std	Y+1, r24	; 0x01

		}

	}

	for (u8* i = _char; *i != '\0'; i++)
    2c28:	8f 85       	ldd	r24, Y+15	; 0x0f
    2c2a:	98 89       	ldd	r25, Y+16	; 0x10
    2c2c:	01 96       	adiw	r24, 0x01	; 1
    2c2e:	98 8b       	std	Y+16, r25	; 0x10
    2c30:	8f 87       	std	Y+15, r24	; 0x0f
    2c32:	ef 85       	ldd	r30, Y+15	; 0x0f
    2c34:	f8 89       	ldd	r31, Y+16	; 0x10
    2c36:	80 81       	ld	r24, Z
    2c38:	88 23       	and	r24, r24
    2c3a:	09 f0       	breq	.+2      	; 0x2c3e <LCD_staticdisplayString+0x1a6>
    2c3c:	7a cf       	rjmp	.-268    	; 0x2b32 <LCD_staticdisplayString+0x9a>
			_delay_ms(100);
		}

	}

}
    2c3e:	67 96       	adiw	r28, 0x17	; 23
    2c40:	0f b6       	in	r0, 0x3f	; 63
    2c42:	f8 94       	cli
    2c44:	de bf       	out	0x3e, r29	; 62
    2c46:	0f be       	out	0x3f, r0	; 63
    2c48:	cd bf       	out	0x3d, r28	; 61
    2c4a:	cf 91       	pop	r28
    2c4c:	df 91       	pop	r29
    2c4e:	08 95       	ret

00002c50 <LCD_displayString>:

void LCD_displayString(u8* _char)
{
    2c50:	df 93       	push	r29
    2c52:	cf 93       	push	r28
    2c54:	00 d0       	rcall	.+0      	; 0x2c56 <LCD_displayString+0x6>
    2c56:	cd b7       	in	r28, 0x3d	; 61
    2c58:	de b7       	in	r29, 0x3e	; 62
    2c5a:	9a 83       	std	Y+2, r25	; 0x02
    2c5c:	89 83       	std	Y+1, r24	; 0x01

	LCD_staticdisplayString(_char, LCD_NO_ANIMATE, alignment);
    2c5e:	20 91 3c 03 	lds	r18, 0x033C
    2c62:	89 81       	ldd	r24, Y+1	; 0x01
    2c64:	9a 81       	ldd	r25, Y+2	; 0x02
    2c66:	60 e0       	ldi	r22, 0x00	; 0
    2c68:	42 2f       	mov	r20, r18
    2c6a:	0e 94 4c 15 	call	0x2a98	; 0x2a98 <LCD_staticdisplayString>

}
    2c6e:	0f 90       	pop	r0
    2c70:	0f 90       	pop	r0
    2c72:	cf 91       	pop	r28
    2c74:	df 91       	pop	r29
    2c76:	08 95       	ret

00002c78 <LCD_displayStringWithAnimation>:

void LCD_displayStringWithAnimation(u8* _char)
{
    2c78:	df 93       	push	r29
    2c7a:	cf 93       	push	r28
    2c7c:	00 d0       	rcall	.+0      	; 0x2c7e <LCD_displayStringWithAnimation+0x6>
    2c7e:	cd b7       	in	r28, 0x3d	; 61
    2c80:	de b7       	in	r29, 0x3e	; 62
    2c82:	9a 83       	std	Y+2, r25	; 0x02
    2c84:	89 83       	std	Y+1, r24	; 0x01

	LCD_staticdisplayString(_char, LCD_ANIMATE, alignment);
    2c86:	20 91 3c 03 	lds	r18, 0x033C
    2c8a:	89 81       	ldd	r24, Y+1	; 0x01
    2c8c:	9a 81       	ldd	r25, Y+2	; 0x02
    2c8e:	61 e0       	ldi	r22, 0x01	; 1
    2c90:	42 2f       	mov	r20, r18
    2c92:	0e 94 4c 15 	call	0x2a98	; 0x2a98 <LCD_staticdisplayString>

}
    2c96:	0f 90       	pop	r0
    2c98:	0f 90       	pop	r0
    2c9a:	cf 91       	pop	r28
    2c9c:	df 91       	pop	r29
    2c9e:	08 95       	ret

00002ca0 <LCD_sendCmd>:

void LCD_sendCmd(u8 cmd)
{
    2ca0:	df 93       	push	r29
    2ca2:	cf 93       	push	r28
    2ca4:	0f 92       	push	r0
    2ca6:	cd b7       	in	r28, 0x3d	; 61
    2ca8:	de b7       	in	r29, 0x3e	; 62
    2caa:	89 83       	std	Y+1, r24	; 0x01

	// RS = 0 -> to get command
	Dio_writeChanel(DIO_PORTB, DIO_PIN1, DIO_LOW);
    2cac:	81 e0       	ldi	r24, 0x01	; 1
    2cae:	61 e0       	ldi	r22, 0x01	; 1
    2cb0:	40 e0       	ldi	r20, 0x00	; 0
    2cb2:	0e 94 a1 26 	call	0x4d42	; 0x4d42 <Dio_writeChanel>

	LCD_sendData(cmd);
    2cb6:	89 81       	ldd	r24, Y+1	; 0x01
    2cb8:	0e 94 65 14 	call	0x28ca	; 0x28ca <LCD_sendData>

}
    2cbc:	0f 90       	pop	r0
    2cbe:	cf 91       	pop	r28
    2cc0:	df 91       	pop	r29
    2cc2:	08 95       	ret

00002cc4 <LCD_ClearRow>:

void LCD_ClearRow(lcd_row_t rowNum)
{
    2cc4:	df 93       	push	r29
    2cc6:	cf 93       	push	r28
    2cc8:	00 d0       	rcall	.+0      	; 0x2cca <LCD_ClearRow+0x6>
    2cca:	cd b7       	in	r28, 0x3d	; 61
    2ccc:	de b7       	in	r29, 0x3e	; 62
    2cce:	8a 83       	std	Y+2, r24	; 0x02

	LCD_setAddressPosition(rowNum, 0);
    2cd0:	8a 81       	ldd	r24, Y+2	; 0x02
    2cd2:	60 e0       	ldi	r22, 0x00	; 0
    2cd4:	0e 94 8d 16 	call	0x2d1a	; 0x2d1a <LCD_setAddressPosition>

	for (u8 i = 0; i < 16; i++)
    2cd8:	19 82       	std	Y+1, r1	; 0x01
    2cda:	06 c0       	rjmp	.+12     	; 0x2ce8 <LCD_ClearRow+0x24>
		LCD_displayChar(' ');
    2cdc:	80 e2       	ldi	r24, 0x20	; 32
    2cde:	0e 94 87 14 	call	0x290e	; 0x290e <LCD_displayChar>
void LCD_ClearRow(lcd_row_t rowNum)
{

	LCD_setAddressPosition(rowNum, 0);

	for (u8 i = 0; i < 16; i++)
    2ce2:	89 81       	ldd	r24, Y+1	; 0x01
    2ce4:	8f 5f       	subi	r24, 0xFF	; 255
    2ce6:	89 83       	std	Y+1, r24	; 0x01
    2ce8:	89 81       	ldd	r24, Y+1	; 0x01
    2cea:	80 31       	cpi	r24, 0x10	; 16
    2cec:	b8 f3       	brcs	.-18     	; 0x2cdc <LCD_ClearRow+0x18>
		LCD_displayChar(' ');

	LCD_setAddressPosition(rowNum, 0);
    2cee:	8a 81       	ldd	r24, Y+2	; 0x02
    2cf0:	60 e0       	ldi	r22, 0x00	; 0
    2cf2:	0e 94 8d 16 	call	0x2d1a	; 0x2d1a <LCD_setAddressPosition>

}
    2cf6:	0f 90       	pop	r0
    2cf8:	0f 90       	pop	r0
    2cfa:	cf 91       	pop	r28
    2cfc:	df 91       	pop	r29
    2cfe:	08 95       	ret

00002d00 <LCD_setAlignment>:

void LCD_setAlignment(lcd_alignment_t align)
{
    2d00:	df 93       	push	r29
    2d02:	cf 93       	push	r28
    2d04:	0f 92       	push	r0
    2d06:	cd b7       	in	r28, 0x3d	; 61
    2d08:	de b7       	in	r29, 0x3e	; 62
    2d0a:	89 83       	std	Y+1, r24	; 0x01

	alignment = align;
    2d0c:	89 81       	ldd	r24, Y+1	; 0x01
    2d0e:	80 93 3c 03 	sts	0x033C, r24

}
    2d12:	0f 90       	pop	r0
    2d14:	cf 91       	pop	r28
    2d16:	df 91       	pop	r29
    2d18:	08 95       	ret

00002d1a <LCD_setAddressPosition>:

void LCD_setAddressPosition(u8 rowIn, u8 colIn)
{
    2d1a:	df 93       	push	r29
    2d1c:	cf 93       	push	r28
    2d1e:	00 d0       	rcall	.+0      	; 0x2d20 <LCD_setAddressPosition+0x6>
    2d20:	00 d0       	rcall	.+0      	; 0x2d22 <LCD_setAddressPosition+0x8>
    2d22:	cd b7       	in	r28, 0x3d	; 61
    2d24:	de b7       	in	r29, 0x3e	; 62
    2d26:	89 83       	std	Y+1, r24	; 0x01
    2d28:	6a 83       	std	Y+2, r22	; 0x02

	switch (rowIn)
    2d2a:	89 81       	ldd	r24, Y+1	; 0x01
    2d2c:	28 2f       	mov	r18, r24
    2d2e:	30 e0       	ldi	r19, 0x00	; 0
    2d30:	3c 83       	std	Y+4, r19	; 0x04
    2d32:	2b 83       	std	Y+3, r18	; 0x03
    2d34:	8b 81       	ldd	r24, Y+3	; 0x03
    2d36:	9c 81       	ldd	r25, Y+4	; 0x04
    2d38:	00 97       	sbiw	r24, 0x00	; 0
    2d3a:	31 f0       	breq	.+12     	; 0x2d48 <LCD_setAddressPosition+0x2e>
    2d3c:	2b 81       	ldd	r18, Y+3	; 0x03
    2d3e:	3c 81       	ldd	r19, Y+4	; 0x04
    2d40:	21 30       	cpi	r18, 0x01	; 1
    2d42:	31 05       	cpc	r19, r1
    2d44:	49 f0       	breq	.+18     	; 0x2d58 <LCD_setAddressPosition+0x3e>
    2d46:	0f c0       	rjmp	.+30     	; 0x2d66 <LCD_setAddressPosition+0x4c>
	{

	case LCD_ROW0:
		row = rowIn;
    2d48:	89 81       	ldd	r24, Y+1	; 0x01
    2d4a:	80 93 58 03 	sts	0x0358, r24
		LCD_sendCmd(LCD_ROW0_AD + colIn);
    2d4e:	8a 81       	ldd	r24, Y+2	; 0x02
    2d50:	80 58       	subi	r24, 0x80	; 128
    2d52:	0e 94 50 16 	call	0x2ca0	; 0x2ca0 <LCD_sendCmd>
    2d56:	07 c0       	rjmp	.+14     	; 0x2d66 <LCD_setAddressPosition+0x4c>
		break;

	case LCD_ROW1:
		row = rowIn;
    2d58:	89 81       	ldd	r24, Y+1	; 0x01
    2d5a:	80 93 58 03 	sts	0x0358, r24
		LCD_sendCmd(LCD_ROW1_AD + colIn);
    2d5e:	8a 81       	ldd	r24, Y+2	; 0x02
    2d60:	80 54       	subi	r24, 0x40	; 64
    2d62:	0e 94 50 16 	call	0x2ca0	; 0x2ca0 <LCD_sendCmd>
		break;

	}

}
    2d66:	0f 90       	pop	r0
    2d68:	0f 90       	pop	r0
    2d6a:	0f 90       	pop	r0
    2d6c:	0f 90       	pop	r0
    2d6e:	cf 91       	pop	r28
    2d70:	df 91       	pop	r29
    2d72:	08 95       	ret

00002d74 <Keypad_keypadInit>:
		{'*', '0', '#', 'D'}
};

void Keypad_keypadInit()

{
    2d74:	df 93       	push	r29
    2d76:	cf 93       	push	r28
    2d78:	cd b7       	in	r28, 0x3d	; 61
    2d7a:	de b7       	in	r29, 0x3e	; 62

	// Set row to input
	Dio_configChanel(DIO_PORTC, DIO_PIN3, DIO_INPUT);
    2d7c:	82 e0       	ldi	r24, 0x02	; 2
    2d7e:	63 e0       	ldi	r22, 0x03	; 3
    2d80:	40 e0       	ldi	r20, 0x00	; 0
    2d82:	0e 94 be 25 	call	0x4b7c	; 0x4b7c <Dio_configChanel>
	Dio_configChanel(DIO_PORTC, DIO_PIN4, DIO_INPUT);
    2d86:	82 e0       	ldi	r24, 0x02	; 2
    2d88:	64 e0       	ldi	r22, 0x04	; 4
    2d8a:	40 e0       	ldi	r20, 0x00	; 0
    2d8c:	0e 94 be 25 	call	0x4b7c	; 0x4b7c <Dio_configChanel>
	Dio_configChanel(DIO_PORTC, DIO_PIN5, DIO_INPUT);
    2d90:	82 e0       	ldi	r24, 0x02	; 2
    2d92:	65 e0       	ldi	r22, 0x05	; 5
    2d94:	40 e0       	ldi	r20, 0x00	; 0
    2d96:	0e 94 be 25 	call	0x4b7c	; 0x4b7c <Dio_configChanel>
	Dio_configChanel(DIO_PORTC, DIO_PIN6, DIO_INPUT);
    2d9a:	82 e0       	ldi	r24, 0x02	; 2
    2d9c:	66 e0       	ldi	r22, 0x06	; 6
    2d9e:	40 e0       	ldi	r20, 0x00	; 0
    2da0:	0e 94 be 25 	call	0x4b7c	; 0x4b7c <Dio_configChanel>

	// Set col to output
	Dio_configChanel(DIO_PORTB, DIO_PIN4, DIO_OUTPUT);
    2da4:	81 e0       	ldi	r24, 0x01	; 1
    2da6:	64 e0       	ldi	r22, 0x04	; 4
    2da8:	41 e0       	ldi	r20, 0x01	; 1
    2daa:	0e 94 be 25 	call	0x4b7c	; 0x4b7c <Dio_configChanel>
	Dio_configChanel(DIO_PORTB, DIO_PIN5, DIO_OUTPUT);
    2dae:	81 e0       	ldi	r24, 0x01	; 1
    2db0:	65 e0       	ldi	r22, 0x05	; 5
    2db2:	41 e0       	ldi	r20, 0x01	; 1
    2db4:	0e 94 be 25 	call	0x4b7c	; 0x4b7c <Dio_configChanel>
	Dio_configChanel(DIO_PORTB, DIO_PIN6, DIO_OUTPUT);
    2db8:	81 e0       	ldi	r24, 0x01	; 1
    2dba:	66 e0       	ldi	r22, 0x06	; 6
    2dbc:	41 e0       	ldi	r20, 0x01	; 1
    2dbe:	0e 94 be 25 	call	0x4b7c	; 0x4b7c <Dio_configChanel>
	Dio_configChanel(DIO_PORTB, DIO_PIN7, DIO_OUTPUT);
    2dc2:	81 e0       	ldi	r24, 0x01	; 1
    2dc4:	67 e0       	ldi	r22, 0x07	; 7
    2dc6:	41 e0       	ldi	r20, 0x01	; 1
    2dc8:	0e 94 be 25 	call	0x4b7c	; 0x4b7c <Dio_configChanel>

	// Set col to high
	Dio_writeChanel(DIO_PORTB, DIO_PIN4, DIO_HIGH);
    2dcc:	81 e0       	ldi	r24, 0x01	; 1
    2dce:	64 e0       	ldi	r22, 0x04	; 4
    2dd0:	41 e0       	ldi	r20, 0x01	; 1
    2dd2:	0e 94 a1 26 	call	0x4d42	; 0x4d42 <Dio_writeChanel>
	Dio_writeChanel(DIO_PORTB, DIO_PIN5, DIO_HIGH);
    2dd6:	81 e0       	ldi	r24, 0x01	; 1
    2dd8:	65 e0       	ldi	r22, 0x05	; 5
    2dda:	41 e0       	ldi	r20, 0x01	; 1
    2ddc:	0e 94 a1 26 	call	0x4d42	; 0x4d42 <Dio_writeChanel>
	Dio_writeChanel(DIO_PORTB, DIO_PIN6, DIO_HIGH);
    2de0:	81 e0       	ldi	r24, 0x01	; 1
    2de2:	66 e0       	ldi	r22, 0x06	; 6
    2de4:	41 e0       	ldi	r20, 0x01	; 1
    2de6:	0e 94 a1 26 	call	0x4d42	; 0x4d42 <Dio_writeChanel>
	Dio_writeChanel(DIO_PORTB, DIO_PIN7, DIO_HIGH);
    2dea:	81 e0       	ldi	r24, 0x01	; 1
    2dec:	67 e0       	ldi	r22, 0x07	; 7
    2dee:	41 e0       	ldi	r20, 0x01	; 1
    2df0:	0e 94 a1 26 	call	0x4d42	; 0x4d42 <Dio_writeChanel>

}
    2df4:	cf 91       	pop	r28
    2df6:	df 91       	pop	r29
    2df8:	08 95       	ret

00002dfa <Keypad_buttonIsPressed>:
boolean Keypad_buttonIsPressed()
{
    2dfa:	df 93       	push	r29
    2dfc:	cf 93       	push	r28
    2dfe:	0f 92       	push	r0
    2e00:	cd b7       	in	r28, 0x3d	; 61
    2e02:	de b7       	in	r29, 0x3e	; 62

	if (
    2e04:	82 e0       	ldi	r24, 0x02	; 2
    2e06:	63 e0       	ldi	r22, 0x03	; 3
    2e08:	0e 94 e0 27 	call	0x4fc0	; 0x4fc0 <Dio_udtreadChanel>
    2e0c:	88 23       	and	r24, r24
    2e0e:	91 f4       	brne	.+36     	; 0x2e34 <Keypad_buttonIsPressed+0x3a>
    2e10:	82 e0       	ldi	r24, 0x02	; 2
    2e12:	64 e0       	ldi	r22, 0x04	; 4
    2e14:	0e 94 e0 27 	call	0x4fc0	; 0x4fc0 <Dio_udtreadChanel>
    2e18:	88 23       	and	r24, r24
    2e1a:	61 f4       	brne	.+24     	; 0x2e34 <Keypad_buttonIsPressed+0x3a>
    2e1c:	82 e0       	ldi	r24, 0x02	; 2
    2e1e:	65 e0       	ldi	r22, 0x05	; 5
    2e20:	0e 94 e0 27 	call	0x4fc0	; 0x4fc0 <Dio_udtreadChanel>
    2e24:	88 23       	and	r24, r24
    2e26:	31 f4       	brne	.+12     	; 0x2e34 <Keypad_buttonIsPressed+0x3a>
    2e28:	82 e0       	ldi	r24, 0x02	; 2
    2e2a:	66 e0       	ldi	r22, 0x06	; 6
    2e2c:	0e 94 e0 27 	call	0x4fc0	; 0x4fc0 <Dio_udtreadChanel>
    2e30:	88 23       	and	r24, r24
    2e32:	19 f0       	breq	.+6      	; 0x2e3a <Keypad_buttonIsPressed+0x40>
			Dio_udtreadChanel(DIO_PORTC, DIO_PIN5) ||
			Dio_udtreadChanel(DIO_PORTC, DIO_PIN6)

	)
	{
		return TRUE;
    2e34:	81 e0       	ldi	r24, 0x01	; 1
    2e36:	89 83       	std	Y+1, r24	; 0x01
    2e38:	01 c0       	rjmp	.+2      	; 0x2e3c <Keypad_buttonIsPressed+0x42>
	}
	else
	{
		return FALSE;
    2e3a:	19 82       	std	Y+1, r1	; 0x01
    2e3c:	89 81       	ldd	r24, Y+1	; 0x01
	}

}
    2e3e:	0f 90       	pop	r0
    2e40:	cf 91       	pop	r28
    2e42:	df 91       	pop	r29
    2e44:	08 95       	ret

00002e46 <Keypad_getButton>:

u8 Keypad_getButton()
{
    2e46:	df 93       	push	r29
    2e48:	cf 93       	push	r28
    2e4a:	cd b7       	in	r28, 0x3d	; 61
    2e4c:	de b7       	in	r29, 0x3e	; 62
    2e4e:	6f 97       	sbiw	r28, 0x1f	; 31
    2e50:	0f b6       	in	r0, 0x3f	; 63
    2e52:	f8 94       	cli
    2e54:	de bf       	out	0x3e, r29	; 62
    2e56:	0f be       	out	0x3f, r0	; 63
    2e58:	cd bf       	out	0x3d, r28	; 61
    2e5a:	80 e0       	ldi	r24, 0x00	; 0
    2e5c:	90 e0       	ldi	r25, 0x00	; 0
    2e5e:	a8 ec       	ldi	r26, 0xC8	; 200
    2e60:	b1 e4       	ldi	r27, 0x41	; 65
    2e62:	89 8f       	std	Y+25, r24	; 0x19
    2e64:	9a 8f       	std	Y+26, r25	; 0x1a
    2e66:	ab 8f       	std	Y+27, r26	; 0x1b
    2e68:	bc 8f       	std	Y+28, r27	; 0x1c
 */
void
_delay_ms(double __ms)
{
	uint16_t __ticks;
	double __tmp = ((F_CPU) / 4e3) * __ms;
    2e6a:	69 8d       	ldd	r22, Y+25	; 0x19
    2e6c:	7a 8d       	ldd	r23, Y+26	; 0x1a
    2e6e:	8b 8d       	ldd	r24, Y+27	; 0x1b
    2e70:	9c 8d       	ldd	r25, Y+28	; 0x1c
    2e72:	20 e0       	ldi	r18, 0x00	; 0
    2e74:	30 e0       	ldi	r19, 0x00	; 0
    2e76:	4a e7       	ldi	r20, 0x7A	; 122
    2e78:	55 e4       	ldi	r21, 0x45	; 69
    2e7a:	0e 94 1f 02 	call	0x43e	; 0x43e <__mulsf3>
    2e7e:	dc 01       	movw	r26, r24
    2e80:	cb 01       	movw	r24, r22
    2e82:	8d 8b       	std	Y+21, r24	; 0x15
    2e84:	9e 8b       	std	Y+22, r25	; 0x16
    2e86:	af 8b       	std	Y+23, r26	; 0x17
    2e88:	b8 8f       	std	Y+24, r27	; 0x18
	if (__tmp < 1.0)
    2e8a:	6d 89       	ldd	r22, Y+21	; 0x15
    2e8c:	7e 89       	ldd	r23, Y+22	; 0x16
    2e8e:	8f 89       	ldd	r24, Y+23	; 0x17
    2e90:	98 8d       	ldd	r25, Y+24	; 0x18
    2e92:	20 e0       	ldi	r18, 0x00	; 0
    2e94:	30 e0       	ldi	r19, 0x00	; 0
    2e96:	40 e8       	ldi	r20, 0x80	; 128
    2e98:	5f e3       	ldi	r21, 0x3F	; 63
    2e9a:	0e 94 25 04 	call	0x84a	; 0x84a <__ltsf2>
    2e9e:	88 23       	and	r24, r24
    2ea0:	2c f4       	brge	.+10     	; 0x2eac <Keypad_getButton+0x66>
		__ticks = 1;
    2ea2:	81 e0       	ldi	r24, 0x01	; 1
    2ea4:	90 e0       	ldi	r25, 0x00	; 0
    2ea6:	9c 8b       	std	Y+20, r25	; 0x14
    2ea8:	8b 8b       	std	Y+19, r24	; 0x13
    2eaa:	3f c0       	rjmp	.+126    	; 0x2f2a <Keypad_getButton+0xe4>
	else if (__tmp > 65535)
    2eac:	6d 89       	ldd	r22, Y+21	; 0x15
    2eae:	7e 89       	ldd	r23, Y+22	; 0x16
    2eb0:	8f 89       	ldd	r24, Y+23	; 0x17
    2eb2:	98 8d       	ldd	r25, Y+24	; 0x18
    2eb4:	20 e0       	ldi	r18, 0x00	; 0
    2eb6:	3f ef       	ldi	r19, 0xFF	; 255
    2eb8:	4f e7       	ldi	r20, 0x7F	; 127
    2eba:	57 e4       	ldi	r21, 0x47	; 71
    2ebc:	0e 94 c5 03 	call	0x78a	; 0x78a <__gtsf2>
    2ec0:	18 16       	cp	r1, r24
    2ec2:	4c f5       	brge	.+82     	; 0x2f16 <Keypad_getButton+0xd0>
	{
		//	__ticks = requested delay in 1/10 ms
		__ticks = (uint16_t) (__ms * 10.0);
    2ec4:	69 8d       	ldd	r22, Y+25	; 0x19
    2ec6:	7a 8d       	ldd	r23, Y+26	; 0x1a
    2ec8:	8b 8d       	ldd	r24, Y+27	; 0x1b
    2eca:	9c 8d       	ldd	r25, Y+28	; 0x1c
    2ecc:	20 e0       	ldi	r18, 0x00	; 0
    2ece:	30 e0       	ldi	r19, 0x00	; 0
    2ed0:	40 e2       	ldi	r20, 0x20	; 32
    2ed2:	51 e4       	ldi	r21, 0x41	; 65
    2ed4:	0e 94 1f 02 	call	0x43e	; 0x43e <__mulsf3>
    2ed8:	dc 01       	movw	r26, r24
    2eda:	cb 01       	movw	r24, r22
    2edc:	bc 01       	movw	r22, r24
    2ede:	cd 01       	movw	r24, r26
    2ee0:	0e 94 49 00 	call	0x92	; 0x92 <__fixunssfsi>
    2ee4:	dc 01       	movw	r26, r24
    2ee6:	cb 01       	movw	r24, r22
    2ee8:	9c 8b       	std	Y+20, r25	; 0x14
    2eea:	8b 8b       	std	Y+19, r24	; 0x13
    2eec:	0f c0       	rjmp	.+30     	; 0x2f0c <Keypad_getButton+0xc6>
    2eee:	80 e9       	ldi	r24, 0x90	; 144
    2ef0:	91 e0       	ldi	r25, 0x01	; 1
    2ef2:	9a 8b       	std	Y+18, r25	; 0x12
    2ef4:	89 8b       	std	Y+17, r24	; 0x11
    2ef6:	89 89       	ldd	r24, Y+17	; 0x11
    2ef8:	9a 89       	ldd	r25, Y+18	; 0x12
    2efa:	01 97       	sbiw	r24, 0x01	; 1
    2efc:	f1 f7       	brne	.-4      	; 0x2efa <Keypad_getButton+0xb4>
    2efe:	9a 8b       	std	Y+18, r25	; 0x12
    2f00:	89 8b       	std	Y+17, r24	; 0x11
		while(__ticks)
		{
			// wait 1/10 ms
			_delay_loop_2(((F_CPU) / 4e3) / 10);
			__ticks --;
    2f02:	8b 89       	ldd	r24, Y+19	; 0x13
    2f04:	9c 89       	ldd	r25, Y+20	; 0x14
    2f06:	01 97       	sbiw	r24, 0x01	; 1
    2f08:	9c 8b       	std	Y+20, r25	; 0x14
    2f0a:	8b 8b       	std	Y+19, r24	; 0x13
		__ticks = 1;
	else if (__tmp > 65535)
	{
		//	__ticks = requested delay in 1/10 ms
		__ticks = (uint16_t) (__ms * 10.0);
		while(__ticks)
    2f0c:	8b 89       	ldd	r24, Y+19	; 0x13
    2f0e:	9c 89       	ldd	r25, Y+20	; 0x14
    2f10:	00 97       	sbiw	r24, 0x00	; 0
    2f12:	69 f7       	brne	.-38     	; 0x2eee <Keypad_getButton+0xa8>
    2f14:	14 c0       	rjmp	.+40     	; 0x2f3e <Keypad_getButton+0xf8>
			__ticks --;
		}
		return;
	}
	else
		__ticks = (uint16_t)__tmp;
    2f16:	6d 89       	ldd	r22, Y+21	; 0x15
    2f18:	7e 89       	ldd	r23, Y+22	; 0x16
    2f1a:	8f 89       	ldd	r24, Y+23	; 0x17
    2f1c:	98 8d       	ldd	r25, Y+24	; 0x18
    2f1e:	0e 94 49 00 	call	0x92	; 0x92 <__fixunssfsi>
    2f22:	dc 01       	movw	r26, r24
    2f24:	cb 01       	movw	r24, r22
    2f26:	9c 8b       	std	Y+20, r25	; 0x14
    2f28:	8b 8b       	std	Y+19, r24	; 0x13
    2f2a:	8b 89       	ldd	r24, Y+19	; 0x13
    2f2c:	9c 89       	ldd	r25, Y+20	; 0x14
    2f2e:	98 8b       	std	Y+16, r25	; 0x10
    2f30:	8f 87       	std	Y+15, r24	; 0x0f
    2f32:	8f 85       	ldd	r24, Y+15	; 0x0f
    2f34:	98 89       	ldd	r25, Y+16	; 0x10
    2f36:	01 97       	sbiw	r24, 0x01	; 1
    2f38:	f1 f7       	brne	.-4      	; 0x2f36 <Keypad_getButton+0xf0>
    2f3a:	98 8b       	std	Y+16, r25	; 0x10
    2f3c:	8f 87       	std	Y+15, r24	; 0x0f

	// To add delay between multiple inputs, This works well with proteus
	_delay_ms(25);

	keypad_row_t row = KEYPAD_INVALID;
    2f3e:	8f ef       	ldi	r24, 0xFF	; 255
    2f40:	8e 8f       	std	Y+30, r24	; 0x1e
	keypad_col_t col = KEYPAD_INVALID;
    2f42:	8f ef       	ldi	r24, 0xFF	; 255
    2f44:	8d 8f       	std	Y+29, r24	; 0x1d

	row = Keypad_getRow();
    2f46:	0e 94 4b 18 	call	0x3096	; 0x3096 <Keypad_getRow>
    2f4a:	8e 8f       	std	Y+30, r24	; 0x1e

	if (row == KEYPAD_INVALID)
    2f4c:	8e 8d       	ldd	r24, Y+30	; 0x1e
    2f4e:	8f 3f       	cpi	r24, 0xFF	; 255
    2f50:	19 f4       	brne	.+6      	; 0x2f58 <Keypad_getButton+0x112>
		return KEYPAD_INVALID;
    2f52:	8f ef       	ldi	r24, 0xFF	; 255
    2f54:	8f 8f       	std	Y+31, r24	; 0x1f
    2f56:	95 c0       	rjmp	.+298    	; 0x3082 <Keypad_getButton+0x23c>

	col = Keypad_getCol(row);
    2f58:	8e 8d       	ldd	r24, Y+30	; 0x1e
    2f5a:	0e 94 7a 18 	call	0x30f4	; 0x30f4 <Keypad_getCol>
    2f5e:	8d 8f       	std	Y+29, r24	; 0x1d

	if (row == KEYPAD_INVALID || col == KEYPAD_INVALID)
    2f60:	8e 8d       	ldd	r24, Y+30	; 0x1e
    2f62:	8f 3f       	cpi	r24, 0xFF	; 255
    2f64:	19 f0       	breq	.+6      	; 0x2f6c <Keypad_getButton+0x126>
    2f66:	8d 8d       	ldd	r24, Y+29	; 0x1d
    2f68:	8f 3f       	cpi	r24, 0xFF	; 255
    2f6a:	19 f4       	brne	.+6      	; 0x2f72 <Keypad_getButton+0x12c>
		return KEYPAD_INVALID;
    2f6c:	8f ef       	ldi	r24, 0xFF	; 255
    2f6e:	8f 8f       	std	Y+31, r24	; 0x1f
    2f70:	88 c0       	rjmp	.+272    	; 0x3082 <Keypad_getButton+0x23c>

	while (Keypad_buttonIsPressed() == TRUE);
    2f72:	0e 94 fd 16 	call	0x2dfa	; 0x2dfa <Keypad_buttonIsPressed>
    2f76:	81 30       	cpi	r24, 0x01	; 1
    2f78:	e1 f3       	breq	.-8      	; 0x2f72 <Keypad_getButton+0x12c>
    2f7a:	80 e0       	ldi	r24, 0x00	; 0
    2f7c:	90 e0       	ldi	r25, 0x00	; 0
    2f7e:	a0 ea       	ldi	r26, 0xA0	; 160
    2f80:	b0 e4       	ldi	r27, 0x40	; 64
    2f82:	8b 87       	std	Y+11, r24	; 0x0b
    2f84:	9c 87       	std	Y+12, r25	; 0x0c
    2f86:	ad 87       	std	Y+13, r26	; 0x0d
    2f88:	be 87       	std	Y+14, r27	; 0x0e
 */
void
_delay_ms(double __ms)
{
	uint16_t __ticks;
	double __tmp = ((F_CPU) / 4e3) * __ms;
    2f8a:	6b 85       	ldd	r22, Y+11	; 0x0b
    2f8c:	7c 85       	ldd	r23, Y+12	; 0x0c
    2f8e:	8d 85       	ldd	r24, Y+13	; 0x0d
    2f90:	9e 85       	ldd	r25, Y+14	; 0x0e
    2f92:	20 e0       	ldi	r18, 0x00	; 0
    2f94:	30 e0       	ldi	r19, 0x00	; 0
    2f96:	4a e7       	ldi	r20, 0x7A	; 122
    2f98:	55 e4       	ldi	r21, 0x45	; 69
    2f9a:	0e 94 1f 02 	call	0x43e	; 0x43e <__mulsf3>
    2f9e:	dc 01       	movw	r26, r24
    2fa0:	cb 01       	movw	r24, r22
    2fa2:	8f 83       	std	Y+7, r24	; 0x07
    2fa4:	98 87       	std	Y+8, r25	; 0x08
    2fa6:	a9 87       	std	Y+9, r26	; 0x09
    2fa8:	ba 87       	std	Y+10, r27	; 0x0a
	if (__tmp < 1.0)
    2faa:	6f 81       	ldd	r22, Y+7	; 0x07
    2fac:	78 85       	ldd	r23, Y+8	; 0x08
    2fae:	89 85       	ldd	r24, Y+9	; 0x09
    2fb0:	9a 85       	ldd	r25, Y+10	; 0x0a
    2fb2:	20 e0       	ldi	r18, 0x00	; 0
    2fb4:	30 e0       	ldi	r19, 0x00	; 0
    2fb6:	40 e8       	ldi	r20, 0x80	; 128
    2fb8:	5f e3       	ldi	r21, 0x3F	; 63
    2fba:	0e 94 25 04 	call	0x84a	; 0x84a <__ltsf2>
    2fbe:	88 23       	and	r24, r24
    2fc0:	2c f4       	brge	.+10     	; 0x2fcc <Keypad_getButton+0x186>
		__ticks = 1;
    2fc2:	81 e0       	ldi	r24, 0x01	; 1
    2fc4:	90 e0       	ldi	r25, 0x00	; 0
    2fc6:	9e 83       	std	Y+6, r25	; 0x06
    2fc8:	8d 83       	std	Y+5, r24	; 0x05
    2fca:	3f c0       	rjmp	.+126    	; 0x304a <Keypad_getButton+0x204>
	else if (__tmp > 65535)
    2fcc:	6f 81       	ldd	r22, Y+7	; 0x07
    2fce:	78 85       	ldd	r23, Y+8	; 0x08
    2fd0:	89 85       	ldd	r24, Y+9	; 0x09
    2fd2:	9a 85       	ldd	r25, Y+10	; 0x0a
    2fd4:	20 e0       	ldi	r18, 0x00	; 0
    2fd6:	3f ef       	ldi	r19, 0xFF	; 255
    2fd8:	4f e7       	ldi	r20, 0x7F	; 127
    2fda:	57 e4       	ldi	r21, 0x47	; 71
    2fdc:	0e 94 c5 03 	call	0x78a	; 0x78a <__gtsf2>
    2fe0:	18 16       	cp	r1, r24
    2fe2:	4c f5       	brge	.+82     	; 0x3036 <Keypad_getButton+0x1f0>
	{
		//	__ticks = requested delay in 1/10 ms
		__ticks = (uint16_t) (__ms * 10.0);
    2fe4:	6b 85       	ldd	r22, Y+11	; 0x0b
    2fe6:	7c 85       	ldd	r23, Y+12	; 0x0c
    2fe8:	8d 85       	ldd	r24, Y+13	; 0x0d
    2fea:	9e 85       	ldd	r25, Y+14	; 0x0e
    2fec:	20 e0       	ldi	r18, 0x00	; 0
    2fee:	30 e0       	ldi	r19, 0x00	; 0
    2ff0:	40 e2       	ldi	r20, 0x20	; 32
    2ff2:	51 e4       	ldi	r21, 0x41	; 65
    2ff4:	0e 94 1f 02 	call	0x43e	; 0x43e <__mulsf3>
    2ff8:	dc 01       	movw	r26, r24
    2ffa:	cb 01       	movw	r24, r22
    2ffc:	bc 01       	movw	r22, r24
    2ffe:	cd 01       	movw	r24, r26
    3000:	0e 94 49 00 	call	0x92	; 0x92 <__fixunssfsi>
    3004:	dc 01       	movw	r26, r24
    3006:	cb 01       	movw	r24, r22
    3008:	9e 83       	std	Y+6, r25	; 0x06
    300a:	8d 83       	std	Y+5, r24	; 0x05
    300c:	0f c0       	rjmp	.+30     	; 0x302c <Keypad_getButton+0x1e6>
    300e:	80 e9       	ldi	r24, 0x90	; 144
    3010:	91 e0       	ldi	r25, 0x01	; 1
    3012:	9c 83       	std	Y+4, r25	; 0x04
    3014:	8b 83       	std	Y+3, r24	; 0x03
    3016:	8b 81       	ldd	r24, Y+3	; 0x03
    3018:	9c 81       	ldd	r25, Y+4	; 0x04
    301a:	01 97       	sbiw	r24, 0x01	; 1
    301c:	f1 f7       	brne	.-4      	; 0x301a <Keypad_getButton+0x1d4>
    301e:	9c 83       	std	Y+4, r25	; 0x04
    3020:	8b 83       	std	Y+3, r24	; 0x03
		while(__ticks)
		{
			// wait 1/10 ms
			_delay_loop_2(((F_CPU) / 4e3) / 10);
			__ticks --;
    3022:	8d 81       	ldd	r24, Y+5	; 0x05
    3024:	9e 81       	ldd	r25, Y+6	; 0x06
    3026:	01 97       	sbiw	r24, 0x01	; 1
    3028:	9e 83       	std	Y+6, r25	; 0x06
    302a:	8d 83       	std	Y+5, r24	; 0x05
		__ticks = 1;
	else if (__tmp > 65535)
	{
		//	__ticks = requested delay in 1/10 ms
		__ticks = (uint16_t) (__ms * 10.0);
		while(__ticks)
    302c:	8d 81       	ldd	r24, Y+5	; 0x05
    302e:	9e 81       	ldd	r25, Y+6	; 0x06
    3030:	00 97       	sbiw	r24, 0x00	; 0
    3032:	69 f7       	brne	.-38     	; 0x300e <Keypad_getButton+0x1c8>
    3034:	14 c0       	rjmp	.+40     	; 0x305e <Keypad_getButton+0x218>
			__ticks --;
		}
		return;
	}
	else
		__ticks = (uint16_t)__tmp;
    3036:	6f 81       	ldd	r22, Y+7	; 0x07
    3038:	78 85       	ldd	r23, Y+8	; 0x08
    303a:	89 85       	ldd	r24, Y+9	; 0x09
    303c:	9a 85       	ldd	r25, Y+10	; 0x0a
    303e:	0e 94 49 00 	call	0x92	; 0x92 <__fixunssfsi>
    3042:	dc 01       	movw	r26, r24
    3044:	cb 01       	movw	r24, r22
    3046:	9e 83       	std	Y+6, r25	; 0x06
    3048:	8d 83       	std	Y+5, r24	; 0x05
    304a:	8d 81       	ldd	r24, Y+5	; 0x05
    304c:	9e 81       	ldd	r25, Y+6	; 0x06
    304e:	9a 83       	std	Y+2, r25	; 0x02
    3050:	89 83       	std	Y+1, r24	; 0x01
    3052:	89 81       	ldd	r24, Y+1	; 0x01
    3054:	9a 81       	ldd	r25, Y+2	; 0x02
    3056:	01 97       	sbiw	r24, 0x01	; 1
    3058:	f1 f7       	brne	.-4      	; 0x3056 <Keypad_getButton+0x210>
    305a:	9a 83       	std	Y+2, r25	; 0x02
    305c:	89 83       	std	Y+1, r24	; 0x01
	_delay_ms(5);

	return Keypad_Layout[row][col]; // || (row << 4) | col
    305e:	8e 8d       	ldd	r24, Y+30	; 0x1e
    3060:	48 2f       	mov	r20, r24
    3062:	50 e0       	ldi	r21, 0x00	; 0
    3064:	8d 8d       	ldd	r24, Y+29	; 0x1d
    3066:	28 2f       	mov	r18, r24
    3068:	30 e0       	ldi	r19, 0x00	; 0
    306a:	ca 01       	movw	r24, r20
    306c:	88 0f       	add	r24, r24
    306e:	99 1f       	adc	r25, r25
    3070:	88 0f       	add	r24, r24
    3072:	99 1f       	adc	r25, r25
    3074:	82 0f       	add	r24, r18
    3076:	93 1f       	adc	r25, r19
    3078:	fc 01       	movw	r30, r24
    307a:	e3 5c       	subi	r30, 0xC3	; 195
    307c:	fc 4f       	sbci	r31, 0xFC	; 252
    307e:	80 81       	ld	r24, Z
    3080:	8f 8f       	std	Y+31, r24	; 0x1f
    3082:	8f 8d       	ldd	r24, Y+31	; 0x1f

}
    3084:	6f 96       	adiw	r28, 0x1f	; 31
    3086:	0f b6       	in	r0, 0x3f	; 63
    3088:	f8 94       	cli
    308a:	de bf       	out	0x3e, r29	; 62
    308c:	0f be       	out	0x3f, r0	; 63
    308e:	cd bf       	out	0x3d, r28	; 61
    3090:	cf 91       	pop	r28
    3092:	df 91       	pop	r29
    3094:	08 95       	ret

00003096 <Keypad_getRow>:

keypad_row_t Keypad_getRow()
{
    3096:	df 93       	push	r29
    3098:	cf 93       	push	r28
    309a:	0f 92       	push	r0
    309c:	cd b7       	in	r28, 0x3d	; 61
    309e:	de b7       	in	r29, 0x3e	; 62

	if (Dio_udtreadChanel(DIO_PORTC, DIO_PIN3) == 1)
    30a0:	82 e0       	ldi	r24, 0x02	; 2
    30a2:	63 e0       	ldi	r22, 0x03	; 3
    30a4:	0e 94 e0 27 	call	0x4fc0	; 0x4fc0 <Dio_udtreadChanel>
    30a8:	81 30       	cpi	r24, 0x01	; 1
    30aa:	11 f4       	brne	.+4      	; 0x30b0 <Keypad_getRow+0x1a>
	{
//		LCD_displayInt(KEYPAD_ROW0);
		return KEYPAD_ROW0;
    30ac:	19 82       	std	Y+1, r1	; 0x01
    30ae:	1d c0       	rjmp	.+58     	; 0x30ea <Keypad_getRow+0x54>
	}
	else if (Dio_udtreadChanel(DIO_PORTC, DIO_PIN4) == 1)
    30b0:	82 e0       	ldi	r24, 0x02	; 2
    30b2:	64 e0       	ldi	r22, 0x04	; 4
    30b4:	0e 94 e0 27 	call	0x4fc0	; 0x4fc0 <Dio_udtreadChanel>
    30b8:	81 30       	cpi	r24, 0x01	; 1
    30ba:	19 f4       	brne	.+6      	; 0x30c2 <Keypad_getRow+0x2c>
	{
//		LCD_displayInt(KEYPAD_ROW1);
		return KEYPAD_ROW1;
    30bc:	81 e0       	ldi	r24, 0x01	; 1
    30be:	89 83       	std	Y+1, r24	; 0x01
    30c0:	14 c0       	rjmp	.+40     	; 0x30ea <Keypad_getRow+0x54>
	}
	else if (Dio_udtreadChanel(DIO_PORTC, DIO_PIN5) == 1)
    30c2:	82 e0       	ldi	r24, 0x02	; 2
    30c4:	65 e0       	ldi	r22, 0x05	; 5
    30c6:	0e 94 e0 27 	call	0x4fc0	; 0x4fc0 <Dio_udtreadChanel>
    30ca:	81 30       	cpi	r24, 0x01	; 1
    30cc:	19 f4       	brne	.+6      	; 0x30d4 <Keypad_getRow+0x3e>
	{
//		LCD_displayInt(KEYPAD_ROW2);
		return KEYPAD_ROW2;
    30ce:	82 e0       	ldi	r24, 0x02	; 2
    30d0:	89 83       	std	Y+1, r24	; 0x01
    30d2:	0b c0       	rjmp	.+22     	; 0x30ea <Keypad_getRow+0x54>
	}
	else if (Dio_udtreadChanel(DIO_PORTC, DIO_PIN6) == 1)
    30d4:	82 e0       	ldi	r24, 0x02	; 2
    30d6:	66 e0       	ldi	r22, 0x06	; 6
    30d8:	0e 94 e0 27 	call	0x4fc0	; 0x4fc0 <Dio_udtreadChanel>
    30dc:	81 30       	cpi	r24, 0x01	; 1
    30de:	19 f4       	brne	.+6      	; 0x30e6 <Keypad_getRow+0x50>
	{
//		LCD_displayInt(KEYPAD_ROW3);
		return KEYPAD_ROW3;
    30e0:	83 e0       	ldi	r24, 0x03	; 3
    30e2:	89 83       	std	Y+1, r24	; 0x01
    30e4:	02 c0       	rjmp	.+4      	; 0x30ea <Keypad_getRow+0x54>
	}
	else
		return KEYPAD_INVALID;
    30e6:	8f ef       	ldi	r24, 0xFF	; 255
    30e8:	89 83       	std	Y+1, r24	; 0x01
    30ea:	89 81       	ldd	r24, Y+1	; 0x01

}
    30ec:	0f 90       	pop	r0
    30ee:	cf 91       	pop	r28
    30f0:	df 91       	pop	r29
    30f2:	08 95       	ret

000030f4 <Keypad_getCol>:

keypad_col_t Keypad_getCol(keypad_row_t row)
{
    30f4:	df 93       	push	r29
    30f6:	cf 93       	push	r28
    30f8:	00 d0       	rcall	.+0      	; 0x30fa <Keypad_getCol+0x6>
    30fa:	cd b7       	in	r28, 0x3d	; 61
    30fc:	de b7       	in	r29, 0x3e	; 62
    30fe:	89 83       	std	Y+1, r24	; 0x01
	// Switch every col to 0 and check if row still high
	// If row switched to low, return col


	// Col 1
	Dio_writeChanel(DIO_PORTB, DIO_PIN4, DIO_LOW);
    3100:	81 e0       	ldi	r24, 0x01	; 1
    3102:	64 e0       	ldi	r22, 0x04	; 4
    3104:	40 e0       	ldi	r20, 0x00	; 0
    3106:	0e 94 a1 26 	call	0x4d42	; 0x4d42 <Dio_writeChanel>
	if (row != Keypad_getRow())
    310a:	0e 94 4b 18 	call	0x3096	; 0x3096 <Keypad_getRow>
    310e:	98 2f       	mov	r25, r24
    3110:	89 81       	ldd	r24, Y+1	; 0x01
    3112:	98 17       	cp	r25, r24
    3114:	39 f0       	breq	.+14     	; 0x3124 <Keypad_getCol+0x30>
	{

		Dio_writeChanel(DIO_PORTB, DIO_PIN4, DIO_HIGH);
    3116:	81 e0       	ldi	r24, 0x01	; 1
    3118:	64 e0       	ldi	r22, 0x04	; 4
    311a:	41 e0       	ldi	r20, 0x01	; 1
    311c:	0e 94 a1 26 	call	0x4d42	; 0x4d42 <Dio_writeChanel>
		return KEYPAD_COL0;
    3120:	1a 82       	std	Y+2, r1	; 0x02
    3122:	4f c0       	rjmp	.+158    	; 0x31c2 <Keypad_getCol+0xce>

	}
	Dio_writeChanel(DIO_PORTB, DIO_PIN4, DIO_HIGH);
    3124:	81 e0       	ldi	r24, 0x01	; 1
    3126:	64 e0       	ldi	r22, 0x04	; 4
    3128:	41 e0       	ldi	r20, 0x01	; 1
    312a:	0e 94 a1 26 	call	0x4d42	; 0x4d42 <Dio_writeChanel>

	// Col 2
	Dio_writeChanel(DIO_PORTB, DIO_PIN5, DIO_LOW);
    312e:	81 e0       	ldi	r24, 0x01	; 1
    3130:	65 e0       	ldi	r22, 0x05	; 5
    3132:	40 e0       	ldi	r20, 0x00	; 0
    3134:	0e 94 a1 26 	call	0x4d42	; 0x4d42 <Dio_writeChanel>
	if (row != Keypad_getRow())
    3138:	0e 94 4b 18 	call	0x3096	; 0x3096 <Keypad_getRow>
    313c:	98 2f       	mov	r25, r24
    313e:	89 81       	ldd	r24, Y+1	; 0x01
    3140:	98 17       	cp	r25, r24
    3142:	41 f0       	breq	.+16     	; 0x3154 <Keypad_getCol+0x60>
	{

		Dio_writeChanel(DIO_PORTB, DIO_PIN5, DIO_HIGH);
    3144:	81 e0       	ldi	r24, 0x01	; 1
    3146:	65 e0       	ldi	r22, 0x05	; 5
    3148:	41 e0       	ldi	r20, 0x01	; 1
    314a:	0e 94 a1 26 	call	0x4d42	; 0x4d42 <Dio_writeChanel>
		return KEYPAD_COL1;
    314e:	81 e0       	ldi	r24, 0x01	; 1
    3150:	8a 83       	std	Y+2, r24	; 0x02
    3152:	37 c0       	rjmp	.+110    	; 0x31c2 <Keypad_getCol+0xce>

	}
	Dio_writeChanel(DIO_PORTB, DIO_PIN5, DIO_HIGH);
    3154:	81 e0       	ldi	r24, 0x01	; 1
    3156:	65 e0       	ldi	r22, 0x05	; 5
    3158:	41 e0       	ldi	r20, 0x01	; 1
    315a:	0e 94 a1 26 	call	0x4d42	; 0x4d42 <Dio_writeChanel>

	// Col 3
	Dio_writeChanel(DIO_PORTB, DIO_PIN6, DIO_LOW);
    315e:	81 e0       	ldi	r24, 0x01	; 1
    3160:	66 e0       	ldi	r22, 0x06	; 6
    3162:	40 e0       	ldi	r20, 0x00	; 0
    3164:	0e 94 a1 26 	call	0x4d42	; 0x4d42 <Dio_writeChanel>
	if (row != Keypad_getRow())
    3168:	0e 94 4b 18 	call	0x3096	; 0x3096 <Keypad_getRow>
    316c:	98 2f       	mov	r25, r24
    316e:	89 81       	ldd	r24, Y+1	; 0x01
    3170:	98 17       	cp	r25, r24
    3172:	41 f0       	breq	.+16     	; 0x3184 <Keypad_getCol+0x90>
	{

		Dio_writeChanel(DIO_PORTB, DIO_PIN6, DIO_HIGH);
    3174:	81 e0       	ldi	r24, 0x01	; 1
    3176:	66 e0       	ldi	r22, 0x06	; 6
    3178:	41 e0       	ldi	r20, 0x01	; 1
    317a:	0e 94 a1 26 	call	0x4d42	; 0x4d42 <Dio_writeChanel>
		return KEYPAD_COL2;
    317e:	82 e0       	ldi	r24, 0x02	; 2
    3180:	8a 83       	std	Y+2, r24	; 0x02
    3182:	1f c0       	rjmp	.+62     	; 0x31c2 <Keypad_getCol+0xce>

	}
	Dio_writeChanel(DIO_PORTB, DIO_PIN6, DIO_HIGH);
    3184:	81 e0       	ldi	r24, 0x01	; 1
    3186:	66 e0       	ldi	r22, 0x06	; 6
    3188:	41 e0       	ldi	r20, 0x01	; 1
    318a:	0e 94 a1 26 	call	0x4d42	; 0x4d42 <Dio_writeChanel>

	// Col 4
	Dio_writeChanel(DIO_PORTB, DIO_PIN7, DIO_LOW);
    318e:	81 e0       	ldi	r24, 0x01	; 1
    3190:	67 e0       	ldi	r22, 0x07	; 7
    3192:	40 e0       	ldi	r20, 0x00	; 0
    3194:	0e 94 a1 26 	call	0x4d42	; 0x4d42 <Dio_writeChanel>
	if (row != Keypad_getRow())
    3198:	0e 94 4b 18 	call	0x3096	; 0x3096 <Keypad_getRow>
    319c:	98 2f       	mov	r25, r24
    319e:	89 81       	ldd	r24, Y+1	; 0x01
    31a0:	98 17       	cp	r25, r24
    31a2:	41 f0       	breq	.+16     	; 0x31b4 <Keypad_getCol+0xc0>
	{

		Dio_writeChanel(DIO_PORTB, DIO_PIN7, DIO_HIGH);
    31a4:	81 e0       	ldi	r24, 0x01	; 1
    31a6:	67 e0       	ldi	r22, 0x07	; 7
    31a8:	41 e0       	ldi	r20, 0x01	; 1
    31aa:	0e 94 a1 26 	call	0x4d42	; 0x4d42 <Dio_writeChanel>
		return KEYPAD_COL3;
    31ae:	83 e0       	ldi	r24, 0x03	; 3
    31b0:	8a 83       	std	Y+2, r24	; 0x02
    31b2:	07 c0       	rjmp	.+14     	; 0x31c2 <Keypad_getCol+0xce>

	}

	Dio_writeChanel(DIO_PORTB, DIO_PIN7, DIO_HIGH);
    31b4:	81 e0       	ldi	r24, 0x01	; 1
    31b6:	67 e0       	ldi	r22, 0x07	; 7
    31b8:	41 e0       	ldi	r20, 0x01	; 1
    31ba:	0e 94 a1 26 	call	0x4d42	; 0x4d42 <Dio_writeChanel>

	return KEYPAD_INVALID;
    31be:	8f ef       	ldi	r24, 0xFF	; 255
    31c0:	8a 83       	std	Y+2, r24	; 0x02
    31c2:	8a 81       	ldd	r24, Y+2	; 0x02

}
    31c4:	0f 90       	pop	r0
    31c6:	0f 90       	pop	r0
    31c8:	cf 91       	pop	r28
    31ca:	df 91       	pop	r29
    31cc:	08 95       	ret

000031ce <Keypad_GetString>:


void Keypad_GetString(u8* string, u8 size)
{
    31ce:	df 93       	push	r29
    31d0:	cf 93       	push	r28
    31d2:	cd b7       	in	r28, 0x3d	; 61
    31d4:	de b7       	in	r29, 0x3e	; 62
    31d6:	63 97       	sbiw	r28, 0x13	; 19
    31d8:	0f b6       	in	r0, 0x3f	; 63
    31da:	f8 94       	cli
    31dc:	de bf       	out	0x3e, r29	; 62
    31de:	0f be       	out	0x3f, r0	; 63
    31e0:	cd bf       	out	0x3d, r28	; 61
    31e2:	9a 8b       	std	Y+18, r25	; 0x12
    31e4:	89 8b       	std	Y+17, r24	; 0x11
    31e6:	6b 8b       	std	Y+19, r22	; 0x13

	u8 tmp = KEYPAD_INVALID;
    31e8:	8f ef       	ldi	r24, 0xFF	; 255
    31ea:	88 8b       	std	Y+16, r24	; 0x10
    31ec:	75 c0       	rjmp	.+234    	; 0x32d8 <Keypad_GetString+0x10a>
	while (tmp == KEYPAD_INVALID)
	{
		tmp = Keypad_getButton();
    31ee:	0e 94 23 17 	call	0x2e46	; 0x2e46 <Keypad_getButton>
    31f2:	88 8b       	std	Y+16, r24	; 0x10
    31f4:	80 e0       	ldi	r24, 0x00	; 0
    31f6:	90 e0       	ldi	r25, 0x00	; 0
    31f8:	a0 e2       	ldi	r26, 0x20	; 32
    31fa:	b1 e4       	ldi	r27, 0x41	; 65
    31fc:	8b 87       	std	Y+11, r24	; 0x0b
    31fe:	9c 87       	std	Y+12, r25	; 0x0c
    3200:	ad 87       	std	Y+13, r26	; 0x0d
    3202:	be 87       	std	Y+14, r27	; 0x0e
 */
void
_delay_ms(double __ms)
{
	uint16_t __ticks;
	double __tmp = ((F_CPU) / 4e3) * __ms;
    3204:	6b 85       	ldd	r22, Y+11	; 0x0b
    3206:	7c 85       	ldd	r23, Y+12	; 0x0c
    3208:	8d 85       	ldd	r24, Y+13	; 0x0d
    320a:	9e 85       	ldd	r25, Y+14	; 0x0e
    320c:	20 e0       	ldi	r18, 0x00	; 0
    320e:	30 e0       	ldi	r19, 0x00	; 0
    3210:	4a e7       	ldi	r20, 0x7A	; 122
    3212:	55 e4       	ldi	r21, 0x45	; 69
    3214:	0e 94 1f 02 	call	0x43e	; 0x43e <__mulsf3>
    3218:	dc 01       	movw	r26, r24
    321a:	cb 01       	movw	r24, r22
    321c:	8f 83       	std	Y+7, r24	; 0x07
    321e:	98 87       	std	Y+8, r25	; 0x08
    3220:	a9 87       	std	Y+9, r26	; 0x09
    3222:	ba 87       	std	Y+10, r27	; 0x0a
	if (__tmp < 1.0)
    3224:	6f 81       	ldd	r22, Y+7	; 0x07
    3226:	78 85       	ldd	r23, Y+8	; 0x08
    3228:	89 85       	ldd	r24, Y+9	; 0x09
    322a:	9a 85       	ldd	r25, Y+10	; 0x0a
    322c:	20 e0       	ldi	r18, 0x00	; 0
    322e:	30 e0       	ldi	r19, 0x00	; 0
    3230:	40 e8       	ldi	r20, 0x80	; 128
    3232:	5f e3       	ldi	r21, 0x3F	; 63
    3234:	0e 94 25 04 	call	0x84a	; 0x84a <__ltsf2>
    3238:	88 23       	and	r24, r24
    323a:	2c f4       	brge	.+10     	; 0x3246 <Keypad_GetString+0x78>
		__ticks = 1;
    323c:	81 e0       	ldi	r24, 0x01	; 1
    323e:	90 e0       	ldi	r25, 0x00	; 0
    3240:	9e 83       	std	Y+6, r25	; 0x06
    3242:	8d 83       	std	Y+5, r24	; 0x05
    3244:	3f c0       	rjmp	.+126    	; 0x32c4 <Keypad_GetString+0xf6>
	else if (__tmp > 65535)
    3246:	6f 81       	ldd	r22, Y+7	; 0x07
    3248:	78 85       	ldd	r23, Y+8	; 0x08
    324a:	89 85       	ldd	r24, Y+9	; 0x09
    324c:	9a 85       	ldd	r25, Y+10	; 0x0a
    324e:	20 e0       	ldi	r18, 0x00	; 0
    3250:	3f ef       	ldi	r19, 0xFF	; 255
    3252:	4f e7       	ldi	r20, 0x7F	; 127
    3254:	57 e4       	ldi	r21, 0x47	; 71
    3256:	0e 94 c5 03 	call	0x78a	; 0x78a <__gtsf2>
    325a:	18 16       	cp	r1, r24
    325c:	4c f5       	brge	.+82     	; 0x32b0 <Keypad_GetString+0xe2>
	{
		//	__ticks = requested delay in 1/10 ms
		__ticks = (uint16_t) (__ms * 10.0);
    325e:	6b 85       	ldd	r22, Y+11	; 0x0b
    3260:	7c 85       	ldd	r23, Y+12	; 0x0c
    3262:	8d 85       	ldd	r24, Y+13	; 0x0d
    3264:	9e 85       	ldd	r25, Y+14	; 0x0e
    3266:	20 e0       	ldi	r18, 0x00	; 0
    3268:	30 e0       	ldi	r19, 0x00	; 0
    326a:	40 e2       	ldi	r20, 0x20	; 32
    326c:	51 e4       	ldi	r21, 0x41	; 65
    326e:	0e 94 1f 02 	call	0x43e	; 0x43e <__mulsf3>
    3272:	dc 01       	movw	r26, r24
    3274:	cb 01       	movw	r24, r22
    3276:	bc 01       	movw	r22, r24
    3278:	cd 01       	movw	r24, r26
    327a:	0e 94 49 00 	call	0x92	; 0x92 <__fixunssfsi>
    327e:	dc 01       	movw	r26, r24
    3280:	cb 01       	movw	r24, r22
    3282:	9e 83       	std	Y+6, r25	; 0x06
    3284:	8d 83       	std	Y+5, r24	; 0x05
    3286:	0f c0       	rjmp	.+30     	; 0x32a6 <Keypad_GetString+0xd8>
    3288:	80 e9       	ldi	r24, 0x90	; 144
    328a:	91 e0       	ldi	r25, 0x01	; 1
    328c:	9c 83       	std	Y+4, r25	; 0x04
    328e:	8b 83       	std	Y+3, r24	; 0x03
    3290:	8b 81       	ldd	r24, Y+3	; 0x03
    3292:	9c 81       	ldd	r25, Y+4	; 0x04
    3294:	01 97       	sbiw	r24, 0x01	; 1
    3296:	f1 f7       	brne	.-4      	; 0x3294 <Keypad_GetString+0xc6>
    3298:	9c 83       	std	Y+4, r25	; 0x04
    329a:	8b 83       	std	Y+3, r24	; 0x03
		while(__ticks)
		{
			// wait 1/10 ms
			_delay_loop_2(((F_CPU) / 4e3) / 10);
			__ticks --;
    329c:	8d 81       	ldd	r24, Y+5	; 0x05
    329e:	9e 81       	ldd	r25, Y+6	; 0x06
    32a0:	01 97       	sbiw	r24, 0x01	; 1
    32a2:	9e 83       	std	Y+6, r25	; 0x06
    32a4:	8d 83       	std	Y+5, r24	; 0x05
		__ticks = 1;
	else if (__tmp > 65535)
	{
		//	__ticks = requested delay in 1/10 ms
		__ticks = (uint16_t) (__ms * 10.0);
		while(__ticks)
    32a6:	8d 81       	ldd	r24, Y+5	; 0x05
    32a8:	9e 81       	ldd	r25, Y+6	; 0x06
    32aa:	00 97       	sbiw	r24, 0x00	; 0
    32ac:	69 f7       	brne	.-38     	; 0x3288 <Keypad_GetString+0xba>
    32ae:	14 c0       	rjmp	.+40     	; 0x32d8 <Keypad_GetString+0x10a>
			__ticks --;
		}
		return;
	}
	else
		__ticks = (uint16_t)__tmp;
    32b0:	6f 81       	ldd	r22, Y+7	; 0x07
    32b2:	78 85       	ldd	r23, Y+8	; 0x08
    32b4:	89 85       	ldd	r24, Y+9	; 0x09
    32b6:	9a 85       	ldd	r25, Y+10	; 0x0a
    32b8:	0e 94 49 00 	call	0x92	; 0x92 <__fixunssfsi>
    32bc:	dc 01       	movw	r26, r24
    32be:	cb 01       	movw	r24, r22
    32c0:	9e 83       	std	Y+6, r25	; 0x06
    32c2:	8d 83       	std	Y+5, r24	; 0x05
    32c4:	8d 81       	ldd	r24, Y+5	; 0x05
    32c6:	9e 81       	ldd	r25, Y+6	; 0x06
    32c8:	9a 83       	std	Y+2, r25	; 0x02
    32ca:	89 83       	std	Y+1, r24	; 0x01
    32cc:	89 81       	ldd	r24, Y+1	; 0x01
    32ce:	9a 81       	ldd	r25, Y+2	; 0x02
    32d0:	01 97       	sbiw	r24, 0x01	; 1
    32d2:	f1 f7       	brne	.-4      	; 0x32d0 <Keypad_GetString+0x102>
    32d4:	9a 83       	std	Y+2, r25	; 0x02
    32d6:	89 83       	std	Y+1, r24	; 0x01

void Keypad_GetString(u8* string, u8 size)
{

	u8 tmp = KEYPAD_INVALID;
	while (tmp == KEYPAD_INVALID)
    32d8:	88 89       	ldd	r24, Y+16	; 0x10
    32da:	8f 3f       	cpi	r24, 0xFF	; 255
    32dc:	09 f4       	brne	.+2      	; 0x32e0 <Keypad_GetString+0x112>
    32de:	87 cf       	rjmp	.-242    	; 0x31ee <Keypad_GetString+0x20>
	{
		tmp = Keypad_getButton();
		_delay_ms(10);
	}

	u8 i = 0;
    32e0:	1f 86       	std	Y+15, r1	; 0x0f
    32e2:	17 c0       	rjmp	.+46     	; 0x3312 <Keypad_GetString+0x144>

	while ((tmp != '*') && (i < size - 1))
	{

		string[i] = tmp;
    32e4:	8f 85       	ldd	r24, Y+15	; 0x0f
    32e6:	28 2f       	mov	r18, r24
    32e8:	30 e0       	ldi	r19, 0x00	; 0
    32ea:	89 89       	ldd	r24, Y+17	; 0x11
    32ec:	9a 89       	ldd	r25, Y+18	; 0x12
    32ee:	fc 01       	movw	r30, r24
    32f0:	e2 0f       	add	r30, r18
    32f2:	f3 1f       	adc	r31, r19
    32f4:	88 89       	ldd	r24, Y+16	; 0x10
    32f6:	80 83       	st	Z, r24
		tmp = Keypad_getButton();
    32f8:	0e 94 23 17 	call	0x2e46	; 0x2e46 <Keypad_getButton>
    32fc:	88 8b       	std	Y+16, r24	; 0x10
    32fe:	03 c0       	rjmp	.+6      	; 0x3306 <Keypad_GetString+0x138>
		while (tmp == KEYPAD_INVALID)
		{
			tmp = Keypad_getButton();
    3300:	0e 94 23 17 	call	0x2e46	; 0x2e46 <Keypad_getButton>
    3304:	88 8b       	std	Y+16, r24	; 0x10
	while ((tmp != '*') && (i < size - 1))
	{

		string[i] = tmp;
		tmp = Keypad_getButton();
		while (tmp == KEYPAD_INVALID)
    3306:	88 89       	ldd	r24, Y+16	; 0x10
    3308:	8f 3f       	cpi	r24, 0xFF	; 255
    330a:	d1 f3       	breq	.-12     	; 0x3300 <Keypad_GetString+0x132>
		{
			tmp = Keypad_getButton();
		}
		i++;
    330c:	8f 85       	ldd	r24, Y+15	; 0x0f
    330e:	8f 5f       	subi	r24, 0xFF	; 255
    3310:	8f 87       	std	Y+15, r24	; 0x0f
		_delay_ms(10);
	}

	u8 i = 0;

	while ((tmp != '*') && (i < size - 1))
    3312:	88 89       	ldd	r24, Y+16	; 0x10
    3314:	8a 32       	cpi	r24, 0x2A	; 42
    3316:	51 f0       	breq	.+20     	; 0x332c <Keypad_GetString+0x15e>
    3318:	8f 85       	ldd	r24, Y+15	; 0x0f
    331a:	28 2f       	mov	r18, r24
    331c:	30 e0       	ldi	r19, 0x00	; 0
    331e:	8b 89       	ldd	r24, Y+19	; 0x13
    3320:	88 2f       	mov	r24, r24
    3322:	90 e0       	ldi	r25, 0x00	; 0
    3324:	01 97       	sbiw	r24, 0x01	; 1
    3326:	28 17       	cp	r18, r24
    3328:	39 07       	cpc	r19, r25
    332a:	e4 f2       	brlt	.-72     	; 0x32e4 <Keypad_GetString+0x116>
		i++;

	}

	// For precise memory allocation, add 1 to the size of the array for the null char
	string[i] = '\0';
    332c:	8f 85       	ldd	r24, Y+15	; 0x0f
    332e:	28 2f       	mov	r18, r24
    3330:	30 e0       	ldi	r19, 0x00	; 0
    3332:	89 89       	ldd	r24, Y+17	; 0x11
    3334:	9a 89       	ldd	r25, Y+18	; 0x12
    3336:	fc 01       	movw	r30, r24
    3338:	e2 0f       	add	r30, r18
    333a:	f3 1f       	adc	r31, r19
    333c:	10 82       	st	Z, r1

}
    333e:	63 96       	adiw	r28, 0x13	; 19
    3340:	0f b6       	in	r0, 0x3f	; 63
    3342:	f8 94       	cli
    3344:	de bf       	out	0x3e, r29	; 62
    3346:	0f be       	out	0x3f, r0	; 63
    3348:	cd bf       	out	0x3d, r28	; 61
    334a:	cf 91       	pop	r28
    334c:	df 91       	pop	r29
    334e:	08 95       	ret

00003350 <HC05_Init>:
 */

#include "HC-05.h"

void HC05_Init()
{
    3350:	df 93       	push	r29
    3352:	cf 93       	push	r28
    3354:	cd b7       	in	r28, 0x3d	; 61
    3356:	de b7       	in	r29, 0x3e	; 62

	// HC 05 has to be communicated with 9600 baudrate when data mode
	UART_Init(9600);
    3358:	60 e8       	ldi	r22, 0x80	; 128
    335a:	75 e2       	ldi	r23, 0x25	; 37
    335c:	80 e0       	ldi	r24, 0x00	; 0
    335e:	90 e0       	ldi	r25, 0x00	; 0
    3360:	0e 94 11 1e 	call	0x3c22	; 0x3c22 <UART_Init>
//	Dio_configChanel(DIO_PORTD, DIO_PIN2, DIO_OUTPUT);

//	// State (if the device is connected or not)
//	Dio_configChanel(DIO_PORTD, DIO_PIN3, DIO_INPUT);

}
    3364:	cf 91       	pop	r28
    3366:	df 91       	pop	r29
    3368:	08 95       	ret

0000336a <HC05_IsConnected>:

boolean HC05_IsConnected()
{
    336a:	df 93       	push	r29
    336c:	cf 93       	push	r28
    336e:	0f 92       	push	r0
    3370:	cd b7       	in	r28, 0x3d	; 61
    3372:	de b7       	in	r29, 0x3e	; 62

	if (Dio_udtreadChanel(DIO_PORTD, DIO_PIN3))
    3374:	83 e0       	ldi	r24, 0x03	; 3
    3376:	63 e0       	ldi	r22, 0x03	; 3
    3378:	0e 94 e0 27 	call	0x4fc0	; 0x4fc0 <Dio_udtreadChanel>
    337c:	88 23       	and	r24, r24
    337e:	19 f0       	breq	.+6      	; 0x3386 <HC05_IsConnected+0x1c>
	{
		return TRUE;
    3380:	81 e0       	ldi	r24, 0x01	; 1
    3382:	89 83       	std	Y+1, r24	; 0x01
    3384:	01 c0       	rjmp	.+2      	; 0x3388 <HC05_IsConnected+0x1e>
	}

	return FALSE;
    3386:	19 82       	std	Y+1, r1	; 0x01
    3388:	89 81       	ldd	r24, Y+1	; 0x01

}
    338a:	0f 90       	pop	r0
    338c:	cf 91       	pop	r28
    338e:	df 91       	pop	r29
    3390:	08 95       	ret

00003392 <HC05_ReceiveCharNonBlock>:

u8 HC05_ReceiveCharNonBlock()
{
    3392:	df 93       	push	r29
    3394:	cf 93       	push	r28
    3396:	cd b7       	in	r28, 0x3d	; 61
    3398:	de b7       	in	r29, 0x3e	; 62

	return UART_ReceiveNonBlock();
    339a:	0e 94 84 1e 	call	0x3d08	; 0x3d08 <UART_ReceiveNonBlock>

}
    339e:	cf 91       	pop	r28
    33a0:	df 91       	pop	r29
    33a2:	08 95       	ret

000033a4 <HC05_SendString>:

boolean HC05_SendString(u8* string)
{
    33a4:	df 93       	push	r29
    33a6:	cf 93       	push	r28
    33a8:	00 d0       	rcall	.+0      	; 0x33aa <HC05_SendString+0x6>
    33aa:	cd b7       	in	r28, 0x3d	; 61
    33ac:	de b7       	in	r29, 0x3e	; 62
    33ae:	9a 83       	std	Y+2, r25	; 0x02
    33b0:	89 83       	std	Y+1, r24	; 0x01

//	if (HC05_IsConnected())
//	{

		UART_SendString(string);
    33b2:	89 81       	ldd	r24, Y+1	; 0x01
    33b4:	9a 81       	ldd	r25, Y+2	; 0x02
    33b6:	0e 94 b3 1e 	call	0x3d66	; 0x3d66 <UART_SendString>
		return TRUE;
    33ba:	81 e0       	ldi	r24, 0x01	; 1

//	}
//	return FALSE;

}
    33bc:	0f 90       	pop	r0
    33be:	0f 90       	pop	r0
    33c0:	cf 91       	pop	r28
    33c2:	df 91       	pop	r29
    33c4:	08 95       	ret

000033c6 <HC05_ReceiveString>:

boolean HC05_ReceiveString(u8* string, u8 size)
{
    33c6:	df 93       	push	r29
    33c8:	cf 93       	push	r28
    33ca:	00 d0       	rcall	.+0      	; 0x33cc <HC05_ReceiveString+0x6>
    33cc:	0f 92       	push	r0
    33ce:	cd b7       	in	r28, 0x3d	; 61
    33d0:	de b7       	in	r29, 0x3e	; 62
    33d2:	9a 83       	std	Y+2, r25	; 0x02
    33d4:	89 83       	std	Y+1, r24	; 0x01
    33d6:	6b 83       	std	Y+3, r22	; 0x03

//	if (HC05_IsConnected())
//	{

		UART_ReciveString(string, size);
    33d8:	89 81       	ldd	r24, Y+1	; 0x01
    33da:	9a 81       	ldd	r25, Y+2	; 0x02
    33dc:	6b 81       	ldd	r22, Y+3	; 0x03
    33de:	0e 94 d6 1e 	call	0x3dac	; 0x3dac <UART_ReciveString>
		return TRUE;
    33e2:	81 e0       	ldi	r24, 0x01	; 1

//	}
//	return FALSE;

}
    33e4:	0f 90       	pop	r0
    33e6:	0f 90       	pop	r0
    33e8:	0f 90       	pop	r0
    33ea:	cf 91       	pop	r28
    33ec:	df 91       	pop	r29
    33ee:	08 95       	ret

000033f0 <EEPROM_Init>:
#include "Led.h"
#include "LCD.h"


void EEPROM_Init()
{
    33f0:	df 93       	push	r29
    33f2:	cf 93       	push	r28
    33f4:	cd b7       	in	r28, 0x3d	; 61
    33f6:	de b7       	in	r29, 0x3e	; 62
    33f8:	2e 97       	sbiw	r28, 0x0e	; 14
    33fa:	0f b6       	in	r0, 0x3f	; 63
    33fc:	f8 94       	cli
    33fe:	de bf       	out	0x3e, r29	; 62
    3400:	0f be       	out	0x3f, r0	; 63
    3402:	cd bf       	out	0x3d, r28	; 61

	TWI_initMaster();
    3404:	0e 94 95 22 	call	0x452a	; 0x452a <TWI_initMaster>
    3408:	80 e0       	ldi	r24, 0x00	; 0
    340a:	90 e0       	ldi	r25, 0x00	; 0
    340c:	aa e7       	ldi	r26, 0x7A	; 122
    340e:	b4 e4       	ldi	r27, 0x44	; 68
    3410:	8b 87       	std	Y+11, r24	; 0x0b
    3412:	9c 87       	std	Y+12, r25	; 0x0c
    3414:	ad 87       	std	Y+13, r26	; 0x0d
    3416:	be 87       	std	Y+14, r27	; 0x0e
 */
void
_delay_ms(double __ms)
{
	uint16_t __ticks;
	double __tmp = ((F_CPU) / 4e3) * __ms;
    3418:	6b 85       	ldd	r22, Y+11	; 0x0b
    341a:	7c 85       	ldd	r23, Y+12	; 0x0c
    341c:	8d 85       	ldd	r24, Y+13	; 0x0d
    341e:	9e 85       	ldd	r25, Y+14	; 0x0e
    3420:	20 e0       	ldi	r18, 0x00	; 0
    3422:	30 e0       	ldi	r19, 0x00	; 0
    3424:	4a e7       	ldi	r20, 0x7A	; 122
    3426:	55 e4       	ldi	r21, 0x45	; 69
    3428:	0e 94 1f 02 	call	0x43e	; 0x43e <__mulsf3>
    342c:	dc 01       	movw	r26, r24
    342e:	cb 01       	movw	r24, r22
    3430:	8f 83       	std	Y+7, r24	; 0x07
    3432:	98 87       	std	Y+8, r25	; 0x08
    3434:	a9 87       	std	Y+9, r26	; 0x09
    3436:	ba 87       	std	Y+10, r27	; 0x0a
	if (__tmp < 1.0)
    3438:	6f 81       	ldd	r22, Y+7	; 0x07
    343a:	78 85       	ldd	r23, Y+8	; 0x08
    343c:	89 85       	ldd	r24, Y+9	; 0x09
    343e:	9a 85       	ldd	r25, Y+10	; 0x0a
    3440:	20 e0       	ldi	r18, 0x00	; 0
    3442:	30 e0       	ldi	r19, 0x00	; 0
    3444:	40 e8       	ldi	r20, 0x80	; 128
    3446:	5f e3       	ldi	r21, 0x3F	; 63
    3448:	0e 94 25 04 	call	0x84a	; 0x84a <__ltsf2>
    344c:	88 23       	and	r24, r24
    344e:	2c f4       	brge	.+10     	; 0x345a <EEPROM_Init+0x6a>
		__ticks = 1;
    3450:	81 e0       	ldi	r24, 0x01	; 1
    3452:	90 e0       	ldi	r25, 0x00	; 0
    3454:	9e 83       	std	Y+6, r25	; 0x06
    3456:	8d 83       	std	Y+5, r24	; 0x05
    3458:	3f c0       	rjmp	.+126    	; 0x34d8 <EEPROM_Init+0xe8>
	else if (__tmp > 65535)
    345a:	6f 81       	ldd	r22, Y+7	; 0x07
    345c:	78 85       	ldd	r23, Y+8	; 0x08
    345e:	89 85       	ldd	r24, Y+9	; 0x09
    3460:	9a 85       	ldd	r25, Y+10	; 0x0a
    3462:	20 e0       	ldi	r18, 0x00	; 0
    3464:	3f ef       	ldi	r19, 0xFF	; 255
    3466:	4f e7       	ldi	r20, 0x7F	; 127
    3468:	57 e4       	ldi	r21, 0x47	; 71
    346a:	0e 94 c5 03 	call	0x78a	; 0x78a <__gtsf2>
    346e:	18 16       	cp	r1, r24
    3470:	4c f5       	brge	.+82     	; 0x34c4 <EEPROM_Init+0xd4>
	{
		//	__ticks = requested delay in 1/10 ms
		__ticks = (uint16_t) (__ms * 10.0);
    3472:	6b 85       	ldd	r22, Y+11	; 0x0b
    3474:	7c 85       	ldd	r23, Y+12	; 0x0c
    3476:	8d 85       	ldd	r24, Y+13	; 0x0d
    3478:	9e 85       	ldd	r25, Y+14	; 0x0e
    347a:	20 e0       	ldi	r18, 0x00	; 0
    347c:	30 e0       	ldi	r19, 0x00	; 0
    347e:	40 e2       	ldi	r20, 0x20	; 32
    3480:	51 e4       	ldi	r21, 0x41	; 65
    3482:	0e 94 1f 02 	call	0x43e	; 0x43e <__mulsf3>
    3486:	dc 01       	movw	r26, r24
    3488:	cb 01       	movw	r24, r22
    348a:	bc 01       	movw	r22, r24
    348c:	cd 01       	movw	r24, r26
    348e:	0e 94 49 00 	call	0x92	; 0x92 <__fixunssfsi>
    3492:	dc 01       	movw	r26, r24
    3494:	cb 01       	movw	r24, r22
    3496:	9e 83       	std	Y+6, r25	; 0x06
    3498:	8d 83       	std	Y+5, r24	; 0x05
    349a:	0f c0       	rjmp	.+30     	; 0x34ba <EEPROM_Init+0xca>
    349c:	80 e9       	ldi	r24, 0x90	; 144
    349e:	91 e0       	ldi	r25, 0x01	; 1
    34a0:	9c 83       	std	Y+4, r25	; 0x04
    34a2:	8b 83       	std	Y+3, r24	; 0x03
    34a4:	8b 81       	ldd	r24, Y+3	; 0x03
    34a6:	9c 81       	ldd	r25, Y+4	; 0x04
    34a8:	01 97       	sbiw	r24, 0x01	; 1
    34aa:	f1 f7       	brne	.-4      	; 0x34a8 <EEPROM_Init+0xb8>
    34ac:	9c 83       	std	Y+4, r25	; 0x04
    34ae:	8b 83       	std	Y+3, r24	; 0x03
		while(__ticks)
		{
			// wait 1/10 ms
			_delay_loop_2(((F_CPU) / 4e3) / 10);
			__ticks --;
    34b0:	8d 81       	ldd	r24, Y+5	; 0x05
    34b2:	9e 81       	ldd	r25, Y+6	; 0x06
    34b4:	01 97       	sbiw	r24, 0x01	; 1
    34b6:	9e 83       	std	Y+6, r25	; 0x06
    34b8:	8d 83       	std	Y+5, r24	; 0x05
		__ticks = 1;
	else if (__tmp > 65535)
	{
		//	__ticks = requested delay in 1/10 ms
		__ticks = (uint16_t) (__ms * 10.0);
		while(__ticks)
    34ba:	8d 81       	ldd	r24, Y+5	; 0x05
    34bc:	9e 81       	ldd	r25, Y+6	; 0x06
    34be:	00 97       	sbiw	r24, 0x00	; 0
    34c0:	69 f7       	brne	.-38     	; 0x349c <EEPROM_Init+0xac>
    34c2:	14 c0       	rjmp	.+40     	; 0x34ec <EEPROM_Init+0xfc>
			__ticks --;
		}
		return;
	}
	else
		__ticks = (uint16_t)__tmp;
    34c4:	6f 81       	ldd	r22, Y+7	; 0x07
    34c6:	78 85       	ldd	r23, Y+8	; 0x08
    34c8:	89 85       	ldd	r24, Y+9	; 0x09
    34ca:	9a 85       	ldd	r25, Y+10	; 0x0a
    34cc:	0e 94 49 00 	call	0x92	; 0x92 <__fixunssfsi>
    34d0:	dc 01       	movw	r26, r24
    34d2:	cb 01       	movw	r24, r22
    34d4:	9e 83       	std	Y+6, r25	; 0x06
    34d6:	8d 83       	std	Y+5, r24	; 0x05
    34d8:	8d 81       	ldd	r24, Y+5	; 0x05
    34da:	9e 81       	ldd	r25, Y+6	; 0x06
    34dc:	9a 83       	std	Y+2, r25	; 0x02
    34de:	89 83       	std	Y+1, r24	; 0x01
    34e0:	89 81       	ldd	r24, Y+1	; 0x01
    34e2:	9a 81       	ldd	r25, Y+2	; 0x02
    34e4:	01 97       	sbiw	r24, 0x01	; 1
    34e6:	f1 f7       	brne	.-4      	; 0x34e4 <EEPROM_Init+0xf4>
    34e8:	9a 83       	std	Y+2, r25	; 0x02
    34ea:	89 83       	std	Y+1, r24	; 0x01
	_delay_ms(1000);

}
    34ec:	2e 96       	adiw	r28, 0x0e	; 14
    34ee:	0f b6       	in	r0, 0x3f	; 63
    34f0:	f8 94       	cli
    34f2:	de bf       	out	0x3e, r29	; 62
    34f4:	0f be       	out	0x3f, r0	; 63
    34f6:	cd bf       	out	0x3d, r28	; 61
    34f8:	cf 91       	pop	r28
    34fa:	df 91       	pop	r29
    34fc:	08 95       	ret

000034fe <EEPROM_WriteByte>:

void EEPROM_WriteByte(u8 pageAddress, u8 dataAddress, u8 data)
{
    34fe:	df 93       	push	r29
    3500:	cf 93       	push	r28
    3502:	cd b7       	in	r28, 0x3d	; 61
    3504:	de b7       	in	r29, 0x3e	; 62
    3506:	61 97       	sbiw	r28, 0x11	; 17
    3508:	0f b6       	in	r0, 0x3f	; 63
    350a:	f8 94       	cli
    350c:	de bf       	out	0x3e, r29	; 62
    350e:	0f be       	out	0x3f, r0	; 63
    3510:	cd bf       	out	0x3d, r28	; 61
    3512:	8f 87       	std	Y+15, r24	; 0x0f
    3514:	68 8b       	std	Y+16, r22	; 0x10
    3516:	49 8b       	std	Y+17, r20	; 0x11

	LCD_displayChar('S');
    3518:	83 e5       	ldi	r24, 0x53	; 83
    351a:	0e 94 87 14 	call	0x290e	; 0x290e <LCD_displayChar>
	TWI_sendStartCondition();
    351e:	0e 94 e0 22 	call	0x45c0	; 0x45c0 <TWI_sendStartCondition>
	TWI_sendSlaveAddwithWrite( (0xA0 >> 1) | pageAddress);
    3522:	8f 85       	ldd	r24, Y+15	; 0x0f
    3524:	80 65       	ori	r24, 0x50	; 80
    3526:	0e 94 42 23 	call	0x4684	; 0x4684 <TWI_sendSlaveAddwithWrite>
	TWI_sendMasterDataByte(dataAddress);
    352a:	88 89       	ldd	r24, Y+16	; 0x10
    352c:	0e 94 b6 23 	call	0x476c	; 0x476c <TWI_sendMasterDataByte>
	TWI_sendMasterDataByte(data);
    3530:	89 89       	ldd	r24, Y+17	; 0x11
    3532:	0e 94 b6 23 	call	0x476c	; 0x476c <TWI_sendMasterDataByte>
	TWI_sendStopCondition();
    3536:	0e 94 25 23 	call	0x464a	; 0x464a <TWI_sendStopCondition>
	LCD_displayChar('E');
    353a:	85 e4       	ldi	r24, 0x45	; 69
    353c:	0e 94 87 14 	call	0x290e	; 0x290e <LCD_displayChar>
    3540:	80 e0       	ldi	r24, 0x00	; 0
    3542:	90 e0       	ldi	r25, 0x00	; 0
    3544:	a0 ea       	ldi	r26, 0xA0	; 160
    3546:	b0 e4       	ldi	r27, 0x40	; 64
    3548:	8b 87       	std	Y+11, r24	; 0x0b
    354a:	9c 87       	std	Y+12, r25	; 0x0c
    354c:	ad 87       	std	Y+13, r26	; 0x0d
    354e:	be 87       	std	Y+14, r27	; 0x0e
 */
void
_delay_ms(double __ms)
{
	uint16_t __ticks;
	double __tmp = ((F_CPU) / 4e3) * __ms;
    3550:	6b 85       	ldd	r22, Y+11	; 0x0b
    3552:	7c 85       	ldd	r23, Y+12	; 0x0c
    3554:	8d 85       	ldd	r24, Y+13	; 0x0d
    3556:	9e 85       	ldd	r25, Y+14	; 0x0e
    3558:	20 e0       	ldi	r18, 0x00	; 0
    355a:	30 e0       	ldi	r19, 0x00	; 0
    355c:	4a e7       	ldi	r20, 0x7A	; 122
    355e:	55 e4       	ldi	r21, 0x45	; 69
    3560:	0e 94 1f 02 	call	0x43e	; 0x43e <__mulsf3>
    3564:	dc 01       	movw	r26, r24
    3566:	cb 01       	movw	r24, r22
    3568:	8f 83       	std	Y+7, r24	; 0x07
    356a:	98 87       	std	Y+8, r25	; 0x08
    356c:	a9 87       	std	Y+9, r26	; 0x09
    356e:	ba 87       	std	Y+10, r27	; 0x0a
	if (__tmp < 1.0)
    3570:	6f 81       	ldd	r22, Y+7	; 0x07
    3572:	78 85       	ldd	r23, Y+8	; 0x08
    3574:	89 85       	ldd	r24, Y+9	; 0x09
    3576:	9a 85       	ldd	r25, Y+10	; 0x0a
    3578:	20 e0       	ldi	r18, 0x00	; 0
    357a:	30 e0       	ldi	r19, 0x00	; 0
    357c:	40 e8       	ldi	r20, 0x80	; 128
    357e:	5f e3       	ldi	r21, 0x3F	; 63
    3580:	0e 94 25 04 	call	0x84a	; 0x84a <__ltsf2>
    3584:	88 23       	and	r24, r24
    3586:	2c f4       	brge	.+10     	; 0x3592 <EEPROM_WriteByte+0x94>
		__ticks = 1;
    3588:	81 e0       	ldi	r24, 0x01	; 1
    358a:	90 e0       	ldi	r25, 0x00	; 0
    358c:	9e 83       	std	Y+6, r25	; 0x06
    358e:	8d 83       	std	Y+5, r24	; 0x05
    3590:	3f c0       	rjmp	.+126    	; 0x3610 <EEPROM_WriteByte+0x112>
	else if (__tmp > 65535)
    3592:	6f 81       	ldd	r22, Y+7	; 0x07
    3594:	78 85       	ldd	r23, Y+8	; 0x08
    3596:	89 85       	ldd	r24, Y+9	; 0x09
    3598:	9a 85       	ldd	r25, Y+10	; 0x0a
    359a:	20 e0       	ldi	r18, 0x00	; 0
    359c:	3f ef       	ldi	r19, 0xFF	; 255
    359e:	4f e7       	ldi	r20, 0x7F	; 127
    35a0:	57 e4       	ldi	r21, 0x47	; 71
    35a2:	0e 94 c5 03 	call	0x78a	; 0x78a <__gtsf2>
    35a6:	18 16       	cp	r1, r24
    35a8:	4c f5       	brge	.+82     	; 0x35fc <EEPROM_WriteByte+0xfe>
	{
		//	__ticks = requested delay in 1/10 ms
		__ticks = (uint16_t) (__ms * 10.0);
    35aa:	6b 85       	ldd	r22, Y+11	; 0x0b
    35ac:	7c 85       	ldd	r23, Y+12	; 0x0c
    35ae:	8d 85       	ldd	r24, Y+13	; 0x0d
    35b0:	9e 85       	ldd	r25, Y+14	; 0x0e
    35b2:	20 e0       	ldi	r18, 0x00	; 0
    35b4:	30 e0       	ldi	r19, 0x00	; 0
    35b6:	40 e2       	ldi	r20, 0x20	; 32
    35b8:	51 e4       	ldi	r21, 0x41	; 65
    35ba:	0e 94 1f 02 	call	0x43e	; 0x43e <__mulsf3>
    35be:	dc 01       	movw	r26, r24
    35c0:	cb 01       	movw	r24, r22
    35c2:	bc 01       	movw	r22, r24
    35c4:	cd 01       	movw	r24, r26
    35c6:	0e 94 49 00 	call	0x92	; 0x92 <__fixunssfsi>
    35ca:	dc 01       	movw	r26, r24
    35cc:	cb 01       	movw	r24, r22
    35ce:	9e 83       	std	Y+6, r25	; 0x06
    35d0:	8d 83       	std	Y+5, r24	; 0x05
    35d2:	0f c0       	rjmp	.+30     	; 0x35f2 <EEPROM_WriteByte+0xf4>
    35d4:	80 e9       	ldi	r24, 0x90	; 144
    35d6:	91 e0       	ldi	r25, 0x01	; 1
    35d8:	9c 83       	std	Y+4, r25	; 0x04
    35da:	8b 83       	std	Y+3, r24	; 0x03
    35dc:	8b 81       	ldd	r24, Y+3	; 0x03
    35de:	9c 81       	ldd	r25, Y+4	; 0x04
    35e0:	01 97       	sbiw	r24, 0x01	; 1
    35e2:	f1 f7       	brne	.-4      	; 0x35e0 <EEPROM_WriteByte+0xe2>
    35e4:	9c 83       	std	Y+4, r25	; 0x04
    35e6:	8b 83       	std	Y+3, r24	; 0x03
		while(__ticks)
		{
			// wait 1/10 ms
			_delay_loop_2(((F_CPU) / 4e3) / 10);
			__ticks --;
    35e8:	8d 81       	ldd	r24, Y+5	; 0x05
    35ea:	9e 81       	ldd	r25, Y+6	; 0x06
    35ec:	01 97       	sbiw	r24, 0x01	; 1
    35ee:	9e 83       	std	Y+6, r25	; 0x06
    35f0:	8d 83       	std	Y+5, r24	; 0x05
		__ticks = 1;
	else if (__tmp > 65535)
	{
		//	__ticks = requested delay in 1/10 ms
		__ticks = (uint16_t) (__ms * 10.0);
		while(__ticks)
    35f2:	8d 81       	ldd	r24, Y+5	; 0x05
    35f4:	9e 81       	ldd	r25, Y+6	; 0x06
    35f6:	00 97       	sbiw	r24, 0x00	; 0
    35f8:	69 f7       	brne	.-38     	; 0x35d4 <EEPROM_WriteByte+0xd6>
    35fa:	14 c0       	rjmp	.+40     	; 0x3624 <EEPROM_WriteByte+0x126>
			__ticks --;
		}
		return;
	}
	else
		__ticks = (uint16_t)__tmp;
    35fc:	6f 81       	ldd	r22, Y+7	; 0x07
    35fe:	78 85       	ldd	r23, Y+8	; 0x08
    3600:	89 85       	ldd	r24, Y+9	; 0x09
    3602:	9a 85       	ldd	r25, Y+10	; 0x0a
    3604:	0e 94 49 00 	call	0x92	; 0x92 <__fixunssfsi>
    3608:	dc 01       	movw	r26, r24
    360a:	cb 01       	movw	r24, r22
    360c:	9e 83       	std	Y+6, r25	; 0x06
    360e:	8d 83       	std	Y+5, r24	; 0x05
    3610:	8d 81       	ldd	r24, Y+5	; 0x05
    3612:	9e 81       	ldd	r25, Y+6	; 0x06
    3614:	9a 83       	std	Y+2, r25	; 0x02
    3616:	89 83       	std	Y+1, r24	; 0x01
    3618:	89 81       	ldd	r24, Y+1	; 0x01
    361a:	9a 81       	ldd	r25, Y+2	; 0x02
    361c:	01 97       	sbiw	r24, 0x01	; 1
    361e:	f1 f7       	brne	.-4      	; 0x361c <EEPROM_WriteByte+0x11e>
    3620:	9a 83       	std	Y+2, r25	; 0x02
    3622:	89 83       	std	Y+1, r24	; 0x01

	// In order to be able to use ReadByte function right after this function
	_delay_ms(5);

}
    3624:	61 96       	adiw	r28, 0x11	; 17
    3626:	0f b6       	in	r0, 0x3f	; 63
    3628:	f8 94       	cli
    362a:	de bf       	out	0x3e, r29	; 62
    362c:	0f be       	out	0x3f, r0	; 63
    362e:	cd bf       	out	0x3d, r28	; 61
    3630:	cf 91       	pop	r28
    3632:	df 91       	pop	r29
    3634:	08 95       	ret

00003636 <EEPROM_ReadByte>:

u8 EEPROM_ReadByte(u8 pageAddress, u8 dataAddress)
{
    3636:	df 93       	push	r29
    3638:	cf 93       	push	r28
    363a:	cd b7       	in	r28, 0x3d	; 61
    363c:	de b7       	in	r29, 0x3e	; 62
    363e:	61 97       	sbiw	r28, 0x11	; 17
    3640:	0f b6       	in	r0, 0x3f	; 63
    3642:	f8 94       	cli
    3644:	de bf       	out	0x3e, r29	; 62
    3646:	0f be       	out	0x3f, r0	; 63
    3648:	cd bf       	out	0x3d, r28	; 61
    364a:	88 8b       	std	Y+16, r24	; 0x10
    364c:	69 8b       	std	Y+17, r22	; 0x11

	u8 data = 0;
    364e:	1f 86       	std	Y+15, r1	; 0x0f

	LCD_displayChar('S');
    3650:	83 e5       	ldi	r24, 0x53	; 83
    3652:	0e 94 87 14 	call	0x290e	; 0x290e <LCD_displayChar>
	TWI_sendStartCondition();
    3656:	0e 94 e0 22 	call	0x45c0	; 0x45c0 <TWI_sendStartCondition>
	LCD_displayChar('E');
    365a:	85 e4       	ldi	r24, 0x45	; 69
    365c:	0e 94 87 14 	call	0x290e	; 0x290e <LCD_displayChar>
	TWI_sendSlaveAddwithWrite( (0xA0 >> 1) | pageAddress);
    3660:	88 89       	ldd	r24, Y+16	; 0x10
    3662:	80 65       	ori	r24, 0x50	; 80
    3664:	0e 94 42 23 	call	0x4684	; 0x4684 <TWI_sendSlaveAddwithWrite>
	TWI_sendMasterDataByte(dataAddress);
    3668:	89 89       	ldd	r24, Y+17	; 0x11
    366a:	0e 94 b6 23 	call	0x476c	; 0x476c <TWI_sendMasterDataByte>
	TWI_sendRepStartCondition();
    366e:	0e 94 04 23 	call	0x4608	; 0x4608 <TWI_sendRepStartCondition>
	TWI_sendSlaveAddwithRead( (0xA0 >> 1) | pageAddress);
    3672:	88 89       	ldd	r24, Y+16	; 0x10
    3674:	80 65       	ori	r24, 0x50	; 80
    3676:	0e 94 7c 23 	call	0x46f8	; 0x46f8 <TWI_sendSlaveAddwithRead>
	TWI_readMasterDataByte(&data);
    367a:	ce 01       	movw	r24, r28
    367c:	0f 96       	adiw	r24, 0x0f	; 15
    367e:	0e 94 d7 23 	call	0x47ae	; 0x47ae <TWI_readMasterDataByte>
	TWI_sendStopCondition();
    3682:	0e 94 25 23 	call	0x464a	; 0x464a <TWI_sendStopCondition>
    3686:	80 e0       	ldi	r24, 0x00	; 0
    3688:	90 e0       	ldi	r25, 0x00	; 0
    368a:	a0 ea       	ldi	r26, 0xA0	; 160
    368c:	b0 e4       	ldi	r27, 0x40	; 64
    368e:	8b 87       	std	Y+11, r24	; 0x0b
    3690:	9c 87       	std	Y+12, r25	; 0x0c
    3692:	ad 87       	std	Y+13, r26	; 0x0d
    3694:	be 87       	std	Y+14, r27	; 0x0e
 */
void
_delay_ms(double __ms)
{
	uint16_t __ticks;
	double __tmp = ((F_CPU) / 4e3) * __ms;
    3696:	6b 85       	ldd	r22, Y+11	; 0x0b
    3698:	7c 85       	ldd	r23, Y+12	; 0x0c
    369a:	8d 85       	ldd	r24, Y+13	; 0x0d
    369c:	9e 85       	ldd	r25, Y+14	; 0x0e
    369e:	20 e0       	ldi	r18, 0x00	; 0
    36a0:	30 e0       	ldi	r19, 0x00	; 0
    36a2:	4a e7       	ldi	r20, 0x7A	; 122
    36a4:	55 e4       	ldi	r21, 0x45	; 69
    36a6:	0e 94 1f 02 	call	0x43e	; 0x43e <__mulsf3>
    36aa:	dc 01       	movw	r26, r24
    36ac:	cb 01       	movw	r24, r22
    36ae:	8f 83       	std	Y+7, r24	; 0x07
    36b0:	98 87       	std	Y+8, r25	; 0x08
    36b2:	a9 87       	std	Y+9, r26	; 0x09
    36b4:	ba 87       	std	Y+10, r27	; 0x0a
	if (__tmp < 1.0)
    36b6:	6f 81       	ldd	r22, Y+7	; 0x07
    36b8:	78 85       	ldd	r23, Y+8	; 0x08
    36ba:	89 85       	ldd	r24, Y+9	; 0x09
    36bc:	9a 85       	ldd	r25, Y+10	; 0x0a
    36be:	20 e0       	ldi	r18, 0x00	; 0
    36c0:	30 e0       	ldi	r19, 0x00	; 0
    36c2:	40 e8       	ldi	r20, 0x80	; 128
    36c4:	5f e3       	ldi	r21, 0x3F	; 63
    36c6:	0e 94 25 04 	call	0x84a	; 0x84a <__ltsf2>
    36ca:	88 23       	and	r24, r24
    36cc:	2c f4       	brge	.+10     	; 0x36d8 <EEPROM_ReadByte+0xa2>
		__ticks = 1;
    36ce:	81 e0       	ldi	r24, 0x01	; 1
    36d0:	90 e0       	ldi	r25, 0x00	; 0
    36d2:	9e 83       	std	Y+6, r25	; 0x06
    36d4:	8d 83       	std	Y+5, r24	; 0x05
    36d6:	3f c0       	rjmp	.+126    	; 0x3756 <EEPROM_ReadByte+0x120>
	else if (__tmp > 65535)
    36d8:	6f 81       	ldd	r22, Y+7	; 0x07
    36da:	78 85       	ldd	r23, Y+8	; 0x08
    36dc:	89 85       	ldd	r24, Y+9	; 0x09
    36de:	9a 85       	ldd	r25, Y+10	; 0x0a
    36e0:	20 e0       	ldi	r18, 0x00	; 0
    36e2:	3f ef       	ldi	r19, 0xFF	; 255
    36e4:	4f e7       	ldi	r20, 0x7F	; 127
    36e6:	57 e4       	ldi	r21, 0x47	; 71
    36e8:	0e 94 c5 03 	call	0x78a	; 0x78a <__gtsf2>
    36ec:	18 16       	cp	r1, r24
    36ee:	4c f5       	brge	.+82     	; 0x3742 <EEPROM_ReadByte+0x10c>
	{
		//	__ticks = requested delay in 1/10 ms
		__ticks = (uint16_t) (__ms * 10.0);
    36f0:	6b 85       	ldd	r22, Y+11	; 0x0b
    36f2:	7c 85       	ldd	r23, Y+12	; 0x0c
    36f4:	8d 85       	ldd	r24, Y+13	; 0x0d
    36f6:	9e 85       	ldd	r25, Y+14	; 0x0e
    36f8:	20 e0       	ldi	r18, 0x00	; 0
    36fa:	30 e0       	ldi	r19, 0x00	; 0
    36fc:	40 e2       	ldi	r20, 0x20	; 32
    36fe:	51 e4       	ldi	r21, 0x41	; 65
    3700:	0e 94 1f 02 	call	0x43e	; 0x43e <__mulsf3>
    3704:	dc 01       	movw	r26, r24
    3706:	cb 01       	movw	r24, r22
    3708:	bc 01       	movw	r22, r24
    370a:	cd 01       	movw	r24, r26
    370c:	0e 94 49 00 	call	0x92	; 0x92 <__fixunssfsi>
    3710:	dc 01       	movw	r26, r24
    3712:	cb 01       	movw	r24, r22
    3714:	9e 83       	std	Y+6, r25	; 0x06
    3716:	8d 83       	std	Y+5, r24	; 0x05
    3718:	0f c0       	rjmp	.+30     	; 0x3738 <EEPROM_ReadByte+0x102>
    371a:	80 e9       	ldi	r24, 0x90	; 144
    371c:	91 e0       	ldi	r25, 0x01	; 1
    371e:	9c 83       	std	Y+4, r25	; 0x04
    3720:	8b 83       	std	Y+3, r24	; 0x03
    3722:	8b 81       	ldd	r24, Y+3	; 0x03
    3724:	9c 81       	ldd	r25, Y+4	; 0x04
    3726:	01 97       	sbiw	r24, 0x01	; 1
    3728:	f1 f7       	brne	.-4      	; 0x3726 <EEPROM_ReadByte+0xf0>
    372a:	9c 83       	std	Y+4, r25	; 0x04
    372c:	8b 83       	std	Y+3, r24	; 0x03
		while(__ticks)
		{
			// wait 1/10 ms
			_delay_loop_2(((F_CPU) / 4e3) / 10);
			__ticks --;
    372e:	8d 81       	ldd	r24, Y+5	; 0x05
    3730:	9e 81       	ldd	r25, Y+6	; 0x06
    3732:	01 97       	sbiw	r24, 0x01	; 1
    3734:	9e 83       	std	Y+6, r25	; 0x06
    3736:	8d 83       	std	Y+5, r24	; 0x05
		__ticks = 1;
	else if (__tmp > 65535)
	{
		//	__ticks = requested delay in 1/10 ms
		__ticks = (uint16_t) (__ms * 10.0);
		while(__ticks)
    3738:	8d 81       	ldd	r24, Y+5	; 0x05
    373a:	9e 81       	ldd	r25, Y+6	; 0x06
    373c:	00 97       	sbiw	r24, 0x00	; 0
    373e:	69 f7       	brne	.-38     	; 0x371a <EEPROM_ReadByte+0xe4>
    3740:	14 c0       	rjmp	.+40     	; 0x376a <EEPROM_ReadByte+0x134>
			__ticks --;
		}
		return;
	}
	else
		__ticks = (uint16_t)__tmp;
    3742:	6f 81       	ldd	r22, Y+7	; 0x07
    3744:	78 85       	ldd	r23, Y+8	; 0x08
    3746:	89 85       	ldd	r24, Y+9	; 0x09
    3748:	9a 85       	ldd	r25, Y+10	; 0x0a
    374a:	0e 94 49 00 	call	0x92	; 0x92 <__fixunssfsi>
    374e:	dc 01       	movw	r26, r24
    3750:	cb 01       	movw	r24, r22
    3752:	9e 83       	std	Y+6, r25	; 0x06
    3754:	8d 83       	std	Y+5, r24	; 0x05
    3756:	8d 81       	ldd	r24, Y+5	; 0x05
    3758:	9e 81       	ldd	r25, Y+6	; 0x06
    375a:	9a 83       	std	Y+2, r25	; 0x02
    375c:	89 83       	std	Y+1, r24	; 0x01
    375e:	89 81       	ldd	r24, Y+1	; 0x01
    3760:	9a 81       	ldd	r25, Y+2	; 0x02
    3762:	01 97       	sbiw	r24, 0x01	; 1
    3764:	f1 f7       	brne	.-4      	; 0x3762 <EEPROM_ReadByte+0x12c>
    3766:	9a 83       	std	Y+2, r25	; 0x02
    3768:	89 83       	std	Y+1, r24	; 0x01

	// In order to be able to use ReadByte function right after this function
	_delay_ms(5);

	return data;
    376a:	8f 85       	ldd	r24, Y+15	; 0x0f

}
    376c:	61 96       	adiw	r28, 0x11	; 17
    376e:	0f b6       	in	r0, 0x3f	; 63
    3770:	f8 94       	cli
    3772:	de bf       	out	0x3e, r29	; 62
    3774:	0f be       	out	0x3f, r0	; 63
    3776:	cd bf       	out	0x3d, r28	; 61
    3778:	cf 91       	pop	r28
    377a:	df 91       	pop	r29
    377c:	08 95       	ret

0000377e <EEPROM_WriteString>:

void EEPROM_WriteString(u8 pageAddress, u8 dataAddress, u8* string)
{
    377e:	df 93       	push	r29
    3780:	cf 93       	push	r28
    3782:	00 d0       	rcall	.+0      	; 0x3784 <EEPROM_WriteString+0x6>
    3784:	00 d0       	rcall	.+0      	; 0x3786 <EEPROM_WriteString+0x8>
    3786:	00 d0       	rcall	.+0      	; 0x3788 <EEPROM_WriteString+0xa>
    3788:	cd b7       	in	r28, 0x3d	; 61
    378a:	de b7       	in	r29, 0x3e	; 62
    378c:	8b 83       	std	Y+3, r24	; 0x03
    378e:	6c 83       	std	Y+4, r22	; 0x04
    3790:	5e 83       	std	Y+6, r21	; 0x06
    3792:	4d 83       	std	Y+5, r20	; 0x05

	for (u8* ptr = string; *ptr != '\0'; ptr++)
    3794:	8d 81       	ldd	r24, Y+5	; 0x05
    3796:	9e 81       	ldd	r25, Y+6	; 0x06
    3798:	9a 83       	std	Y+2, r25	; 0x02
    379a:	89 83       	std	Y+1, r24	; 0x01
    379c:	10 c0       	rjmp	.+32     	; 0x37be <EEPROM_WriteString+0x40>
	{

		EEPROM_WriteByte(pageAddress, dataAddress, *ptr);
    379e:	e9 81       	ldd	r30, Y+1	; 0x01
    37a0:	fa 81       	ldd	r31, Y+2	; 0x02
    37a2:	90 81       	ld	r25, Z
    37a4:	8b 81       	ldd	r24, Y+3	; 0x03
    37a6:	6c 81       	ldd	r22, Y+4	; 0x04
    37a8:	49 2f       	mov	r20, r25
    37aa:	0e 94 7f 1a 	call	0x34fe	; 0x34fe <EEPROM_WriteByte>
		dataAddress++;
    37ae:	8c 81       	ldd	r24, Y+4	; 0x04
    37b0:	8f 5f       	subi	r24, 0xFF	; 255
    37b2:	8c 83       	std	Y+4, r24	; 0x04
}

void EEPROM_WriteString(u8 pageAddress, u8 dataAddress, u8* string)
{

	for (u8* ptr = string; *ptr != '\0'; ptr++)
    37b4:	89 81       	ldd	r24, Y+1	; 0x01
    37b6:	9a 81       	ldd	r25, Y+2	; 0x02
    37b8:	01 96       	adiw	r24, 0x01	; 1
    37ba:	9a 83       	std	Y+2, r25	; 0x02
    37bc:	89 83       	std	Y+1, r24	; 0x01
    37be:	e9 81       	ldd	r30, Y+1	; 0x01
    37c0:	fa 81       	ldd	r31, Y+2	; 0x02
    37c2:	80 81       	ld	r24, Z
    37c4:	88 23       	and	r24, r24
    37c6:	59 f7       	brne	.-42     	; 0x379e <EEPROM_WriteString+0x20>
		EEPROM_WriteByte(pageAddress, dataAddress, *ptr);
		dataAddress++;

	}

}
    37c8:	26 96       	adiw	r28, 0x06	; 6
    37ca:	0f b6       	in	r0, 0x3f	; 63
    37cc:	f8 94       	cli
    37ce:	de bf       	out	0x3e, r29	; 62
    37d0:	0f be       	out	0x3f, r0	; 63
    37d2:	cd bf       	out	0x3d, r28	; 61
    37d4:	cf 91       	pop	r28
    37d6:	df 91       	pop	r29
    37d8:	08 95       	ret

000037da <EEPROM_ReadString>:

void EEPROM_ReadString(u8 pageAddress, u8 dataAddress, u8* string, u8 size)
{
    37da:	0f 93       	push	r16
    37dc:	1f 93       	push	r17
    37de:	df 93       	push	r29
    37e0:	cf 93       	push	r28
    37e2:	00 d0       	rcall	.+0      	; 0x37e4 <EEPROM_ReadString+0xa>
    37e4:	00 d0       	rcall	.+0      	; 0x37e6 <EEPROM_ReadString+0xc>
    37e6:	00 d0       	rcall	.+0      	; 0x37e8 <EEPROM_ReadString+0xe>
    37e8:	cd b7       	in	r28, 0x3d	; 61
    37ea:	de b7       	in	r29, 0x3e	; 62
    37ec:	8a 83       	std	Y+2, r24	; 0x02
    37ee:	6b 83       	std	Y+3, r22	; 0x03
    37f0:	5d 83       	std	Y+5, r21	; 0x05
    37f2:	4c 83       	std	Y+4, r20	; 0x04
    37f4:	2e 83       	std	Y+6, r18	; 0x06

	for (u8 i = 0; i < size - 1; i++)
    37f6:	19 82       	std	Y+1, r1	; 0x01
    37f8:	14 c0       	rjmp	.+40     	; 0x3822 <EEPROM_ReadString+0x48>
	{

		string[i] = EEPROM_ReadByte(pageAddress, dataAddress);
    37fa:	89 81       	ldd	r24, Y+1	; 0x01
    37fc:	28 2f       	mov	r18, r24
    37fe:	30 e0       	ldi	r19, 0x00	; 0
    3800:	8c 81       	ldd	r24, Y+4	; 0x04
    3802:	9d 81       	ldd	r25, Y+5	; 0x05
    3804:	8c 01       	movw	r16, r24
    3806:	02 0f       	add	r16, r18
    3808:	13 1f       	adc	r17, r19
    380a:	8a 81       	ldd	r24, Y+2	; 0x02
    380c:	6b 81       	ldd	r22, Y+3	; 0x03
    380e:	0e 94 1b 1b 	call	0x3636	; 0x3636 <EEPROM_ReadByte>
    3812:	f8 01       	movw	r30, r16
    3814:	80 83       	st	Z, r24
//		LCD_displayInt(i);
		dataAddress++;
    3816:	8b 81       	ldd	r24, Y+3	; 0x03
    3818:	8f 5f       	subi	r24, 0xFF	; 255
    381a:	8b 83       	std	Y+3, r24	; 0x03
}

void EEPROM_ReadString(u8 pageAddress, u8 dataAddress, u8* string, u8 size)
{

	for (u8 i = 0; i < size - 1; i++)
    381c:	89 81       	ldd	r24, Y+1	; 0x01
    381e:	8f 5f       	subi	r24, 0xFF	; 255
    3820:	89 83       	std	Y+1, r24	; 0x01
    3822:	89 81       	ldd	r24, Y+1	; 0x01
    3824:	28 2f       	mov	r18, r24
    3826:	30 e0       	ldi	r19, 0x00	; 0
    3828:	8e 81       	ldd	r24, Y+6	; 0x06
    382a:	88 2f       	mov	r24, r24
    382c:	90 e0       	ldi	r25, 0x00	; 0
    382e:	01 97       	sbiw	r24, 0x01	; 1
    3830:	28 17       	cp	r18, r24
    3832:	39 07       	cpc	r19, r25
    3834:	14 f3       	brlt	.-60     	; 0x37fa <EEPROM_ReadString+0x20>
//		LCD_displayInt(i);
		dataAddress++;

	}

	string[size - 1] = '\0';
    3836:	8e 81       	ldd	r24, Y+6	; 0x06
    3838:	88 2f       	mov	r24, r24
    383a:	90 e0       	ldi	r25, 0x00	; 0
    383c:	9c 01       	movw	r18, r24
    383e:	21 50       	subi	r18, 0x01	; 1
    3840:	30 40       	sbci	r19, 0x00	; 0
    3842:	8c 81       	ldd	r24, Y+4	; 0x04
    3844:	9d 81       	ldd	r25, Y+5	; 0x05
    3846:	fc 01       	movw	r30, r24
    3848:	e2 0f       	add	r30, r18
    384a:	f3 1f       	adc	r31, r19
    384c:	10 82       	st	Z, r1

}
    384e:	26 96       	adiw	r28, 0x06	; 6
    3850:	0f b6       	in	r0, 0x3f	; 63
    3852:	f8 94       	cli
    3854:	de bf       	out	0x3e, r29	; 62
    3856:	0f be       	out	0x3f, r0	; 63
    3858:	cd bf       	out	0x3d, r28	; 61
    385a:	cf 91       	pop	r28
    385c:	df 91       	pop	r29
    385e:	1f 91       	pop	r17
    3860:	0f 91       	pop	r16
    3862:	08 95       	ret

00003864 <EEPROM_Search>:

u16 EEPROM_Search(u8* string, u8 dataSize)
{
    3864:	df 93       	push	r29
    3866:	cf 93       	push	r28
    3868:	cd b7       	in	r28, 0x3d	; 61
    386a:	de b7       	in	r29, 0x3e	; 62
    386c:	60 97       	sbiw	r28, 0x10	; 16
    386e:	0f b6       	in	r0, 0x3f	; 63
    3870:	f8 94       	cli
    3872:	de bf       	out	0x3e, r29	; 62
    3874:	0f be       	out	0x3f, r0	; 63
    3876:	cd bf       	out	0x3d, r28	; 61
    3878:	9f 83       	std	Y+7, r25	; 0x07
    387a:	8e 83       	std	Y+6, r24	; 0x06
    387c:	68 87       	std	Y+8, r22	; 0x08
		}
	}

	return 0;

}
    387e:	2d b7       	in	r18, 0x3d	; 61
    3880:	3e b7       	in	r19, 0x3e	; 62
    3882:	38 8b       	std	Y+16, r19	; 0x10
    3884:	2f 87       	std	Y+15, r18	; 0x0f
	string[size - 1] = '\0';

}

u16 EEPROM_Search(u8* string, u8 dataSize)
{
    3886:	8d b7       	in	r24, 0x3d	; 61
    3888:	9e b7       	in	r25, 0x3e	; 62
    388a:	9a 87       	std	Y+10, r25	; 0x0a
    388c:	89 87       	std	Y+9, r24	; 0x09


	// Page 1 contains Memory details
	u8 pageAddress = EEPROM_PAGE2;
    388e:	81 e0       	ldi	r24, 0x01	; 1
    3890:	8b 83       	std	Y+3, r24	; 0x03
	u8 tmp[dataSize];
    3892:	88 85       	ldd	r24, Y+8	; 0x08
    3894:	88 2f       	mov	r24, r24
    3896:	90 e0       	ldi	r25, 0x00	; 0
    3898:	2d b7       	in	r18, 0x3d	; 61
    389a:	3e b7       	in	r19, 0x3e	; 62
    389c:	28 1b       	sub	r18, r24
    389e:	39 0b       	sbc	r19, r25
    38a0:	0f b6       	in	r0, 0x3f	; 63
    38a2:	f8 94       	cli
    38a4:	3e bf       	out	0x3e, r19	; 62
    38a6:	0f be       	out	0x3f, r0	; 63
    38a8:	2d bf       	out	0x3d, r18	; 61
    38aa:	8d b7       	in	r24, 0x3d	; 61
    38ac:	9e b7       	in	r25, 0x3e	; 62
    38ae:	01 96       	adiw	r24, 0x01	; 1
    38b0:	9e 87       	std	Y+14, r25	; 0x0e
    38b2:	8d 87       	std	Y+13, r24	; 0x0d
    38b4:	8d 85       	ldd	r24, Y+13	; 0x0d
    38b6:	9e 85       	ldd	r25, Y+14	; 0x0e
    38b8:	00 96       	adiw	r24, 0x00	; 0
    38ba:	9e 87       	std	Y+14, r25	; 0x0e
    38bc:	8d 87       	std	Y+13, r24	; 0x0d
    38be:	2d 85       	ldd	r18, Y+13	; 0x0d
    38c0:	3e 85       	ldd	r19, Y+14	; 0x0e
    38c2:	3d 83       	std	Y+5, r19	; 0x05
    38c4:	2c 83       	std	Y+4, r18	; 0x04

	for (u8 i = pageAddress; i < MAX_NUM_OF_PAGES; i++)
    38c6:	8b 81       	ldd	r24, Y+3	; 0x03
    38c8:	8a 83       	std	Y+2, r24	; 0x02
    38ca:	8a 81       	ldd	r24, Y+2	; 0x02
    38cc:	88 30       	cpi	r24, 0x08	; 8
    38ce:	20 f5       	brcc	.+72     	; 0x3918 <EEPROM_Search+0xb4>
	{

		for (u8 j = 0; j < MAX_NUM_OF_BYTES; j += dataSize)
    38d0:	19 82       	std	Y+1, r1	; 0x01
		{

			EEPROM_ReadString(i, j, tmp, dataSize);
    38d2:	2c 81       	ldd	r18, Y+4	; 0x04
    38d4:	3d 81       	ldd	r19, Y+5	; 0x05
    38d6:	8a 81       	ldd	r24, Y+2	; 0x02
    38d8:	69 81       	ldd	r22, Y+1	; 0x01
    38da:	a9 01       	movw	r20, r18
    38dc:	28 85       	ldd	r18, Y+8	; 0x08
    38de:	0e 94 ed 1b 	call	0x37da	; 0x37da <EEPROM_ReadString>

			if ( strcmp(string, tmp) == 0 )
    38e2:	2c 81       	ldd	r18, Y+4	; 0x04
    38e4:	3d 81       	ldd	r19, Y+5	; 0x05
    38e6:	8e 81       	ldd	r24, Y+6	; 0x06
    38e8:	9f 81       	ldd	r25, Y+7	; 0x07
    38ea:	b9 01       	movw	r22, r18
    38ec:	0e 94 12 2b 	call	0x5624	; 0x5624 <strcmp>
    38f0:	00 97       	sbiw	r24, 0x00	; 0
    38f2:	69 f4       	brne	.+26     	; 0x390e <EEPROM_Search+0xaa>
			{
				// Page Address | Byte Address
				return  ( i << 8 | j);
    38f4:	8a 81       	ldd	r24, Y+2	; 0x02
    38f6:	88 2f       	mov	r24, r24
    38f8:	90 e0       	ldi	r25, 0x00	; 0
    38fa:	38 2f       	mov	r19, r24
    38fc:	22 27       	eor	r18, r18
    38fe:	89 81       	ldd	r24, Y+1	; 0x01
    3900:	88 2f       	mov	r24, r24
    3902:	90 e0       	ldi	r25, 0x00	; 0
    3904:	82 2b       	or	r24, r18
    3906:	93 2b       	or	r25, r19
    3908:	9c 87       	std	Y+12, r25	; 0x0c
    390a:	8b 87       	std	Y+11, r24	; 0x0b
    390c:	07 c0       	rjmp	.+14     	; 0x391c <EEPROM_Search+0xb8>
	u8 tmp[dataSize];

	for (u8 i = pageAddress; i < MAX_NUM_OF_PAGES; i++)
	{

		for (u8 j = 0; j < MAX_NUM_OF_BYTES; j += dataSize)
    390e:	89 81       	ldd	r24, Y+1	; 0x01
    3910:	98 85       	ldd	r25, Y+8	; 0x08
    3912:	89 0f       	add	r24, r25
    3914:	89 83       	std	Y+1, r24	; 0x01
    3916:	dd cf       	rjmp	.-70     	; 0x38d2 <EEPROM_Search+0x6e>
			}

		}
	}

	return 0;
    3918:	1c 86       	std	Y+12, r1	; 0x0c
    391a:	1b 86       	std	Y+11, r1	; 0x0b
    391c:	89 85       	ldd	r24, Y+9	; 0x09
    391e:	9a 85       	ldd	r25, Y+10	; 0x0a
    3920:	0f b6       	in	r0, 0x3f	; 63
    3922:	f8 94       	cli
    3924:	9e bf       	out	0x3e, r25	; 62
    3926:	0f be       	out	0x3f, r0	; 63
    3928:	8d bf       	out	0x3d, r24	; 61
    392a:	8b 85       	ldd	r24, Y+11	; 0x0b
    392c:	9c 85       	ldd	r25, Y+12	; 0x0c

}
    392e:	2f 85       	ldd	r18, Y+15	; 0x0f
    3930:	38 89       	ldd	r19, Y+16	; 0x10
    3932:	0f b6       	in	r0, 0x3f	; 63
    3934:	f8 94       	cli
    3936:	3e bf       	out	0x3e, r19	; 62
    3938:	0f be       	out	0x3f, r0	; 63
    393a:	2d bf       	out	0x3d, r18	; 61
    393c:	60 96       	adiw	r28, 0x10	; 16
    393e:	0f b6       	in	r0, 0x3f	; 63
    3940:	f8 94       	cli
    3942:	de bf       	out	0x3e, r29	; 62
    3944:	0f be       	out	0x3f, r0	; 63
    3946:	cd bf       	out	0x3d, r28	; 61
    3948:	cf 91       	pop	r28
    394a:	df 91       	pop	r29
    394c:	08 95       	ret

0000394e <DCMotor_Init>:
#define SOURCE_02_ECUA_DCMOTOR_SRC_DCMOTOR_C_

#include "DCMotor.h"

void DCMotor_Init(dcmotor_motorID_t motorID)
{
    394e:	df 93       	push	r29
    3950:	cf 93       	push	r28
    3952:	00 d0       	rcall	.+0      	; 0x3954 <DCMotor_Init+0x6>
    3954:	0f 92       	push	r0
    3956:	cd b7       	in	r28, 0x3d	; 61
    3958:	de b7       	in	r29, 0x3e	; 62
    395a:	89 83       	std	Y+1, r24	; 0x01

	switch (motorID)
    395c:	89 81       	ldd	r24, Y+1	; 0x01
    395e:	28 2f       	mov	r18, r24
    3960:	30 e0       	ldi	r19, 0x00	; 0
    3962:	3b 83       	std	Y+3, r19	; 0x03
    3964:	2a 83       	std	Y+2, r18	; 0x02
    3966:	8a 81       	ldd	r24, Y+2	; 0x02
    3968:	9b 81       	ldd	r25, Y+3	; 0x03
    396a:	00 97       	sbiw	r24, 0x00	; 0
    396c:	31 f0       	breq	.+12     	; 0x397a <DCMotor_Init+0x2c>
    396e:	2a 81       	ldd	r18, Y+2	; 0x02
    3970:	3b 81       	ldd	r19, Y+3	; 0x03
    3972:	21 30       	cpi	r18, 0x01	; 1
    3974:	31 05       	cpc	r19, r1
    3976:	b1 f0       	breq	.+44     	; 0x39a4 <DCMotor_Init+0x56>
    3978:	29 c0       	rjmp	.+82     	; 0x39cc <DCMotor_Init+0x7e>
	{

	case DCMOTOR_1:
		// Enable
		Dio_configChanel(DIO_PORTD, DIO_PIN4, DIO_OUTPUT);
    397a:	83 e0       	ldi	r24, 0x03	; 3
    397c:	64 e0       	ldi	r22, 0x04	; 4
    397e:	41 e0       	ldi	r20, 0x01	; 1
    3980:	0e 94 be 25 	call	0x4b7c	; 0x4b7c <Dio_configChanel>
		// Motor is stop
		Dio_writeChanel(DIO_PORTD, DIO_PIN4, DIO_LOW);
    3984:	83 e0       	ldi	r24, 0x03	; 3
    3986:	64 e0       	ldi	r22, 0x04	; 4
    3988:	40 e0       	ldi	r20, 0x00	; 0
    398a:	0e 94 a1 26 	call	0x4d42	; 0x4d42 <Dio_writeChanel>

		// Switches of H bridges
		Dio_configChanel(DIO_PORTD, DIO_PIN2, DIO_OUTPUT);
    398e:	83 e0       	ldi	r24, 0x03	; 3
    3990:	62 e0       	ldi	r22, 0x02	; 2
    3992:	41 e0       	ldi	r20, 0x01	; 1
    3994:	0e 94 be 25 	call	0x4b7c	; 0x4b7c <Dio_configChanel>
		Dio_configChanel(DIO_PORTD, DIO_PIN3, DIO_OUTPUT);
    3998:	83 e0       	ldi	r24, 0x03	; 3
    399a:	63 e0       	ldi	r22, 0x03	; 3
    399c:	41 e0       	ldi	r20, 0x01	; 1
    399e:	0e 94 be 25 	call	0x4b7c	; 0x4b7c <Dio_configChanel>
    39a2:	14 c0       	rjmp	.+40     	; 0x39cc <DCMotor_Init+0x7e>
		break;

	case DCMOTOR_2:
		// Enable
		Dio_configChanel(DIO_PORTC, DIO_PIN5, DIO_OUTPUT);
    39a4:	82 e0       	ldi	r24, 0x02	; 2
    39a6:	65 e0       	ldi	r22, 0x05	; 5
    39a8:	41 e0       	ldi	r20, 0x01	; 1
    39aa:	0e 94 be 25 	call	0x4b7c	; 0x4b7c <Dio_configChanel>
		// Motor is stop
		Dio_writeChanel(DIO_PORTC, DIO_PIN5, DIO_LOW);
    39ae:	82 e0       	ldi	r24, 0x02	; 2
    39b0:	65 e0       	ldi	r22, 0x05	; 5
    39b2:	40 e0       	ldi	r20, 0x00	; 0
    39b4:	0e 94 a1 26 	call	0x4d42	; 0x4d42 <Dio_writeChanel>

		// Switches of H bridges
		Dio_configChanel(DIO_PORTC, DIO_PIN3, DIO_OUTPUT);
    39b8:	82 e0       	ldi	r24, 0x02	; 2
    39ba:	63 e0       	ldi	r22, 0x03	; 3
    39bc:	41 e0       	ldi	r20, 0x01	; 1
    39be:	0e 94 be 25 	call	0x4b7c	; 0x4b7c <Dio_configChanel>
		Dio_configChanel(DIO_PORTC, DIO_PIN4, DIO_OUTPUT);
    39c2:	82 e0       	ldi	r24, 0x02	; 2
    39c4:	64 e0       	ldi	r22, 0x04	; 4
    39c6:	41 e0       	ldi	r20, 0x01	; 1
    39c8:	0e 94 be 25 	call	0x4b7c	; 0x4b7c <Dio_configChanel>
		break;

	}


}
    39cc:	0f 90       	pop	r0
    39ce:	0f 90       	pop	r0
    39d0:	0f 90       	pop	r0
    39d2:	cf 91       	pop	r28
    39d4:	df 91       	pop	r29
    39d6:	08 95       	ret

000039d8 <DCMotor_Start>:


void DCMotor_Start(dcmotor_motorID_t motor, dcmotor_direction_t direction)
{
    39d8:	df 93       	push	r29
    39da:	cf 93       	push	r28
    39dc:	cd b7       	in	r28, 0x3d	; 61
    39de:	de b7       	in	r29, 0x3e	; 62
    39e0:	28 97       	sbiw	r28, 0x08	; 8
    39e2:	0f b6       	in	r0, 0x3f	; 63
    39e4:	f8 94       	cli
    39e6:	de bf       	out	0x3e, r29	; 62
    39e8:	0f be       	out	0x3f, r0	; 63
    39ea:	cd bf       	out	0x3d, r28	; 61
    39ec:	89 83       	std	Y+1, r24	; 0x01
    39ee:	6a 83       	std	Y+2, r22	; 0x02

	switch(motor)
    39f0:	89 81       	ldd	r24, Y+1	; 0x01
    39f2:	28 2f       	mov	r18, r24
    39f4:	30 e0       	ldi	r19, 0x00	; 0
    39f6:	38 87       	std	Y+8, r19	; 0x08
    39f8:	2f 83       	std	Y+7, r18	; 0x07
    39fa:	8f 81       	ldd	r24, Y+7	; 0x07
    39fc:	98 85       	ldd	r25, Y+8	; 0x08
    39fe:	00 97       	sbiw	r24, 0x00	; 0
    3a00:	31 f0       	breq	.+12     	; 0x3a0e <DCMotor_Start+0x36>
    3a02:	2f 81       	ldd	r18, Y+7	; 0x07
    3a04:	38 85       	ldd	r19, Y+8	; 0x08
    3a06:	21 30       	cpi	r18, 0x01	; 1
    3a08:	31 05       	cpc	r19, r1
    3a0a:	59 f1       	breq	.+86     	; 0x3a62 <DCMotor_Start+0x8a>
    3a0c:	53 c0       	rjmp	.+166    	; 0x3ab4 <DCMotor_Start+0xdc>
	{

	case DCMOTOR_1:

		// Enable
		Dio_writeChanel(DIO_PORTD, DIO_PIN4, DIO_HIGH);
    3a0e:	83 e0       	ldi	r24, 0x03	; 3
    3a10:	64 e0       	ldi	r22, 0x04	; 4
    3a12:	41 e0       	ldi	r20, 0x01	; 1
    3a14:	0e 94 a1 26 	call	0x4d42	; 0x4d42 <Dio_writeChanel>
		switch (direction)
    3a18:	8a 81       	ldd	r24, Y+2	; 0x02
    3a1a:	28 2f       	mov	r18, r24
    3a1c:	30 e0       	ldi	r19, 0x00	; 0
    3a1e:	3e 83       	std	Y+6, r19	; 0x06
    3a20:	2d 83       	std	Y+5, r18	; 0x05
    3a22:	8d 81       	ldd	r24, Y+5	; 0x05
    3a24:	9e 81       	ldd	r25, Y+6	; 0x06
    3a26:	00 97       	sbiw	r24, 0x00	; 0
    3a28:	31 f0       	breq	.+12     	; 0x3a36 <DCMotor_Start+0x5e>
    3a2a:	2d 81       	ldd	r18, Y+5	; 0x05
    3a2c:	3e 81       	ldd	r19, Y+6	; 0x06
    3a2e:	21 30       	cpi	r18, 0x01	; 1
    3a30:	31 05       	cpc	r19, r1
    3a32:	61 f0       	breq	.+24     	; 0x3a4c <DCMotor_Start+0x74>
    3a34:	3f c0       	rjmp	.+126    	; 0x3ab4 <DCMotor_Start+0xdc>
		{

		case DCMOTOR_CLOCKWISE:
			Dio_writeChanel(DIO_PORTD, DIO_PIN2, DIO_HIGH);
    3a36:	83 e0       	ldi	r24, 0x03	; 3
    3a38:	62 e0       	ldi	r22, 0x02	; 2
    3a3a:	41 e0       	ldi	r20, 0x01	; 1
    3a3c:	0e 94 a1 26 	call	0x4d42	; 0x4d42 <Dio_writeChanel>
			Dio_writeChanel(DIO_PORTD, DIO_PIN3, DIO_LOW);
    3a40:	83 e0       	ldi	r24, 0x03	; 3
    3a42:	63 e0       	ldi	r22, 0x03	; 3
    3a44:	40 e0       	ldi	r20, 0x00	; 0
    3a46:	0e 94 a1 26 	call	0x4d42	; 0x4d42 <Dio_writeChanel>
    3a4a:	34 c0       	rjmp	.+104    	; 0x3ab4 <DCMotor_Start+0xdc>
			break;

		case DCMOTOR_ANTICLOCKWISE:
			Dio_writeChanel(DIO_PORTD, DIO_PIN2, DIO_LOW);
    3a4c:	83 e0       	ldi	r24, 0x03	; 3
    3a4e:	62 e0       	ldi	r22, 0x02	; 2
    3a50:	40 e0       	ldi	r20, 0x00	; 0
    3a52:	0e 94 a1 26 	call	0x4d42	; 0x4d42 <Dio_writeChanel>
			Dio_writeChanel(DIO_PORTD, DIO_PIN3, DIO_HIGH);
    3a56:	83 e0       	ldi	r24, 0x03	; 3
    3a58:	63 e0       	ldi	r22, 0x03	; 3
    3a5a:	41 e0       	ldi	r20, 0x01	; 1
    3a5c:	0e 94 a1 26 	call	0x4d42	; 0x4d42 <Dio_writeChanel>
    3a60:	29 c0       	rjmp	.+82     	; 0x3ab4 <DCMotor_Start+0xdc>
		}

		break;
	case DCMOTOR_2:

		Dio_writeChanel(DIO_PORTD, DIO_PIN5, DIO_HIGH);
    3a62:	83 e0       	ldi	r24, 0x03	; 3
    3a64:	65 e0       	ldi	r22, 0x05	; 5
    3a66:	41 e0       	ldi	r20, 0x01	; 1
    3a68:	0e 94 a1 26 	call	0x4d42	; 0x4d42 <Dio_writeChanel>
		switch (direction)
    3a6c:	8a 81       	ldd	r24, Y+2	; 0x02
    3a6e:	28 2f       	mov	r18, r24
    3a70:	30 e0       	ldi	r19, 0x00	; 0
    3a72:	3c 83       	std	Y+4, r19	; 0x04
    3a74:	2b 83       	std	Y+3, r18	; 0x03
    3a76:	8b 81       	ldd	r24, Y+3	; 0x03
    3a78:	9c 81       	ldd	r25, Y+4	; 0x04
    3a7a:	00 97       	sbiw	r24, 0x00	; 0
    3a7c:	31 f0       	breq	.+12     	; 0x3a8a <DCMotor_Start+0xb2>
    3a7e:	2b 81       	ldd	r18, Y+3	; 0x03
    3a80:	3c 81       	ldd	r19, Y+4	; 0x04
    3a82:	21 30       	cpi	r18, 0x01	; 1
    3a84:	31 05       	cpc	r19, r1
    3a86:	61 f0       	breq	.+24     	; 0x3aa0 <DCMotor_Start+0xc8>
    3a88:	15 c0       	rjmp	.+42     	; 0x3ab4 <DCMotor_Start+0xdc>
		{

		case DCMOTOR_CLOCKWISE:
			Dio_writeChanel(DIO_PORTC, DIO_PIN5, DIO_HIGH);
    3a8a:	82 e0       	ldi	r24, 0x02	; 2
    3a8c:	65 e0       	ldi	r22, 0x05	; 5
    3a8e:	41 e0       	ldi	r20, 0x01	; 1
    3a90:	0e 94 a1 26 	call	0x4d42	; 0x4d42 <Dio_writeChanel>
			Dio_writeChanel(DIO_PORTC, DIO_PIN6, DIO_LOW);
    3a94:	82 e0       	ldi	r24, 0x02	; 2
    3a96:	66 e0       	ldi	r22, 0x06	; 6
    3a98:	40 e0       	ldi	r20, 0x00	; 0
    3a9a:	0e 94 a1 26 	call	0x4d42	; 0x4d42 <Dio_writeChanel>
    3a9e:	0a c0       	rjmp	.+20     	; 0x3ab4 <DCMotor_Start+0xdc>
			break;

		case DCMOTOR_ANTICLOCKWISE:
			Dio_writeChanel(DIO_PORTC, DIO_PIN5, DIO_LOW);
    3aa0:	82 e0       	ldi	r24, 0x02	; 2
    3aa2:	65 e0       	ldi	r22, 0x05	; 5
    3aa4:	40 e0       	ldi	r20, 0x00	; 0
    3aa6:	0e 94 a1 26 	call	0x4d42	; 0x4d42 <Dio_writeChanel>
			Dio_writeChanel(DIO_PORTC, DIO_PIN6, DIO_HIGH);
    3aaa:	82 e0       	ldi	r24, 0x02	; 2
    3aac:	66 e0       	ldi	r22, 0x06	; 6
    3aae:	41 e0       	ldi	r20, 0x01	; 1
    3ab0:	0e 94 a1 26 	call	0x4d42	; 0x4d42 <Dio_writeChanel>

		break;

	}

}
    3ab4:	28 96       	adiw	r28, 0x08	; 8
    3ab6:	0f b6       	in	r0, 0x3f	; 63
    3ab8:	f8 94       	cli
    3aba:	de bf       	out	0x3e, r29	; 62
    3abc:	0f be       	out	0x3f, r0	; 63
    3abe:	cd bf       	out	0x3d, r28	; 61
    3ac0:	cf 91       	pop	r28
    3ac2:	df 91       	pop	r29
    3ac4:	08 95       	ret

00003ac6 <DCMotor_Stop>:

void DCMotor_Stop(dcmotor_motorID_t motor)
{
    3ac6:	df 93       	push	r29
    3ac8:	cf 93       	push	r28
    3aca:	00 d0       	rcall	.+0      	; 0x3acc <DCMotor_Stop+0x6>
    3acc:	0f 92       	push	r0
    3ace:	cd b7       	in	r28, 0x3d	; 61
    3ad0:	de b7       	in	r29, 0x3e	; 62
    3ad2:	89 83       	std	Y+1, r24	; 0x01

	switch(motor)
    3ad4:	89 81       	ldd	r24, Y+1	; 0x01
    3ad6:	28 2f       	mov	r18, r24
    3ad8:	30 e0       	ldi	r19, 0x00	; 0
    3ada:	3b 83       	std	Y+3, r19	; 0x03
    3adc:	2a 83       	std	Y+2, r18	; 0x02
    3ade:	8a 81       	ldd	r24, Y+2	; 0x02
    3ae0:	9b 81       	ldd	r25, Y+3	; 0x03
    3ae2:	00 97       	sbiw	r24, 0x00	; 0
    3ae4:	31 f0       	breq	.+12     	; 0x3af2 <DCMotor_Stop+0x2c>
    3ae6:	2a 81       	ldd	r18, Y+2	; 0x02
    3ae8:	3b 81       	ldd	r19, Y+3	; 0x03
    3aea:	21 30       	cpi	r18, 0x01	; 1
    3aec:	31 05       	cpc	r19, r1
    3aee:	39 f0       	breq	.+14     	; 0x3afe <DCMotor_Stop+0x38>
    3af0:	0b c0       	rjmp	.+22     	; 0x3b08 <DCMotor_Stop+0x42>
	{

	case DCMOTOR_1:
		Dio_writeChanel(DIO_PORTD, DIO_PIN4, DIO_LOW);
    3af2:	83 e0       	ldi	r24, 0x03	; 3
    3af4:	64 e0       	ldi	r22, 0x04	; 4
    3af6:	40 e0       	ldi	r20, 0x00	; 0
    3af8:	0e 94 a1 26 	call	0x4d42	; 0x4d42 <Dio_writeChanel>
    3afc:	05 c0       	rjmp	.+10     	; 0x3b08 <DCMotor_Stop+0x42>
		break;
	case DCMOTOR_2:
		Dio_writeChanel(DIO_PORTD, DIO_PIN5, DIO_LOW);
    3afe:	83 e0       	ldi	r24, 0x03	; 3
    3b00:	65 e0       	ldi	r22, 0x05	; 5
    3b02:	40 e0       	ldi	r20, 0x00	; 0
    3b04:	0e 94 a1 26 	call	0x4d42	; 0x4d42 <Dio_writeChanel>
		break;

	}

}
    3b08:	0f 90       	pop	r0
    3b0a:	0f 90       	pop	r0
    3b0c:	0f 90       	pop	r0
    3b0e:	cf 91       	pop	r28
    3b10:	df 91       	pop	r29
    3b12:	08 95       	ret

00003b14 <Buzzer_init>:
 */

#include "Buzzer.h"

void Buzzer_init()
{
    3b14:	df 93       	push	r29
    3b16:	cf 93       	push	r28
    3b18:	cd b7       	in	r28, 0x3d	; 61
    3b1a:	de b7       	in	r29, 0x3e	; 62

	Dio_configChanel(DIO_PORTA, DIO_PIN3, DIO_OUTPUT);
    3b1c:	80 e0       	ldi	r24, 0x00	; 0
    3b1e:	63 e0       	ldi	r22, 0x03	; 3
    3b20:	41 e0       	ldi	r20, 0x01	; 1
    3b22:	0e 94 be 25 	call	0x4b7c	; 0x4b7c <Dio_configChanel>

}
    3b26:	cf 91       	pop	r28
    3b28:	df 91       	pop	r29
    3b2a:	08 95       	ret

00003b2c <Buzzer_turnOn>:

void Buzzer_turnOn()
{
    3b2c:	df 93       	push	r29
    3b2e:	cf 93       	push	r28
    3b30:	cd b7       	in	r28, 0x3d	; 61
    3b32:	de b7       	in	r29, 0x3e	; 62

	Dio_writeChanel(DIO_PORTA, DIO_PIN3, DIO_HIGH);
    3b34:	80 e0       	ldi	r24, 0x00	; 0
    3b36:	63 e0       	ldi	r22, 0x03	; 3
    3b38:	41 e0       	ldi	r20, 0x01	; 1
    3b3a:	0e 94 a1 26 	call	0x4d42	; 0x4d42 <Dio_writeChanel>

}
    3b3e:	cf 91       	pop	r28
    3b40:	df 91       	pop	r29
    3b42:	08 95       	ret

00003b44 <Buzzer_turnOff>:

void Buzzer_turnOff()
{
    3b44:	df 93       	push	r29
    3b46:	cf 93       	push	r28
    3b48:	cd b7       	in	r28, 0x3d	; 61
    3b4a:	de b7       	in	r29, 0x3e	; 62

	Dio_writeChanel(DIO_PORTA, DIO_PIN3, DIO_LOW);
    3b4c:	80 e0       	ldi	r24, 0x00	; 0
    3b4e:	63 e0       	ldi	r22, 0x03	; 3
    3b50:	40 e0       	ldi	r20, 0x00	; 0
    3b52:	0e 94 a1 26 	call	0x4d42	; 0x4d42 <Dio_writeChanel>

}
    3b56:	cf 91       	pop	r28
    3b58:	df 91       	pop	r29
    3b5a:	08 95       	ret

00003b5c <Button_buttonInit>:
 */

#include "Button.h"

void Button_buttonInit()
{
    3b5c:	df 93       	push	r29
    3b5e:	cf 93       	push	r28
    3b60:	cd b7       	in	r28, 0x3d	; 61
    3b62:	de b7       	in	r29, 0x3e	; 62

	Dio_configChanel(DIO_PORTB, DIO_PIN0, DIO_INPUT);
    3b64:	81 e0       	ldi	r24, 0x01	; 1
    3b66:	60 e0       	ldi	r22, 0x00	; 0
    3b68:	40 e0       	ldi	r20, 0x00	; 0
    3b6a:	0e 94 be 25 	call	0x4b7c	; 0x4b7c <Dio_configChanel>
	Dio_configChanel(DIO_PORTD, DIO_PIN6, DIO_INPUT);
    3b6e:	83 e0       	ldi	r24, 0x03	; 3
    3b70:	66 e0       	ldi	r22, 0x06	; 6
    3b72:	40 e0       	ldi	r20, 0x00	; 0
    3b74:	0e 94 be 25 	call	0x4b7c	; 0x4b7c <Dio_configChanel>
	Dio_configChanel(DIO_PORTD, DIO_PIN2, DIO_INPUT);
    3b78:	83 e0       	ldi	r24, 0x03	; 3
    3b7a:	62 e0       	ldi	r22, 0x02	; 2
    3b7c:	40 e0       	ldi	r20, 0x00	; 0
    3b7e:	0e 94 be 25 	call	0x4b7c	; 0x4b7c <Dio_configChanel>

}
    3b82:	cf 91       	pop	r28
    3b84:	df 91       	pop	r29
    3b86:	08 95       	ret

00003b88 <Button_udtisPressed>:

button_buttonState_t Button_udtisPressed(button_buttonId_t button)
{
    3b88:	df 93       	push	r29
    3b8a:	cf 93       	push	r28
    3b8c:	00 d0       	rcall	.+0      	; 0x3b8e <Button_udtisPressed+0x6>
    3b8e:	00 d0       	rcall	.+0      	; 0x3b90 <Button_udtisPressed+0x8>
    3b90:	cd b7       	in	r28, 0x3d	; 61
    3b92:	de b7       	in	r29, 0x3e	; 62
    3b94:	8a 83       	std	Y+2, r24	; 0x02

	button_buttonState_t returnValue = 0;
    3b96:	19 82       	std	Y+1, r1	; 0x01

	switch (button)
    3b98:	8a 81       	ldd	r24, Y+2	; 0x02
    3b9a:	28 2f       	mov	r18, r24
    3b9c:	30 e0       	ldi	r19, 0x00	; 0
    3b9e:	3c 83       	std	Y+4, r19	; 0x04
    3ba0:	2b 83       	std	Y+3, r18	; 0x03
    3ba2:	8b 81       	ldd	r24, Y+3	; 0x03
    3ba4:	9c 81       	ldd	r25, Y+4	; 0x04
    3ba6:	81 30       	cpi	r24, 0x01	; 1
    3ba8:	91 05       	cpc	r25, r1
    3baa:	79 f0       	breq	.+30     	; 0x3bca <Button_udtisPressed+0x42>
    3bac:	2b 81       	ldd	r18, Y+3	; 0x03
    3bae:	3c 81       	ldd	r19, Y+4	; 0x04
    3bb0:	22 30       	cpi	r18, 0x02	; 2
    3bb2:	31 05       	cpc	r19, r1
    3bb4:	81 f0       	breq	.+32     	; 0x3bd6 <Button_udtisPressed+0x4e>
    3bb6:	8b 81       	ldd	r24, Y+3	; 0x03
    3bb8:	9c 81       	ldd	r25, Y+4	; 0x04
    3bba:	00 97       	sbiw	r24, 0x00	; 0
    3bbc:	89 f4       	brne	.+34     	; 0x3be0 <Button_udtisPressed+0x58>
	{
		case BUTTON0:
			returnValue = Dio_udtreadChanel(DIO_PORTB, DIO_PIN0);
    3bbe:	81 e0       	ldi	r24, 0x01	; 1
    3bc0:	60 e0       	ldi	r22, 0x00	; 0
    3bc2:	0e 94 e0 27 	call	0x4fc0	; 0x4fc0 <Dio_udtreadChanel>
    3bc6:	89 83       	std	Y+1, r24	; 0x01
    3bc8:	0b c0       	rjmp	.+22     	; 0x3be0 <Button_udtisPressed+0x58>
			break;

		case BUTTON1:
			returnValue = Dio_udtreadChanel(DIO_PORTD, DIO_PIN6);
    3bca:	83 e0       	ldi	r24, 0x03	; 3
    3bcc:	66 e0       	ldi	r22, 0x06	; 6
    3bce:	0e 94 e0 27 	call	0x4fc0	; 0x4fc0 <Dio_udtreadChanel>
    3bd2:	89 83       	std	Y+1, r24	; 0x01
    3bd4:	05 c0       	rjmp	.+10     	; 0x3be0 <Button_udtisPressed+0x58>
			break;
		case BUTTON2:
			returnValue = Dio_udtreadChanel(DIO_PORTD, DIO_PIN2);
    3bd6:	83 e0       	ldi	r24, 0x03	; 3
    3bd8:	62 e0       	ldi	r22, 0x02	; 2
    3bda:	0e 94 e0 27 	call	0x4fc0	; 0x4fc0 <Dio_udtreadChanel>
    3bde:	89 83       	std	Y+1, r24	; 0x01
			break;
	}

	return returnValue;
    3be0:	89 81       	ldd	r24, Y+1	; 0x01

}
    3be2:	0f 90       	pop	r0
    3be4:	0f 90       	pop	r0
    3be6:	0f 90       	pop	r0
    3be8:	0f 90       	pop	r0
    3bea:	cf 91       	pop	r28
    3bec:	df 91       	pop	r29
    3bee:	08 95       	ret

00003bf0 <Watchdog_ON>:
#include "watchdog.h"



void Watchdog_ON()
{
    3bf0:	df 93       	push	r29
    3bf2:	cf 93       	push	r28
    3bf4:	cd b7       	in	r28, 0x3d	; 61
    3bf6:	de b7       	in	r29, 0x3e	; 62
	/*
	Watchdog timer enables with typical timeout period 2.1
	second.
	*/
	// One Second
	WDTCR = (1<<3)|(1<<2)|(1<<1);
    3bf8:	e1 e4       	ldi	r30, 0x41	; 65
    3bfa:	f0 e0       	ldi	r31, 0x00	; 0
    3bfc:	8e e0       	ldi	r24, 0x0E	; 14
    3bfe:	80 83       	st	Z, r24
}
    3c00:	cf 91       	pop	r28
    3c02:	df 91       	pop	r29
    3c04:	08 95       	ret

00003c06 <Watchdog_OFF>:

void Watchdog_OFF()
{
    3c06:	df 93       	push	r29
    3c08:	cf 93       	push	r28
    3c0a:	cd b7       	in	r28, 0x3d	; 61
    3c0c:	de b7       	in	r29, 0x3e	; 62
	/*
	This function use for disable the watchdog timer.
	*/
	WDTCR = (1<<4)|(1<<3);
    3c0e:	e1 e4       	ldi	r30, 0x41	; 65
    3c10:	f0 e0       	ldi	r31, 0x00	; 0
    3c12:	88 e1       	ldi	r24, 0x18	; 24
    3c14:	80 83       	st	Z, r24
	WDTCR = 0x00;
    3c16:	e1 e4       	ldi	r30, 0x41	; 65
    3c18:	f0 e0       	ldi	r31, 0x00	; 0
    3c1a:	10 82       	st	Z, r1
}
    3c1c:	cf 91       	pop	r28
    3c1e:	df 91       	pop	r29
    3c20:	08 95       	ret

00003c22 <UART_Init>:
#include "Led.h"
#include <util/delay.h>
#include <avr/io.h>

void UART_Init(u32 baudrate)
{
    3c22:	df 93       	push	r29
    3c24:	cf 93       	push	r28
    3c26:	cd b7       	in	r28, 0x3d	; 61
    3c28:	de b7       	in	r29, 0x3e	; 62
    3c2a:	28 97       	sbiw	r28, 0x08	; 8
    3c2c:	0f b6       	in	r0, 0x3f	; 63
    3c2e:	f8 94       	cli
    3c30:	de bf       	out	0x3e, r29	; 62
    3c32:	0f be       	out	0x3f, r0	; 63
    3c34:	cd bf       	out	0x3d, r28	; 61
    3c36:	6d 83       	std	Y+5, r22	; 0x05
    3c38:	7e 83       	std	Y+6, r23	; 0x06
    3c3a:	8f 83       	std	Y+7, r24	; 0x07
    3c3c:	98 87       	std	Y+8, r25	; 0x08

	// Enable Tx, Rx
	UART_UCSRB_REG |= 3 << 3;
    3c3e:	aa e2       	ldi	r26, 0x2A	; 42
    3c40:	b0 e0       	ldi	r27, 0x00	; 0
    3c42:	ea e2       	ldi	r30, 0x2A	; 42
    3c44:	f0 e0       	ldi	r31, 0x00	; 0
    3c46:	80 81       	ld	r24, Z
    3c48:	88 61       	ori	r24, 0x18	; 24
    3c4a:	8c 93       	st	X, r24

	// Set baudrate
	u32 ubrr = ( (16000000.0 / (16.0 * baudrate)) - 1);
    3c4c:	6d 81       	ldd	r22, Y+5	; 0x05
    3c4e:	7e 81       	ldd	r23, Y+6	; 0x06
    3c50:	8f 81       	ldd	r24, Y+7	; 0x07
    3c52:	98 85       	ldd	r25, Y+8	; 0x08
    3c54:	0e 94 07 05 	call	0xa0e	; 0xa0e <__floatunsisf>
    3c58:	dc 01       	movw	r26, r24
    3c5a:	cb 01       	movw	r24, r22
    3c5c:	bc 01       	movw	r22, r24
    3c5e:	cd 01       	movw	r24, r26
    3c60:	20 e0       	ldi	r18, 0x00	; 0
    3c62:	30 e0       	ldi	r19, 0x00	; 0
    3c64:	40 e8       	ldi	r20, 0x80	; 128
    3c66:	51 e4       	ldi	r21, 0x41	; 65
    3c68:	0e 94 1f 02 	call	0x43e	; 0x43e <__mulsf3>
    3c6c:	dc 01       	movw	r26, r24
    3c6e:	cb 01       	movw	r24, r22
    3c70:	9c 01       	movw	r18, r24
    3c72:	ad 01       	movw	r20, r26
    3c74:	60 e0       	ldi	r22, 0x00	; 0
    3c76:	74 e2       	ldi	r23, 0x24	; 36
    3c78:	84 e7       	ldi	r24, 0x74	; 116
    3c7a:	9b e4       	ldi	r25, 0x4B	; 75
    3c7c:	0e 94 19 03 	call	0x632	; 0x632 <__divsf3>
    3c80:	dc 01       	movw	r26, r24
    3c82:	cb 01       	movw	r24, r22
    3c84:	bc 01       	movw	r22, r24
    3c86:	cd 01       	movw	r24, r26
    3c88:	20 e0       	ldi	r18, 0x00	; 0
    3c8a:	30 e0       	ldi	r19, 0x00	; 0
    3c8c:	40 e8       	ldi	r20, 0x80	; 128
    3c8e:	5f e3       	ldi	r21, 0x3F	; 63
    3c90:	0e 94 c1 01 	call	0x382	; 0x382 <__subsf3>
    3c94:	dc 01       	movw	r26, r24
    3c96:	cb 01       	movw	r24, r22
    3c98:	bc 01       	movw	r22, r24
    3c9a:	cd 01       	movw	r24, r26
    3c9c:	0e 94 49 00 	call	0x92	; 0x92 <__fixunssfsi>
    3ca0:	dc 01       	movw	r26, r24
    3ca2:	cb 01       	movw	r24, r22
    3ca4:	89 83       	std	Y+1, r24	; 0x01
    3ca6:	9a 83       	std	Y+2, r25	; 0x02
    3ca8:	ab 83       	std	Y+3, r26	; 0x03
    3caa:	bc 83       	std	Y+4, r27	; 0x04
	UART_UBRRH_REG = ubrr >> 8;
    3cac:	e0 e4       	ldi	r30, 0x40	; 64
    3cae:	f0 e0       	ldi	r31, 0x00	; 0
    3cb0:	89 81       	ldd	r24, Y+1	; 0x01
    3cb2:	9a 81       	ldd	r25, Y+2	; 0x02
    3cb4:	ab 81       	ldd	r26, Y+3	; 0x03
    3cb6:	bc 81       	ldd	r27, Y+4	; 0x04
    3cb8:	89 2f       	mov	r24, r25
    3cba:	9a 2f       	mov	r25, r26
    3cbc:	ab 2f       	mov	r26, r27
    3cbe:	bb 27       	eor	r27, r27
    3cc0:	80 83       	st	Z, r24
	UART_UBRRL_REG = ubrr;
    3cc2:	e9 e2       	ldi	r30, 0x29	; 41
    3cc4:	f0 e0       	ldi	r31, 0x00	; 0
    3cc6:	89 81       	ldd	r24, Y+1	; 0x01
    3cc8:	80 83       	st	Z, r24

	// Write in UCSRC, set frame size to 8-bit
	UART_UCSRC_REG |= (1 << 7) | (3 << 1);
    3cca:	a0 e4       	ldi	r26, 0x40	; 64
    3ccc:	b0 e0       	ldi	r27, 0x00	; 0
    3cce:	e0 e4       	ldi	r30, 0x40	; 64
    3cd0:	f0 e0       	ldi	r31, 0x00	; 0
    3cd2:	80 81       	ld	r24, Z
    3cd4:	86 68       	ori	r24, 0x86	; 134
    3cd6:	8c 93       	st	X, r24
	// By default parity bit is disabled

//	Dio_configChanel(DIO_PORTD, DIO_PIN0, DIO_INPUT);
//	Dio_configChanel(DIO_PORTD, DIO_PIN1, DIO_OUTPUT);

}
    3cd8:	28 96       	adiw	r28, 0x08	; 8
    3cda:	0f b6       	in	r0, 0x3f	; 63
    3cdc:	f8 94       	cli
    3cde:	de bf       	out	0x3e, r29	; 62
    3ce0:	0f be       	out	0x3f, r0	; 63
    3ce2:	cd bf       	out	0x3d, r28	; 61
    3ce4:	cf 91       	pop	r28
    3ce6:	df 91       	pop	r29
    3ce8:	08 95       	ret

00003cea <UART_Receive>:

u8 UART_Receive()
{
    3cea:	df 93       	push	r29
    3cec:	cf 93       	push	r28
    3cee:	cd b7       	in	r28, 0x3d	; 61
    3cf0:	de b7       	in	r29, 0x3e	; 62

	// Wait for unread data
	while ( !((UART_UCSRA_REG >> 7) & 1) );
    3cf2:	eb e2       	ldi	r30, 0x2B	; 43
    3cf4:	f0 e0       	ldi	r31, 0x00	; 0
    3cf6:	80 81       	ld	r24, Z
    3cf8:	88 23       	and	r24, r24
    3cfa:	dc f7       	brge	.-10     	; 0x3cf2 <UART_Receive+0x8>
	return UART_UDR_REG;
    3cfc:	ec e2       	ldi	r30, 0x2C	; 44
    3cfe:	f0 e0       	ldi	r31, 0x00	; 0
    3d00:	80 81       	ld	r24, Z

}
    3d02:	cf 91       	pop	r28
    3d04:	df 91       	pop	r29
    3d06:	08 95       	ret

00003d08 <UART_ReceiveNonBlock>:

u8 UART_ReceiveNonBlock()
{
    3d08:	df 93       	push	r29
    3d0a:	cf 93       	push	r28
    3d0c:	0f 92       	push	r0
    3d0e:	cd b7       	in	r28, 0x3d	; 61
    3d10:	de b7       	in	r29, 0x3e	; 62

	if ( ((UART_UCSRA_REG >> 7) & 1) )
    3d12:	eb e2       	ldi	r30, 0x2B	; 43
    3d14:	f0 e0       	ldi	r31, 0x00	; 0
    3d16:	80 81       	ld	r24, Z
    3d18:	88 23       	and	r24, r24
    3d1a:	2c f4       	brge	.+10     	; 0x3d26 <UART_ReceiveNonBlock+0x1e>
	{
		return UART_UDR_REG;
    3d1c:	ec e2       	ldi	r30, 0x2C	; 44
    3d1e:	f0 e0       	ldi	r31, 0x00	; 0
    3d20:	80 81       	ld	r24, Z
    3d22:	89 83       	std	Y+1, r24	; 0x01
    3d24:	01 c0       	rjmp	.+2      	; 0x3d28 <UART_ReceiveNonBlock+0x20>
	}
	else
	{
		return '\0';
    3d26:	19 82       	std	Y+1, r1	; 0x01
    3d28:	89 81       	ldd	r24, Y+1	; 0x01
	}

}
    3d2a:	0f 90       	pop	r0
    3d2c:	cf 91       	pop	r28
    3d2e:	df 91       	pop	r29
    3d30:	08 95       	ret

00003d32 <UART_Transmit>:

void UART_Transmit(u8 data)
{
    3d32:	df 93       	push	r29
    3d34:	cf 93       	push	r28
    3d36:	0f 92       	push	r0
    3d38:	cd b7       	in	r28, 0x3d	; 61
    3d3a:	de b7       	in	r29, 0x3e	; 62
    3d3c:	89 83       	std	Y+1, r24	; 0x01
	// Wait for unread data (flag is 1 if it is ready)
	while ( !((UART_UCSRA_REG >> 5) & 1) );
    3d3e:	eb e2       	ldi	r30, 0x2B	; 43
    3d40:	f0 e0       	ldi	r31, 0x00	; 0
    3d42:	80 81       	ld	r24, Z
    3d44:	82 95       	swap	r24
    3d46:	86 95       	lsr	r24
    3d48:	87 70       	andi	r24, 0x07	; 7
    3d4a:	88 2f       	mov	r24, r24
    3d4c:	90 e0       	ldi	r25, 0x00	; 0
    3d4e:	81 70       	andi	r24, 0x01	; 1
    3d50:	90 70       	andi	r25, 0x00	; 0
    3d52:	00 97       	sbiw	r24, 0x00	; 0
    3d54:	a1 f3       	breq	.-24     	; 0x3d3e <UART_Transmit+0xc>

	UART_UDR_REG = data;
    3d56:	ec e2       	ldi	r30, 0x2C	; 44
    3d58:	f0 e0       	ldi	r31, 0x00	; 0
    3d5a:	89 81       	ldd	r24, Y+1	; 0x01
    3d5c:	80 83       	st	Z, r24


}
    3d5e:	0f 90       	pop	r0
    3d60:	cf 91       	pop	r28
    3d62:	df 91       	pop	r29
    3d64:	08 95       	ret

00003d66 <UART_SendString>:

void UART_SendString(u8* string)
{
    3d66:	df 93       	push	r29
    3d68:	cf 93       	push	r28
    3d6a:	00 d0       	rcall	.+0      	; 0x3d6c <UART_SendString+0x6>
    3d6c:	00 d0       	rcall	.+0      	; 0x3d6e <UART_SendString+0x8>
    3d6e:	cd b7       	in	r28, 0x3d	; 61
    3d70:	de b7       	in	r29, 0x3e	; 62
    3d72:	9c 83       	std	Y+4, r25	; 0x04
    3d74:	8b 83       	std	Y+3, r24	; 0x03

	for (u8* i = string; *i != '\0'; i++)
    3d76:	8b 81       	ldd	r24, Y+3	; 0x03
    3d78:	9c 81       	ldd	r25, Y+4	; 0x04
    3d7a:	9a 83       	std	Y+2, r25	; 0x02
    3d7c:	89 83       	std	Y+1, r24	; 0x01
    3d7e:	0a c0       	rjmp	.+20     	; 0x3d94 <UART_SendString+0x2e>
	{

		UART_Transmit(*i);
    3d80:	e9 81       	ldd	r30, Y+1	; 0x01
    3d82:	fa 81       	ldd	r31, Y+2	; 0x02
    3d84:	80 81       	ld	r24, Z
    3d86:	0e 94 99 1e 	call	0x3d32	; 0x3d32 <UART_Transmit>
}

void UART_SendString(u8* string)
{

	for (u8* i = string; *i != '\0'; i++)
    3d8a:	89 81       	ldd	r24, Y+1	; 0x01
    3d8c:	9a 81       	ldd	r25, Y+2	; 0x02
    3d8e:	01 96       	adiw	r24, 0x01	; 1
    3d90:	9a 83       	std	Y+2, r25	; 0x02
    3d92:	89 83       	std	Y+1, r24	; 0x01
    3d94:	e9 81       	ldd	r30, Y+1	; 0x01
    3d96:	fa 81       	ldd	r31, Y+2	; 0x02
    3d98:	80 81       	ld	r24, Z
    3d9a:	88 23       	and	r24, r24
    3d9c:	89 f7       	brne	.-30     	; 0x3d80 <UART_SendString+0x1a>

		UART_Transmit(*i);

	}

}
    3d9e:	0f 90       	pop	r0
    3da0:	0f 90       	pop	r0
    3da2:	0f 90       	pop	r0
    3da4:	0f 90       	pop	r0
    3da6:	cf 91       	pop	r28
    3da8:	df 91       	pop	r29
    3daa:	08 95       	ret

00003dac <UART_ReciveString>:


void UART_ReciveString(u8* string, u8 size)
{
    3dac:	df 93       	push	r29
    3dae:	cf 93       	push	r28
    3db0:	00 d0       	rcall	.+0      	; 0x3db2 <UART_ReciveString+0x6>
    3db2:	00 d0       	rcall	.+0      	; 0x3db4 <UART_ReciveString+0x8>
    3db4:	0f 92       	push	r0
    3db6:	cd b7       	in	r28, 0x3d	; 61
    3db8:	de b7       	in	r29, 0x3e	; 62
    3dba:	9c 83       	std	Y+4, r25	; 0x04
    3dbc:	8b 83       	std	Y+3, r24	; 0x03
    3dbe:	6d 83       	std	Y+5, r22	; 0x05
	
	// Clear buffer for input more that required size from last prompt
	while (UART_ReceiveNonBlock() != '\0');
    3dc0:	0e 94 84 1e 	call	0x3d08	; 0x3d08 <UART_ReceiveNonBlock>
    3dc4:	88 23       	and	r24, r24
    3dc6:	e1 f7       	brne	.-8      	; 0x3dc0 <UART_ReciveString+0x14>
	
	u8 tmp = UART_Receive();
    3dc8:	0e 94 75 1e 	call	0x3cea	; 0x3cea <UART_Receive>
    3dcc:	8a 83       	std	Y+2, r24	; 0x02

	if (size == 1)
    3dce:	8d 81       	ldd	r24, Y+5	; 0x05
    3dd0:	81 30       	cpi	r24, 0x01	; 1
    3dd2:	91 f1       	breq	.+100    	; 0x3e38 <UART_ReciveString+0x8c>
	{
		return;
	}

	u8 i = 0;
    3dd4:	19 82       	std	Y+1, r1	; 0x01
    3dd6:	10 c0       	rjmp	.+32     	; 0x3df8 <UART_ReciveString+0x4c>


	while ((tmp != '\n') && (tmp != '\r') && (tmp != '\0') && (i < size - 1))
	{

		string[i] = tmp;
    3dd8:	89 81       	ldd	r24, Y+1	; 0x01
    3dda:	28 2f       	mov	r18, r24
    3ddc:	30 e0       	ldi	r19, 0x00	; 0
    3dde:	8b 81       	ldd	r24, Y+3	; 0x03
    3de0:	9c 81       	ldd	r25, Y+4	; 0x04
    3de2:	fc 01       	movw	r30, r24
    3de4:	e2 0f       	add	r30, r18
    3de6:	f3 1f       	adc	r31, r19
    3de8:	8a 81       	ldd	r24, Y+2	; 0x02
    3dea:	80 83       	st	Z, r24
		tmp = UART_Receive();
    3dec:	0e 94 75 1e 	call	0x3cea	; 0x3cea <UART_Receive>
    3df0:	8a 83       	std	Y+2, r24	; 0x02
		i++;
    3df2:	89 81       	ldd	r24, Y+1	; 0x01
    3df4:	8f 5f       	subi	r24, 0xFF	; 255
    3df6:	89 83       	std	Y+1, r24	; 0x01
	}

	u8 i = 0;


	while ((tmp != '\n') && (tmp != '\r') && (tmp != '\0') && (i < size - 1))
    3df8:	8a 81       	ldd	r24, Y+2	; 0x02
    3dfa:	8a 30       	cpi	r24, 0x0A	; 10
    3dfc:	81 f0       	breq	.+32     	; 0x3e1e <UART_ReciveString+0x72>
    3dfe:	8a 81       	ldd	r24, Y+2	; 0x02
    3e00:	8d 30       	cpi	r24, 0x0D	; 13
    3e02:	69 f0       	breq	.+26     	; 0x3e1e <UART_ReciveString+0x72>
    3e04:	8a 81       	ldd	r24, Y+2	; 0x02
    3e06:	88 23       	and	r24, r24
    3e08:	51 f0       	breq	.+20     	; 0x3e1e <UART_ReciveString+0x72>
    3e0a:	89 81       	ldd	r24, Y+1	; 0x01
    3e0c:	28 2f       	mov	r18, r24
    3e0e:	30 e0       	ldi	r19, 0x00	; 0
    3e10:	8d 81       	ldd	r24, Y+5	; 0x05
    3e12:	88 2f       	mov	r24, r24
    3e14:	90 e0       	ldi	r25, 0x00	; 0
    3e16:	01 97       	sbiw	r24, 0x01	; 1
    3e18:	28 17       	cp	r18, r24
    3e1a:	39 07       	cpc	r19, r25
    3e1c:	ec f2       	brlt	.-70     	; 0x3dd8 <UART_ReciveString+0x2c>
		i++;

	}

	// Clear buffer for input more that required size
	while (UART_ReceiveNonBlock() != '\0');
    3e1e:	0e 94 84 1e 	call	0x3d08	; 0x3d08 <UART_ReceiveNonBlock>
    3e22:	88 23       	and	r24, r24
    3e24:	e1 f7       	brne	.-8      	; 0x3e1e <UART_ReciveString+0x72>

	// For precise memory allocation, add 1 to the size of the array for the null char
	string[i] = '\0';
    3e26:	89 81       	ldd	r24, Y+1	; 0x01
    3e28:	28 2f       	mov	r18, r24
    3e2a:	30 e0       	ldi	r19, 0x00	; 0
    3e2c:	8b 81       	ldd	r24, Y+3	; 0x03
    3e2e:	9c 81       	ldd	r25, Y+4	; 0x04
    3e30:	fc 01       	movw	r30, r24
    3e32:	e2 0f       	add	r30, r18
    3e34:	f3 1f       	adc	r31, r19
    3e36:	10 82       	st	Z, r1

}
    3e38:	0f 90       	pop	r0
    3e3a:	0f 90       	pop	r0
    3e3c:	0f 90       	pop	r0
    3e3e:	0f 90       	pop	r0
    3e40:	0f 90       	pop	r0
    3e42:	cf 91       	pop	r28
    3e44:	df 91       	pop	r29
    3e46:	08 95       	ret

00003e48 <Timer2_SetPWMPhaseControl>:

static u16 top = 0;
static f32 timerFreq = 0;

static void Timer2_SetPWMPhaseControl()
{
    3e48:	df 93       	push	r29
    3e4a:	cf 93       	push	r28
    3e4c:	cd b7       	in	r28, 0x3d	; 61
    3e4e:	de b7       	in	r29, 0x3e	; 62

	SET_BIT(TCCR2_REG, 6);
    3e50:	a5 e4       	ldi	r26, 0x45	; 69
    3e52:	b0 e0       	ldi	r27, 0x00	; 0
    3e54:	e5 e4       	ldi	r30, 0x45	; 69
    3e56:	f0 e0       	ldi	r31, 0x00	; 0
    3e58:	80 81       	ld	r24, Z
    3e5a:	80 64       	ori	r24, 0x40	; 64
    3e5c:	8c 93       	st	X, r24

	// Non-Inverted
	TCCR2_REG |= 2 << 4;
    3e5e:	a5 e4       	ldi	r26, 0x45	; 69
    3e60:	b0 e0       	ldi	r27, 0x00	; 0
    3e62:	e5 e4       	ldi	r30, 0x45	; 69
    3e64:	f0 e0       	ldi	r31, 0x00	; 0
    3e66:	80 81       	ld	r24, Z
    3e68:	80 62       	ori	r24, 0x20	; 32
    3e6a:	8c 93       	st	X, r24

	// Set DDR as output
//	Dio_writeChanel(DIO_PORTB, DIO_PIN3, DIO_OUTPUT);
	Dio_configChanel(DIO_PORTD, DIO_PIN7, DIO_OUTPUT);
    3e6c:	83 e0       	ldi	r24, 0x03	; 3
    3e6e:	67 e0       	ldi	r22, 0x07	; 7
    3e70:	41 e0       	ldi	r20, 0x01	; 1
    3e72:	0e 94 be 25 	call	0x4b7c	; 0x4b7c <Dio_configChanel>

}
    3e76:	cf 91       	pop	r28
    3e78:	df 91       	pop	r29
    3e7a:	08 95       	ret

00003e7c <Timer2_SetNormal>:

static void Timer2_SetNormal()
{
    3e7c:	df 93       	push	r29
    3e7e:	cf 93       	push	r28
    3e80:	cd b7       	in	r28, 0x3d	; 61
    3e82:	de b7       	in	r29, 0x3e	; 62

	// Enable Timer2 Interrupt overflow
	TIMSK_REG |= 1;
    3e84:	a9 e5       	ldi	r26, 0x59	; 89
    3e86:	b0 e0       	ldi	r27, 0x00	; 0
    3e88:	e9 e5       	ldi	r30, 0x59	; 89
    3e8a:	f0 e0       	ldi	r31, 0x00	; 0
    3e8c:	80 81       	ld	r24, Z
    3e8e:	81 60       	ori	r24, 0x01	; 1
    3e90:	8c 93       	st	X, r24

}
    3e92:	cf 91       	pop	r28
    3e94:	df 91       	pop	r29
    3e96:	08 95       	ret

00003e98 <Timer2_SetCTC>:
static void Timer2_SetCTC()
{
    3e98:	df 93       	push	r29
    3e9a:	cf 93       	push	r28
    3e9c:	cd b7       	in	r28, 0x3d	; 61
    3e9e:	de b7       	in	r29, 0x3e	; 62

	// Enable Timer2 Interrupt overflow
	TIMSK_REG |= 2;
    3ea0:	a9 e5       	ldi	r26, 0x59	; 89
    3ea2:	b0 e0       	ldi	r27, 0x00	; 0
    3ea4:	e9 e5       	ldi	r30, 0x59	; 89
    3ea6:	f0 e0       	ldi	r31, 0x00	; 0
    3ea8:	80 81       	ld	r24, Z
    3eaa:	82 60       	ori	r24, 0x02	; 2
    3eac:	8c 93       	st	X, r24
	SET_BIT(TCCR2_REG, 3);
    3eae:	a5 e4       	ldi	r26, 0x45	; 69
    3eb0:	b0 e0       	ldi	r27, 0x00	; 0
    3eb2:	e5 e4       	ldi	r30, 0x45	; 69
    3eb4:	f0 e0       	ldi	r31, 0x00	; 0
    3eb6:	80 81       	ld	r24, Z
    3eb8:	88 60       	ori	r24, 0x08	; 8
    3eba:	8c 93       	st	X, r24

}
    3ebc:	cf 91       	pop	r28
    3ebe:	df 91       	pop	r29
    3ec0:	08 95       	ret

00003ec2 <Timer2_SetFastPWM>:

static void Timer2_SetFastPWM()
{
    3ec2:	df 93       	push	r29
    3ec4:	cf 93       	push	r28
    3ec6:	cd b7       	in	r28, 0x3d	; 61
    3ec8:	de b7       	in	r29, 0x3e	; 62

	SET_BIT(TCCR2_REG, 6);
    3eca:	a5 e4       	ldi	r26, 0x45	; 69
    3ecc:	b0 e0       	ldi	r27, 0x00	; 0
    3ece:	e5 e4       	ldi	r30, 0x45	; 69
    3ed0:	f0 e0       	ldi	r31, 0x00	; 0
    3ed2:	80 81       	ld	r24, Z
    3ed4:	80 64       	ori	r24, 0x40	; 64
    3ed6:	8c 93       	st	X, r24
	SET_BIT(TCCR2_REG, 3);
    3ed8:	a5 e4       	ldi	r26, 0x45	; 69
    3eda:	b0 e0       	ldi	r27, 0x00	; 0
    3edc:	e5 e4       	ldi	r30, 0x45	; 69
    3ede:	f0 e0       	ldi	r31, 0x00	; 0
    3ee0:	80 81       	ld	r24, Z
    3ee2:	88 60       	ori	r24, 0x08	; 8
    3ee4:	8c 93       	st	X, r24

	// Non-Inverted
	TCCR2_REG |= 2 << 4;
    3ee6:	a5 e4       	ldi	r26, 0x45	; 69
    3ee8:	b0 e0       	ldi	r27, 0x00	; 0
    3eea:	e5 e4       	ldi	r30, 0x45	; 69
    3eec:	f0 e0       	ldi	r31, 0x00	; 0
    3eee:	80 81       	ld	r24, Z
    3ef0:	80 62       	ori	r24, 0x20	; 32
    3ef2:	8c 93       	st	X, r24

	// Set DDR as output
	Dio_configChanel(DIO_PORTD, DIO_PIN7, DIO_OUTPUT);
    3ef4:	83 e0       	ldi	r24, 0x03	; 3
    3ef6:	67 e0       	ldi	r22, 0x07	; 7
    3ef8:	41 e0       	ldi	r20, 0x01	; 1
    3efa:	0e 94 be 25 	call	0x4b7c	; 0x4b7c <Dio_configChanel>

}
    3efe:	cf 91       	pop	r28
    3f00:	df 91       	pop	r29
    3f02:	08 95       	ret

00003f04 <Timer2_Init>:

void Timer2_Init(timer2_waveform_t waveform)
{
    3f04:	df 93       	push	r29
    3f06:	cf 93       	push	r28
    3f08:	00 d0       	rcall	.+0      	; 0x3f0a <Timer2_Init+0x6>
    3f0a:	0f 92       	push	r0
    3f0c:	cd b7       	in	r28, 0x3d	; 61
    3f0e:	de b7       	in	r29, 0x3e	; 62
    3f10:	89 83       	std	Y+1, r24	; 0x01

	// Global Interrupt
	GIE_EnableGlobalInterrupt();
    3f12:	0e 94 2d 25 	call	0x4a5a	; 0x4a5a <GIE_EnableGlobalInterrupt>

	// Select Mode (waveform)
	switch(waveform)
    3f16:	89 81       	ldd	r24, Y+1	; 0x01
    3f18:	28 2f       	mov	r18, r24
    3f1a:	30 e0       	ldi	r19, 0x00	; 0
    3f1c:	3b 83       	std	Y+3, r19	; 0x03
    3f1e:	2a 83       	std	Y+2, r18	; 0x02
    3f20:	8a 81       	ldd	r24, Y+2	; 0x02
    3f22:	9b 81       	ldd	r25, Y+3	; 0x03
    3f24:	81 30       	cpi	r24, 0x01	; 1
    3f26:	91 05       	cpc	r25, r1
    3f28:	c1 f0       	breq	.+48     	; 0x3f5a <Timer2_Init+0x56>
    3f2a:	2a 81       	ldd	r18, Y+2	; 0x02
    3f2c:	3b 81       	ldd	r19, Y+3	; 0x03
    3f2e:	22 30       	cpi	r18, 0x02	; 2
    3f30:	31 05       	cpc	r19, r1
    3f32:	2c f4       	brge	.+10     	; 0x3f3e <Timer2_Init+0x3a>
    3f34:	8a 81       	ldd	r24, Y+2	; 0x02
    3f36:	9b 81       	ldd	r25, Y+3	; 0x03
    3f38:	00 97       	sbiw	r24, 0x00	; 0
    3f3a:	61 f0       	breq	.+24     	; 0x3f54 <Timer2_Init+0x50>
    3f3c:	16 c0       	rjmp	.+44     	; 0x3f6a <Timer2_Init+0x66>
    3f3e:	2a 81       	ldd	r18, Y+2	; 0x02
    3f40:	3b 81       	ldd	r19, Y+3	; 0x03
    3f42:	22 30       	cpi	r18, 0x02	; 2
    3f44:	31 05       	cpc	r19, r1
    3f46:	61 f0       	breq	.+24     	; 0x3f60 <Timer2_Init+0x5c>
    3f48:	8a 81       	ldd	r24, Y+2	; 0x02
    3f4a:	9b 81       	ldd	r25, Y+3	; 0x03
    3f4c:	83 30       	cpi	r24, 0x03	; 3
    3f4e:	91 05       	cpc	r25, r1
    3f50:	51 f0       	breq	.+20     	; 0x3f66 <Timer2_Init+0x62>
    3f52:	0b c0       	rjmp	.+22     	; 0x3f6a <Timer2_Init+0x66>
	{

	case TIMER2_NORMAL:
		Timer2_SetNormal();
    3f54:	0e 94 3e 1f 	call	0x3e7c	; 0x3e7c <Timer2_SetNormal>
    3f58:	08 c0       	rjmp	.+16     	; 0x3f6a <Timer2_Init+0x66>
		break;
	case TIMER2_PWM_PHASE_CORRECT:
		Timer2_SetPWMPhaseControl();
    3f5a:	0e 94 24 1f 	call	0x3e48	; 0x3e48 <Timer2_SetPWMPhaseControl>
    3f5e:	05 c0       	rjmp	.+10     	; 0x3f6a <Timer2_Init+0x66>
		break;
	case TIMER2_CTC:
		Timer2_SetCTC();
    3f60:	0e 94 4c 1f 	call	0x3e98	; 0x3e98 <Timer2_SetCTC>
    3f64:	02 c0       	rjmp	.+4      	; 0x3f6a <Timer2_Init+0x66>
		break;
	case TIMER2_FAST_PWM:
		Timer2_SetFastPWM();
    3f66:	0e 94 61 1f 	call	0x3ec2	; 0x3ec2 <Timer2_SetFastPWM>
		break;

	}

}
    3f6a:	0f 90       	pop	r0
    3f6c:	0f 90       	pop	r0
    3f6e:	0f 90       	pop	r0
    3f70:	cf 91       	pop	r28
    3f72:	df 91       	pop	r29
    3f74:	08 95       	ret

00003f76 <Timer2_SetPreload>:
// Normal | CTC



void Timer2_SetPreload(u8 preload)
{
    3f76:	df 93       	push	r29
    3f78:	cf 93       	push	r28
    3f7a:	0f 92       	push	r0
    3f7c:	cd b7       	in	r28, 0x3d	; 61
    3f7e:	de b7       	in	r29, 0x3e	; 62
    3f80:	89 83       	std	Y+1, r24	; 0x01
	if (preload > 256)
	{
		return;
	}

	TCNT2_REG |= preload;
    3f82:	a4 e4       	ldi	r26, 0x44	; 68
    3f84:	b0 e0       	ldi	r27, 0x00	; 0
    3f86:	e4 e4       	ldi	r30, 0x44	; 68
    3f88:	f0 e0       	ldi	r31, 0x00	; 0
    3f8a:	90 81       	ld	r25, Z
    3f8c:	89 81       	ldd	r24, Y+1	; 0x01
    3f8e:	89 2b       	or	r24, r25
    3f90:	8c 93       	st	X, r24

}
    3f92:	0f 90       	pop	r0
    3f94:	cf 91       	pop	r28
    3f96:	df 91       	pop	r29
    3f98:	08 95       	ret

00003f9a <Timer2_SetTime>:

void Timer2_SetTime(u16 time)
{
    3f9a:	df 93       	push	r29
    3f9c:	cf 93       	push	r28
    3f9e:	00 d0       	rcall	.+0      	; 0x3fa0 <Timer2_SetTime+0x6>
    3fa0:	00 d0       	rcall	.+0      	; 0x3fa2 <Timer2_SetTime+0x8>
    3fa2:	0f 92       	push	r0
    3fa4:	cd b7       	in	r28, 0x3d	; 61
    3fa6:	de b7       	in	r29, 0x3e	; 62
    3fa8:	9d 83       	std	Y+5, r25	; 0x05
    3faa:	8c 83       	std	Y+4, r24	; 0x04

	// Tick time = 1/prescale
	// Overload time = (256 - preload value) * Tick time
	// Preload = 256 - (time/Tick Time)

	u8 prescale = TCCR2_REG & 0x07;		// 0000 0111
    3fac:	e5 e4       	ldi	r30, 0x45	; 69
    3fae:	f0 e0       	ldi	r31, 0x00	; 0
    3fb0:	80 81       	ld	r24, Z
    3fb2:	87 70       	andi	r24, 0x07	; 7
    3fb4:	8b 83       	std	Y+3, r24	; 0x03
	u8 tickTime = 1 / prescale;
    3fb6:	8b 81       	ldd	r24, Y+3	; 0x03
    3fb8:	28 2f       	mov	r18, r24
    3fba:	30 e0       	ldi	r19, 0x00	; 0
    3fbc:	81 e0       	ldi	r24, 0x01	; 1
    3fbe:	90 e0       	ldi	r25, 0x00	; 0
    3fc0:	b9 01       	movw	r22, r18
    3fc2:	0e 94 88 29 	call	0x5310	; 0x5310 <__divmodhi4>
    3fc6:	cb 01       	movw	r24, r22
    3fc8:	8a 83       	std	Y+2, r24	; 0x02
	u8 preload = 256 - (time / tickTime);
    3fca:	8a 81       	ldd	r24, Y+2	; 0x02
    3fcc:	28 2f       	mov	r18, r24
    3fce:	30 e0       	ldi	r19, 0x00	; 0
    3fd0:	8c 81       	ldd	r24, Y+4	; 0x04
    3fd2:	9d 81       	ldd	r25, Y+5	; 0x05
    3fd4:	b9 01       	movw	r22, r18
    3fd6:	0e 94 74 29 	call	0x52e8	; 0x52e8 <__udivmodhi4>
    3fda:	cb 01       	movw	r24, r22
    3fdc:	81 95       	neg	r24
    3fde:	89 83       	std	Y+1, r24	; 0x01

	Timer2_SetPreload(preload);
    3fe0:	89 81       	ldd	r24, Y+1	; 0x01
    3fe2:	0e 94 bb 1f 	call	0x3f76	; 0x3f76 <Timer2_SetPreload>

}
    3fe6:	0f 90       	pop	r0
    3fe8:	0f 90       	pop	r0
    3fea:	0f 90       	pop	r0
    3fec:	0f 90       	pop	r0
    3fee:	0f 90       	pop	r0
    3ff0:	cf 91       	pop	r28
    3ff2:	df 91       	pop	r29
    3ff4:	08 95       	ret

00003ff6 <Timer2_Start>:

void Timer2_Start(timer2_clockSelect_t clockSelect)
{
    3ff6:	df 93       	push	r29
    3ff8:	cf 93       	push	r28
    3ffa:	00 d0       	rcall	.+0      	; 0x3ffc <Timer2_Start+0x6>
    3ffc:	cd b7       	in	r28, 0x3d	; 61
    3ffe:	de b7       	in	r29, 0x3e	; 62
    4000:	8a 83       	std	Y+2, r24	; 0x02

	// Clock select (Prescale)
	TCCR2_REG |= clockSelect;
    4002:	a5 e4       	ldi	r26, 0x45	; 69
    4004:	b0 e0       	ldi	r27, 0x00	; 0
    4006:	e5 e4       	ldi	r30, 0x45	; 69
    4008:	f0 e0       	ldi	r31, 0x00	; 0
    400a:	90 81       	ld	r25, Z
    400c:	8a 81       	ldd	r24, Y+2	; 0x02
    400e:	89 2b       	or	r24, r25
    4010:	8c 93       	st	X, r24

	u8 prescale = TCCR2_REG & 0x07;		// 0000 0111
    4012:	e5 e4       	ldi	r30, 0x45	; 69
    4014:	f0 e0       	ldi	r31, 0x00	; 0
    4016:	80 81       	ld	r24, Z
    4018:	87 70       	andi	r24, 0x07	; 7
    401a:	89 83       	std	Y+1, r24	; 0x01
	timerFreq = 16000000.0 / prescale;
    401c:	89 81       	ldd	r24, Y+1	; 0x01
    401e:	88 2f       	mov	r24, r24
    4020:	90 e0       	ldi	r25, 0x00	; 0
    4022:	aa 27       	eor	r26, r26
    4024:	97 fd       	sbrc	r25, 7
    4026:	a0 95       	com	r26
    4028:	ba 2f       	mov	r27, r26
    402a:	bc 01       	movw	r22, r24
    402c:	cd 01       	movw	r24, r26
    402e:	0e 94 55 04 	call	0x8aa	; 0x8aa <__floatsisf>
    4032:	9b 01       	movw	r18, r22
    4034:	ac 01       	movw	r20, r24
    4036:	60 e0       	ldi	r22, 0x00	; 0
    4038:	74 e2       	ldi	r23, 0x24	; 36
    403a:	84 e7       	ldi	r24, 0x74	; 116
    403c:	9b e4       	ldi	r25, 0x4B	; 75
    403e:	0e 94 19 03 	call	0x632	; 0x632 <__divsf3>
    4042:	dc 01       	movw	r26, r24
    4044:	cb 01       	movw	r24, r22
    4046:	80 93 5c 03 	sts	0x035C, r24
    404a:	90 93 5d 03 	sts	0x035D, r25
    404e:	a0 93 5e 03 	sts	0x035E, r26
    4052:	b0 93 5f 03 	sts	0x035F, r27

}
    4056:	0f 90       	pop	r0
    4058:	0f 90       	pop	r0
    405a:	cf 91       	pop	r28
    405c:	df 91       	pop	r29
    405e:	08 95       	ret

00004060 <Timer2_Stop>:

void Timer2_Stop()
{
    4060:	df 93       	push	r29
    4062:	cf 93       	push	r28
    4064:	cd b7       	in	r28, 0x3d	; 61
    4066:	de b7       	in	r29, 0x3e	; 62

	// Stop Timer/Counter by clearing prescaler
	TCCR2_REG &= 0xf8;
    4068:	a5 e4       	ldi	r26, 0x45	; 69
    406a:	b0 e0       	ldi	r27, 0x00	; 0
    406c:	e5 e4       	ldi	r30, 0x45	; 69
    406e:	f0 e0       	ldi	r31, 0x00	; 0
    4070:	80 81       	ld	r24, Z
    4072:	88 7f       	andi	r24, 0xF8	; 248
    4074:	8c 93       	st	X, r24

}
    4076:	cf 91       	pop	r28
    4078:	df 91       	pop	r29
    407a:	08 95       	ret

0000407c <Timer2_SetDuty>:


// For PWM Modes
void Timer2_SetDuty(u8 percentage)
{
    407c:	0f 93       	push	r16
    407e:	1f 93       	push	r17
    4080:	df 93       	push	r29
    4082:	cf 93       	push	r28
    4084:	0f 92       	push	r0
    4086:	cd b7       	in	r28, 0x3d	; 61
    4088:	de b7       	in	r29, 0x3e	; 62
    408a:	89 83       	std	Y+1, r24	; 0x01


	// OCR2 is 8bit -> 255 max
	OCR2_REG = (u8) 255 * (percentage / 100.0);
    408c:	03 e4       	ldi	r16, 0x43	; 67
    408e:	10 e0       	ldi	r17, 0x00	; 0
    4090:	89 81       	ldd	r24, Y+1	; 0x01
    4092:	88 2f       	mov	r24, r24
    4094:	90 e0       	ldi	r25, 0x00	; 0
    4096:	aa 27       	eor	r26, r26
    4098:	97 fd       	sbrc	r25, 7
    409a:	a0 95       	com	r26
    409c:	ba 2f       	mov	r27, r26
    409e:	bc 01       	movw	r22, r24
    40a0:	cd 01       	movw	r24, r26
    40a2:	0e 94 55 04 	call	0x8aa	; 0x8aa <__floatsisf>
    40a6:	dc 01       	movw	r26, r24
    40a8:	cb 01       	movw	r24, r22
    40aa:	bc 01       	movw	r22, r24
    40ac:	cd 01       	movw	r24, r26
    40ae:	20 e0       	ldi	r18, 0x00	; 0
    40b0:	30 e0       	ldi	r19, 0x00	; 0
    40b2:	48 ec       	ldi	r20, 0xC8	; 200
    40b4:	52 e4       	ldi	r21, 0x42	; 66
    40b6:	0e 94 19 03 	call	0x632	; 0x632 <__divsf3>
    40ba:	dc 01       	movw	r26, r24
    40bc:	cb 01       	movw	r24, r22
    40be:	bc 01       	movw	r22, r24
    40c0:	cd 01       	movw	r24, r26
    40c2:	20 e0       	ldi	r18, 0x00	; 0
    40c4:	30 e0       	ldi	r19, 0x00	; 0
    40c6:	4f e7       	ldi	r20, 0x7F	; 127
    40c8:	53 e4       	ldi	r21, 0x43	; 67
    40ca:	0e 94 1f 02 	call	0x43e	; 0x43e <__mulsf3>
    40ce:	dc 01       	movw	r26, r24
    40d0:	cb 01       	movw	r24, r22
    40d2:	bc 01       	movw	r22, r24
    40d4:	cd 01       	movw	r24, r26
    40d6:	0e 94 49 00 	call	0x92	; 0x92 <__fixunssfsi>
    40da:	dc 01       	movw	r26, r24
    40dc:	cb 01       	movw	r24, r22
    40de:	f8 01       	movw	r30, r16
    40e0:	80 83       	st	Z, r24


}
    40e2:	0f 90       	pop	r0
    40e4:	cf 91       	pop	r28
    40e6:	df 91       	pop	r29
    40e8:	1f 91       	pop	r17
    40ea:	0f 91       	pop	r16
    40ec:	08 95       	ret

000040ee <Timer1_SetFastPWM>:

static u16 top = 0;
static f32 timerFreq = 0;

static void Timer1_SetFastPWM()
{
    40ee:	df 93       	push	r29
    40f0:	cf 93       	push	r28
    40f2:	cd b7       	in	r28, 0x3d	; 61
    40f4:	de b7       	in	r29, 0x3e	; 62

	// Set Fast PWM, TOP in ICR1, Clear OC1A on compare match
	TCCR1A_REG = (1<<1)|(1<<7);
    40f6:	ef e4       	ldi	r30, 0x4F	; 79
    40f8:	f0 e0       	ldi	r31, 0x00	; 0
    40fa:	82 e8       	ldi	r24, 0x82	; 130
    40fc:	80 83       	st	Z, r24
	TCCR1B_REG = (1<<3)|(1<<4);
    40fe:	ee e4       	ldi	r30, 0x4E	; 78
    4100:	f0 e0       	ldi	r31, 0x00	; 0
    4102:	88 e1       	ldi	r24, 0x18	; 24
    4104:	80 83       	st	Z, r24

	TCNT1L_REG = 0;
    4106:	ec e4       	ldi	r30, 0x4C	; 76
    4108:	f0 e0       	ldi	r31, 0x00	; 0
    410a:	10 82       	st	Z, r1
	TCNT1H_REG = 0;
    410c:	ed e4       	ldi	r30, 0x4D	; 77
    410e:	f0 e0       	ldi	r31, 0x00	; 0
    4110:	10 82       	st	Z, r1

	// Set DDR as output
	Dio_configChanel(DIO_PORTD, DIO_PIN5, DIO_OUTPUT);
    4112:	83 e0       	ldi	r24, 0x03	; 3
    4114:	65 e0       	ldi	r22, 0x05	; 5
    4116:	41 e0       	ldi	r20, 0x01	; 1
    4118:	0e 94 be 25 	call	0x4b7c	; 0x4b7c <Dio_configChanel>

}
    411c:	cf 91       	pop	r28
    411e:	df 91       	pop	r29
    4120:	08 95       	ret

00004122 <Timer1_Init>:

void Timer1_Init(timer1_waveform_t waveform)
{
    4122:	df 93       	push	r29
    4124:	cf 93       	push	r28
    4126:	0f 92       	push	r0
    4128:	cd b7       	in	r28, 0x3d	; 61
    412a:	de b7       	in	r29, 0x3e	; 62
    412c:	89 83       	std	Y+1, r24	; 0x01

	// Global Interrupt
	GIE_EnableGlobalInterrupt();
    412e:	0e 94 2d 25 	call	0x4a5a	; 0x4a5a <GIE_EnableGlobalInterrupt>

	// Select Mode (waveform)
	switch(waveform)
    4132:	89 81       	ldd	r24, Y+1	; 0x01
    4134:	88 2f       	mov	r24, r24
    4136:	90 e0       	ldi	r25, 0x00	; 0
    4138:	83 30       	cpi	r24, 0x03	; 3
    413a:	91 05       	cpc	r25, r1
    413c:	11 f4       	brne	.+4      	; 0x4142 <Timer1_Init+0x20>
//	case TIMER1_CTC:
//		Timer1_SetCTC();
//		break;

	case TIMER1_FAST_PWM:
		Timer1_SetFastPWM();
    413e:	0e 94 77 20 	call	0x40ee	; 0x40ee <Timer1_SetFastPWM>
		break;

	}

}
    4142:	0f 90       	pop	r0
    4144:	cf 91       	pop	r28
    4146:	df 91       	pop	r29
    4148:	08 95       	ret

0000414a <Timer1_Start>:

void Timer1_Start(timer1_clockSelect_t clockSelect)
{
    414a:	df 93       	push	r29
    414c:	cf 93       	push	r28
    414e:	0f 92       	push	r0
    4150:	cd b7       	in	r28, 0x3d	; 61
    4152:	de b7       	in	r29, 0x3e	; 62
    4154:	89 83       	std	Y+1, r24	; 0x01

	// Prescale to 0 to use the OR properly
	Timer1_Stop();
    4156:	0e 94 b9 20 	call	0x4172	; 0x4172 <Timer1_Stop>
	// Clock select (Prescale)
	TCCR1B_REG |= clockSelect;
    415a:	ae e4       	ldi	r26, 0x4E	; 78
    415c:	b0 e0       	ldi	r27, 0x00	; 0
    415e:	ee e4       	ldi	r30, 0x4E	; 78
    4160:	f0 e0       	ldi	r31, 0x00	; 0
    4162:	90 81       	ld	r25, Z
    4164:	89 81       	ldd	r24, Y+1	; 0x01
    4166:	89 2b       	or	r24, r25
    4168:	8c 93       	st	X, r24

}
    416a:	0f 90       	pop	r0
    416c:	cf 91       	pop	r28
    416e:	df 91       	pop	r29
    4170:	08 95       	ret

00004172 <Timer1_Stop>:

void Timer1_Stop()
{
    4172:	df 93       	push	r29
    4174:	cf 93       	push	r28
    4176:	cd b7       	in	r28, 0x3d	; 61
    4178:	de b7       	in	r29, 0x3e	; 62

	// Stop Timer/Counter by clearing prescaler
	TCCR1B_REG &= 0xf8;
    417a:	ae e4       	ldi	r26, 0x4E	; 78
    417c:	b0 e0       	ldi	r27, 0x00	; 0
    417e:	ee e4       	ldi	r30, 0x4E	; 78
    4180:	f0 e0       	ldi	r31, 0x00	; 0
    4182:	80 81       	ld	r24, Z
    4184:	88 7f       	andi	r24, 0xF8	; 248
    4186:	8c 93       	st	X, r24

}
    4188:	cf 91       	pop	r28
    418a:	df 91       	pop	r29
    418c:	08 95       	ret

0000418e <Timer1_SetDuty>:



// For PWM Modes
void Timer1_SetDuty(f32 Ton)
{
    418e:	df 93       	push	r29
    4190:	cf 93       	push	r28
    4192:	00 d0       	rcall	.+0      	; 0x4194 <Timer1_SetDuty+0x6>
    4194:	00 d0       	rcall	.+0      	; 0x4196 <Timer1_SetDuty+0x8>
    4196:	00 d0       	rcall	.+0      	; 0x4198 <Timer1_SetDuty+0xa>
    4198:	cd b7       	in	r28, 0x3d	; 61
    419a:	de b7       	in	r29, 0x3e	; 62
    419c:	6b 83       	std	Y+3, r22	; 0x03
    419e:	7c 83       	std	Y+4, r23	; 0x04
    41a0:	8d 83       	std	Y+5, r24	; 0x05
    41a2:	9e 83       	std	Y+6, r25	; 0x06

	// Timer freq = 16000000/prescale
	u16 tmp = Ton * timerFreq;
    41a4:	80 91 62 03 	lds	r24, 0x0362
    41a8:	90 91 63 03 	lds	r25, 0x0363
    41ac:	a0 91 64 03 	lds	r26, 0x0364
    41b0:	b0 91 65 03 	lds	r27, 0x0365
    41b4:	bc 01       	movw	r22, r24
    41b6:	cd 01       	movw	r24, r26
    41b8:	2b 81       	ldd	r18, Y+3	; 0x03
    41ba:	3c 81       	ldd	r19, Y+4	; 0x04
    41bc:	4d 81       	ldd	r20, Y+5	; 0x05
    41be:	5e 81       	ldd	r21, Y+6	; 0x06
    41c0:	0e 94 1f 02 	call	0x43e	; 0x43e <__mulsf3>
    41c4:	dc 01       	movw	r26, r24
    41c6:	cb 01       	movw	r24, r22
    41c8:	bc 01       	movw	r22, r24
    41ca:	cd 01       	movw	r24, r26
    41cc:	0e 94 49 00 	call	0x92	; 0x92 <__fixunssfsi>
    41d0:	dc 01       	movw	r26, r24
    41d2:	cb 01       	movw	r24, r22
    41d4:	9a 83       	std	Y+2, r25	; 0x02
    41d6:	89 83       	std	Y+1, r24	; 0x01

	OCR1AL_REG = tmp;
    41d8:	ea e4       	ldi	r30, 0x4A	; 74
    41da:	f0 e0       	ldi	r31, 0x00	; 0
    41dc:	89 81       	ldd	r24, Y+1	; 0x01
    41de:	80 83       	st	Z, r24
	OCR1AH_REG = tmp >> 8;
    41e0:	eb e4       	ldi	r30, 0x4B	; 75
    41e2:	f0 e0       	ldi	r31, 0x00	; 0
    41e4:	89 81       	ldd	r24, Y+1	; 0x01
    41e6:	9a 81       	ldd	r25, Y+2	; 0x02
    41e8:	89 2f       	mov	r24, r25
    41ea:	99 27       	eor	r25, r25
    41ec:	80 83       	st	Z, r24

}
    41ee:	26 96       	adiw	r28, 0x06	; 6
    41f0:	0f b6       	in	r0, 0x3f	; 63
    41f2:	f8 94       	cli
    41f4:	de bf       	out	0x3e, r29	; 62
    41f6:	0f be       	out	0x3f, r0	; 63
    41f8:	cd bf       	out	0x3d, r28	; 61
    41fa:	cf 91       	pop	r28
    41fc:	df 91       	pop	r29
    41fe:	08 95       	ret

00004200 <Timer1_SetFrequency>:

void Timer1_SetFrequency(u16 frequency)
{
    4200:	ef 92       	push	r14
    4202:	ff 92       	push	r15
    4204:	0f 93       	push	r16
    4206:	1f 93       	push	r17
    4208:	df 93       	push	r29
    420a:	cf 93       	push	r28
    420c:	00 d0       	rcall	.+0      	; 0x420e <Timer1_SetFrequency+0xe>
    420e:	cd b7       	in	r28, 0x3d	; 61
    4210:	de b7       	in	r29, 0x3e	; 62
    4212:	9a 83       	std	Y+2, r25	; 0x02
    4214:	89 83       	std	Y+1, r24	; 0x01

	timerFreq = 16000000.0 / 256.0;
    4216:	80 e0       	ldi	r24, 0x00	; 0
    4218:	94 e2       	ldi	r25, 0x24	; 36
    421a:	a4 e7       	ldi	r26, 0x74	; 116
    421c:	b7 e4       	ldi	r27, 0x47	; 71
    421e:	80 93 62 03 	sts	0x0362, r24
    4222:	90 93 63 03 	sts	0x0363, r25
    4226:	a0 93 64 03 	sts	0x0364, r26
    422a:	b0 93 65 03 	sts	0x0365, r27
	top = ( timerFreq / frequency ) - 1;
    422e:	e0 90 62 03 	lds	r14, 0x0362
    4232:	f0 90 63 03 	lds	r15, 0x0363
    4236:	00 91 64 03 	lds	r16, 0x0364
    423a:	10 91 65 03 	lds	r17, 0x0365
    423e:	89 81       	ldd	r24, Y+1	; 0x01
    4240:	9a 81       	ldd	r25, Y+2	; 0x02
    4242:	cc 01       	movw	r24, r24
    4244:	a0 e0       	ldi	r26, 0x00	; 0
    4246:	b0 e0       	ldi	r27, 0x00	; 0
    4248:	bc 01       	movw	r22, r24
    424a:	cd 01       	movw	r24, r26
    424c:	0e 94 07 05 	call	0xa0e	; 0xa0e <__floatunsisf>
    4250:	9b 01       	movw	r18, r22
    4252:	ac 01       	movw	r20, r24
    4254:	c8 01       	movw	r24, r16
    4256:	b7 01       	movw	r22, r14
    4258:	0e 94 19 03 	call	0x632	; 0x632 <__divsf3>
    425c:	dc 01       	movw	r26, r24
    425e:	cb 01       	movw	r24, r22
    4260:	bc 01       	movw	r22, r24
    4262:	cd 01       	movw	r24, r26
    4264:	20 e0       	ldi	r18, 0x00	; 0
    4266:	30 e0       	ldi	r19, 0x00	; 0
    4268:	40 e8       	ldi	r20, 0x80	; 128
    426a:	5f e3       	ldi	r21, 0x3F	; 63
    426c:	0e 94 c1 01 	call	0x382	; 0x382 <__subsf3>
    4270:	dc 01       	movw	r26, r24
    4272:	cb 01       	movw	r24, r22
    4274:	bc 01       	movw	r22, r24
    4276:	cd 01       	movw	r24, r26
    4278:	0e 94 49 00 	call	0x92	; 0x92 <__fixunssfsi>
    427c:	dc 01       	movw	r26, r24
    427e:	cb 01       	movw	r24, r22
    4280:	90 93 61 03 	sts	0x0361, r25
    4284:	80 93 60 03 	sts	0x0360, r24

	ICR1L_REG = top;
    4288:	e6 e4       	ldi	r30, 0x46	; 70
    428a:	f0 e0       	ldi	r31, 0x00	; 0
    428c:	80 91 60 03 	lds	r24, 0x0360
    4290:	90 91 61 03 	lds	r25, 0x0361
    4294:	80 83       	st	Z, r24
	ICR1H_REG = top >> 8;
    4296:	e7 e4       	ldi	r30, 0x47	; 71
    4298:	f0 e0       	ldi	r31, 0x00	; 0
    429a:	80 91 60 03 	lds	r24, 0x0360
    429e:	90 91 61 03 	lds	r25, 0x0361
    42a2:	89 2f       	mov	r24, r25
    42a4:	99 27       	eor	r25, r25
    42a6:	80 83       	st	Z, r24

}
    42a8:	0f 90       	pop	r0
    42aa:	0f 90       	pop	r0
    42ac:	cf 91       	pop	r28
    42ae:	df 91       	pop	r29
    42b0:	1f 91       	pop	r17
    42b2:	0f 91       	pop	r16
    42b4:	ff 90       	pop	r15
    42b6:	ef 90       	pop	r14
    42b8:	08 95       	ret

000042ba <Timer0_SetPWMPhaseControl>:
 */

#include "Timer0.h"

static void Timer0_SetPWMPhaseControl()
{
    42ba:	df 93       	push	r29
    42bc:	cf 93       	push	r28
    42be:	cd b7       	in	r28, 0x3d	; 61
    42c0:	de b7       	in	r29, 0x3e	; 62

	SET_BIT(TCCR0_REG, 6);
    42c2:	a3 e5       	ldi	r26, 0x53	; 83
    42c4:	b0 e0       	ldi	r27, 0x00	; 0
    42c6:	e3 e5       	ldi	r30, 0x53	; 83
    42c8:	f0 e0       	ldi	r31, 0x00	; 0
    42ca:	80 81       	ld	r24, Z
    42cc:	80 64       	ori	r24, 0x40	; 64
    42ce:	8c 93       	st	X, r24

	// Non-Inverted
	TCCR0_REG |= 2 << 4;
    42d0:	a3 e5       	ldi	r26, 0x53	; 83
    42d2:	b0 e0       	ldi	r27, 0x00	; 0
    42d4:	e3 e5       	ldi	r30, 0x53	; 83
    42d6:	f0 e0       	ldi	r31, 0x00	; 0
    42d8:	80 81       	ld	r24, Z
    42da:	80 62       	ori	r24, 0x20	; 32
    42dc:	8c 93       	st	X, r24

	// Set DDR as output
//	Dio_writeChanel(DIO_PORTB, DIO_PIN3, DIO_OUTPUT);
	Dio_configChanel(DIO_PORTB, DIO_PIN3, DIO_OUTPUT);
    42de:	81 e0       	ldi	r24, 0x01	; 1
    42e0:	63 e0       	ldi	r22, 0x03	; 3
    42e2:	41 e0       	ldi	r20, 0x01	; 1
    42e4:	0e 94 be 25 	call	0x4b7c	; 0x4b7c <Dio_configChanel>

}
    42e8:	cf 91       	pop	r28
    42ea:	df 91       	pop	r29
    42ec:	08 95       	ret

000042ee <Timer0_SetNormal>:

static void Timer0_SetNormal()
{
    42ee:	df 93       	push	r29
    42f0:	cf 93       	push	r28
    42f2:	cd b7       	in	r28, 0x3d	; 61
    42f4:	de b7       	in	r29, 0x3e	; 62

	// Enable Timer0 Interrupt overflow
	TIMSK_REG |= 1;
    42f6:	a9 e5       	ldi	r26, 0x59	; 89
    42f8:	b0 e0       	ldi	r27, 0x00	; 0
    42fa:	e9 e5       	ldi	r30, 0x59	; 89
    42fc:	f0 e0       	ldi	r31, 0x00	; 0
    42fe:	80 81       	ld	r24, Z
    4300:	81 60       	ori	r24, 0x01	; 1
    4302:	8c 93       	st	X, r24

}
    4304:	cf 91       	pop	r28
    4306:	df 91       	pop	r29
    4308:	08 95       	ret

0000430a <Timer0_SetCTC>:
static void Timer0_SetCTC()
{
    430a:	df 93       	push	r29
    430c:	cf 93       	push	r28
    430e:	cd b7       	in	r28, 0x3d	; 61
    4310:	de b7       	in	r29, 0x3e	; 62

	// Enable Timer0 Interrupt overflow
	TIMSK_REG |= 2;
    4312:	a9 e5       	ldi	r26, 0x59	; 89
    4314:	b0 e0       	ldi	r27, 0x00	; 0
    4316:	e9 e5       	ldi	r30, 0x59	; 89
    4318:	f0 e0       	ldi	r31, 0x00	; 0
    431a:	80 81       	ld	r24, Z
    431c:	82 60       	ori	r24, 0x02	; 2
    431e:	8c 93       	st	X, r24
	SET_BIT(TCCR0_REG, 3);
    4320:	a3 e5       	ldi	r26, 0x53	; 83
    4322:	b0 e0       	ldi	r27, 0x00	; 0
    4324:	e3 e5       	ldi	r30, 0x53	; 83
    4326:	f0 e0       	ldi	r31, 0x00	; 0
    4328:	80 81       	ld	r24, Z
    432a:	88 60       	ori	r24, 0x08	; 8
    432c:	8c 93       	st	X, r24

}
    432e:	cf 91       	pop	r28
    4330:	df 91       	pop	r29
    4332:	08 95       	ret

00004334 <Timer0_SetFastPWM>:

static void Timer0_SetFastPWM()
{
    4334:	df 93       	push	r29
    4336:	cf 93       	push	r28
    4338:	cd b7       	in	r28, 0x3d	; 61
    433a:	de b7       	in	r29, 0x3e	; 62

	SET_BIT(TCCR0_REG, 6);
    433c:	a3 e5       	ldi	r26, 0x53	; 83
    433e:	b0 e0       	ldi	r27, 0x00	; 0
    4340:	e3 e5       	ldi	r30, 0x53	; 83
    4342:	f0 e0       	ldi	r31, 0x00	; 0
    4344:	80 81       	ld	r24, Z
    4346:	80 64       	ori	r24, 0x40	; 64
    4348:	8c 93       	st	X, r24
	SET_BIT(TCCR0_REG, 3);
    434a:	a3 e5       	ldi	r26, 0x53	; 83
    434c:	b0 e0       	ldi	r27, 0x00	; 0
    434e:	e3 e5       	ldi	r30, 0x53	; 83
    4350:	f0 e0       	ldi	r31, 0x00	; 0
    4352:	80 81       	ld	r24, Z
    4354:	88 60       	ori	r24, 0x08	; 8
    4356:	8c 93       	st	X, r24

	// Non-Inverted
	TCCR0_REG |= 2 << 4;
    4358:	a3 e5       	ldi	r26, 0x53	; 83
    435a:	b0 e0       	ldi	r27, 0x00	; 0
    435c:	e3 e5       	ldi	r30, 0x53	; 83
    435e:	f0 e0       	ldi	r31, 0x00	; 0
    4360:	80 81       	ld	r24, Z
    4362:	80 62       	ori	r24, 0x20	; 32
    4364:	8c 93       	st	X, r24

	// Set DDR as output
	Dio_configChanel(DIO_PORTB, DIO_PIN3, DIO_OUTPUT);
    4366:	81 e0       	ldi	r24, 0x01	; 1
    4368:	63 e0       	ldi	r22, 0x03	; 3
    436a:	41 e0       	ldi	r20, 0x01	; 1
    436c:	0e 94 be 25 	call	0x4b7c	; 0x4b7c <Dio_configChanel>
//	Dio_writeChanel(DIO_PORTB, DIO_PIN3, DIO_HIGH);

}
    4370:	cf 91       	pop	r28
    4372:	df 91       	pop	r29
    4374:	08 95       	ret

00004376 <Timer0_Init>:

void Timer0_Init(timer0_waveform_t waveform)
{
    4376:	df 93       	push	r29
    4378:	cf 93       	push	r28
    437a:	00 d0       	rcall	.+0      	; 0x437c <Timer0_Init+0x6>
    437c:	0f 92       	push	r0
    437e:	cd b7       	in	r28, 0x3d	; 61
    4380:	de b7       	in	r29, 0x3e	; 62
    4382:	89 83       	std	Y+1, r24	; 0x01

	// Global Interrupt
	GIE_EnableGlobalInterrupt();
    4384:	0e 94 2d 25 	call	0x4a5a	; 0x4a5a <GIE_EnableGlobalInterrupt>

	// Select Mode (waveform)
	switch(waveform)
    4388:	89 81       	ldd	r24, Y+1	; 0x01
    438a:	28 2f       	mov	r18, r24
    438c:	30 e0       	ldi	r19, 0x00	; 0
    438e:	3b 83       	std	Y+3, r19	; 0x03
    4390:	2a 83       	std	Y+2, r18	; 0x02
    4392:	8a 81       	ldd	r24, Y+2	; 0x02
    4394:	9b 81       	ldd	r25, Y+3	; 0x03
    4396:	81 30       	cpi	r24, 0x01	; 1
    4398:	91 05       	cpc	r25, r1
    439a:	c1 f0       	breq	.+48     	; 0x43cc <Timer0_Init+0x56>
    439c:	2a 81       	ldd	r18, Y+2	; 0x02
    439e:	3b 81       	ldd	r19, Y+3	; 0x03
    43a0:	22 30       	cpi	r18, 0x02	; 2
    43a2:	31 05       	cpc	r19, r1
    43a4:	2c f4       	brge	.+10     	; 0x43b0 <Timer0_Init+0x3a>
    43a6:	8a 81       	ldd	r24, Y+2	; 0x02
    43a8:	9b 81       	ldd	r25, Y+3	; 0x03
    43aa:	00 97       	sbiw	r24, 0x00	; 0
    43ac:	61 f0       	breq	.+24     	; 0x43c6 <Timer0_Init+0x50>
    43ae:	16 c0       	rjmp	.+44     	; 0x43dc <Timer0_Init+0x66>
    43b0:	2a 81       	ldd	r18, Y+2	; 0x02
    43b2:	3b 81       	ldd	r19, Y+3	; 0x03
    43b4:	22 30       	cpi	r18, 0x02	; 2
    43b6:	31 05       	cpc	r19, r1
    43b8:	61 f0       	breq	.+24     	; 0x43d2 <Timer0_Init+0x5c>
    43ba:	8a 81       	ldd	r24, Y+2	; 0x02
    43bc:	9b 81       	ldd	r25, Y+3	; 0x03
    43be:	83 30       	cpi	r24, 0x03	; 3
    43c0:	91 05       	cpc	r25, r1
    43c2:	51 f0       	breq	.+20     	; 0x43d8 <Timer0_Init+0x62>
    43c4:	0b c0       	rjmp	.+22     	; 0x43dc <Timer0_Init+0x66>
	{

	case TIMER0_NORMAL:
		Timer0_SetNormal();
    43c6:	0e 94 77 21 	call	0x42ee	; 0x42ee <Timer0_SetNormal>
    43ca:	08 c0       	rjmp	.+16     	; 0x43dc <Timer0_Init+0x66>
		break;
	case TIMER0_PWM_PHASE_CORRECT:
		Timer0_SetPWMPhaseControl();
    43cc:	0e 94 5d 21 	call	0x42ba	; 0x42ba <Timer0_SetPWMPhaseControl>
    43d0:	05 c0       	rjmp	.+10     	; 0x43dc <Timer0_Init+0x66>
		break;
	case TIMER0_CTC:
		Timer0_SetCTC();
    43d2:	0e 94 85 21 	call	0x430a	; 0x430a <Timer0_SetCTC>
    43d6:	02 c0       	rjmp	.+4      	; 0x43dc <Timer0_Init+0x66>
		break;
	case TIMER0_FAST_PWM:
		Timer0_SetFastPWM();
    43d8:	0e 94 9a 21 	call	0x4334	; 0x4334 <Timer0_SetFastPWM>
		break;

	}

}
    43dc:	0f 90       	pop	r0
    43de:	0f 90       	pop	r0
    43e0:	0f 90       	pop	r0
    43e2:	cf 91       	pop	r28
    43e4:	df 91       	pop	r29
    43e6:	08 95       	ret

000043e8 <Timer0_SetPreload>:
// Normal | CTC



void Timer0_SetPreload(u8 preload)
{
    43e8:	df 93       	push	r29
    43ea:	cf 93       	push	r28
    43ec:	0f 92       	push	r0
    43ee:	cd b7       	in	r28, 0x3d	; 61
    43f0:	de b7       	in	r29, 0x3e	; 62
    43f2:	89 83       	std	Y+1, r24	; 0x01
	if (preload > 256)
	{
		return;
	}

	TCNT0_REG |= preload;
    43f4:	a2 e5       	ldi	r26, 0x52	; 82
    43f6:	b0 e0       	ldi	r27, 0x00	; 0
    43f8:	e2 e5       	ldi	r30, 0x52	; 82
    43fa:	f0 e0       	ldi	r31, 0x00	; 0
    43fc:	90 81       	ld	r25, Z
    43fe:	89 81       	ldd	r24, Y+1	; 0x01
    4400:	89 2b       	or	r24, r25
    4402:	8c 93       	st	X, r24

}
    4404:	0f 90       	pop	r0
    4406:	cf 91       	pop	r28
    4408:	df 91       	pop	r29
    440a:	08 95       	ret

0000440c <Timer0_SetTime>:

void Timer0_SetTime(u16 time)
{
    440c:	df 93       	push	r29
    440e:	cf 93       	push	r28
    4410:	00 d0       	rcall	.+0      	; 0x4412 <Timer0_SetTime+0x6>
    4412:	00 d0       	rcall	.+0      	; 0x4414 <Timer0_SetTime+0x8>
    4414:	0f 92       	push	r0
    4416:	cd b7       	in	r28, 0x3d	; 61
    4418:	de b7       	in	r29, 0x3e	; 62
    441a:	9d 83       	std	Y+5, r25	; 0x05
    441c:	8c 83       	std	Y+4, r24	; 0x04

	// Tick time = 1/prescale
	// Overload time = (256 - preload value) * Tick time
	// Preload = 256 - (time/Tick Time)

	u8 prescale = TCCR0_REG & 0x07;		// 0000 0111
    441e:	e3 e5       	ldi	r30, 0x53	; 83
    4420:	f0 e0       	ldi	r31, 0x00	; 0
    4422:	80 81       	ld	r24, Z
    4424:	87 70       	andi	r24, 0x07	; 7
    4426:	8b 83       	std	Y+3, r24	; 0x03
	u8 tickTime = 1 / prescale;
    4428:	8b 81       	ldd	r24, Y+3	; 0x03
    442a:	28 2f       	mov	r18, r24
    442c:	30 e0       	ldi	r19, 0x00	; 0
    442e:	81 e0       	ldi	r24, 0x01	; 1
    4430:	90 e0       	ldi	r25, 0x00	; 0
    4432:	b9 01       	movw	r22, r18
    4434:	0e 94 88 29 	call	0x5310	; 0x5310 <__divmodhi4>
    4438:	cb 01       	movw	r24, r22
    443a:	8a 83       	std	Y+2, r24	; 0x02
	u8 preload = 256 - (time / tickTime);
    443c:	8a 81       	ldd	r24, Y+2	; 0x02
    443e:	28 2f       	mov	r18, r24
    4440:	30 e0       	ldi	r19, 0x00	; 0
    4442:	8c 81       	ldd	r24, Y+4	; 0x04
    4444:	9d 81       	ldd	r25, Y+5	; 0x05
    4446:	b9 01       	movw	r22, r18
    4448:	0e 94 74 29 	call	0x52e8	; 0x52e8 <__udivmodhi4>
    444c:	cb 01       	movw	r24, r22
    444e:	81 95       	neg	r24
    4450:	89 83       	std	Y+1, r24	; 0x01

	Timer0_SetPreload(preload);
    4452:	89 81       	ldd	r24, Y+1	; 0x01
    4454:	0e 94 f4 21 	call	0x43e8	; 0x43e8 <Timer0_SetPreload>

}
    4458:	0f 90       	pop	r0
    445a:	0f 90       	pop	r0
    445c:	0f 90       	pop	r0
    445e:	0f 90       	pop	r0
    4460:	0f 90       	pop	r0
    4462:	cf 91       	pop	r28
    4464:	df 91       	pop	r29
    4466:	08 95       	ret

00004468 <Timer0_Start>:

void Timer0_Start(timer0_clockSelect_t clockSelect)
{
    4468:	df 93       	push	r29
    446a:	cf 93       	push	r28
    446c:	0f 92       	push	r0
    446e:	cd b7       	in	r28, 0x3d	; 61
    4470:	de b7       	in	r29, 0x3e	; 62
    4472:	89 83       	std	Y+1, r24	; 0x01

	// Clock select (Prescale)
	TCCR0_REG |= clockSelect;
    4474:	a3 e5       	ldi	r26, 0x53	; 83
    4476:	b0 e0       	ldi	r27, 0x00	; 0
    4478:	e3 e5       	ldi	r30, 0x53	; 83
    447a:	f0 e0       	ldi	r31, 0x00	; 0
    447c:	90 81       	ld	r25, Z
    447e:	89 81       	ldd	r24, Y+1	; 0x01
    4480:	89 2b       	or	r24, r25
    4482:	8c 93       	st	X, r24

}
    4484:	0f 90       	pop	r0
    4486:	cf 91       	pop	r28
    4488:	df 91       	pop	r29
    448a:	08 95       	ret

0000448c <Timer0_Stop>:

void Timer0_Stop()
{
    448c:	df 93       	push	r29
    448e:	cf 93       	push	r28
    4490:	cd b7       	in	r28, 0x3d	; 61
    4492:	de b7       	in	r29, 0x3e	; 62

	// Stop Timer/Counter by clearing prescaler
	TCCR0_REG &= 0xf8;
    4494:	a3 e5       	ldi	r26, 0x53	; 83
    4496:	b0 e0       	ldi	r27, 0x00	; 0
    4498:	e3 e5       	ldi	r30, 0x53	; 83
    449a:	f0 e0       	ldi	r31, 0x00	; 0
    449c:	80 81       	ld	r24, Z
    449e:	88 7f       	andi	r24, 0xF8	; 248
    44a0:	8c 93       	st	X, r24

}
    44a2:	cf 91       	pop	r28
    44a4:	df 91       	pop	r29
    44a6:	08 95       	ret

000044a8 <Timer0_SetDuty>:


// For PWM Modes
void Timer0_SetDuty(u8 dutyPercentage)
{
    44a8:	0f 93       	push	r16
    44aa:	1f 93       	push	r17
    44ac:	df 93       	push	r29
    44ae:	cf 93       	push	r28
    44b0:	0f 92       	push	r0
    44b2:	cd b7       	in	r28, 0x3d	; 61
    44b4:	de b7       	in	r29, 0x3e	; 62
    44b6:	89 83       	std	Y+1, r24	; 0x01

	OCR0_REG = (u8) (255 * ((f32) dutyPercentage / 100));
    44b8:	0c e5       	ldi	r16, 0x5C	; 92
    44ba:	10 e0       	ldi	r17, 0x00	; 0
    44bc:	89 81       	ldd	r24, Y+1	; 0x01
    44be:	88 2f       	mov	r24, r24
    44c0:	90 e0       	ldi	r25, 0x00	; 0
    44c2:	a0 e0       	ldi	r26, 0x00	; 0
    44c4:	b0 e0       	ldi	r27, 0x00	; 0
    44c6:	bc 01       	movw	r22, r24
    44c8:	cd 01       	movw	r24, r26
    44ca:	0e 94 07 05 	call	0xa0e	; 0xa0e <__floatunsisf>
    44ce:	dc 01       	movw	r26, r24
    44d0:	cb 01       	movw	r24, r22
    44d2:	bc 01       	movw	r22, r24
    44d4:	cd 01       	movw	r24, r26
    44d6:	20 e0       	ldi	r18, 0x00	; 0
    44d8:	30 e0       	ldi	r19, 0x00	; 0
    44da:	48 ec       	ldi	r20, 0xC8	; 200
    44dc:	52 e4       	ldi	r21, 0x42	; 66
    44de:	0e 94 19 03 	call	0x632	; 0x632 <__divsf3>
    44e2:	dc 01       	movw	r26, r24
    44e4:	cb 01       	movw	r24, r22
    44e6:	bc 01       	movw	r22, r24
    44e8:	cd 01       	movw	r24, r26
    44ea:	20 e0       	ldi	r18, 0x00	; 0
    44ec:	30 e0       	ldi	r19, 0x00	; 0
    44ee:	4f e7       	ldi	r20, 0x7F	; 127
    44f0:	53 e4       	ldi	r21, 0x43	; 67
    44f2:	0e 94 1f 02 	call	0x43e	; 0x43e <__mulsf3>
    44f6:	dc 01       	movw	r26, r24
    44f8:	cb 01       	movw	r24, r22
    44fa:	bc 01       	movw	r22, r24
    44fc:	cd 01       	movw	r24, r26
    44fe:	0e 94 49 00 	call	0x92	; 0x92 <__fixunssfsi>
    4502:	dc 01       	movw	r26, r24
    4504:	cb 01       	movw	r24, r22
    4506:	f8 01       	movw	r30, r16
    4508:	80 83       	st	Z, r24

}
    450a:	0f 90       	pop	r0
    450c:	cf 91       	pop	r28
    450e:	df 91       	pop	r29
    4510:	1f 91       	pop	r17
    4512:	0f 91       	pop	r16
    4514:	08 95       	ret

00004516 <Timer0_SetFrequency>:

void Timer0_SetFrequency(u8 frequency)
{
    4516:	df 93       	push	r29
    4518:	cf 93       	push	r28
    451a:	0f 92       	push	r0
    451c:	cd b7       	in	r28, 0x3d	; 61
    451e:	de b7       	in	r29, 0x3e	; 62
    4520:	89 83       	std	Y+1, r24	; 0x01



}
    4522:	0f 90       	pop	r0
    4524:	cf 91       	pop	r28
    4526:	df 91       	pop	r29
    4528:	08 95       	ret

0000452a <TWI_initMaster>:
#define TWEN	2
#define TWINT	7
#define TWEA	6

void TWI_initMaster(void)
{
    452a:	df 93       	push	r29
    452c:	cf 93       	push	r28
    452e:	cd b7       	in	r28, 0x3d	; 61
    4530:	de b7       	in	r29, 0x3e	; 62
	// Set Prescaller = 1
	CLR_BIT(TWSR,0);
    4532:	a1 e2       	ldi	r26, 0x21	; 33
    4534:	b0 e0       	ldi	r27, 0x00	; 0
    4536:	e1 e2       	ldi	r30, 0x21	; 33
    4538:	f0 e0       	ldi	r31, 0x00	; 0
    453a:	80 81       	ld	r24, Z
    453c:	8e 7f       	andi	r24, 0xFE	; 254
    453e:	8c 93       	st	X, r24
	CLR_BIT(TWSR,1);
    4540:	a1 e2       	ldi	r26, 0x21	; 33
    4542:	b0 e0       	ldi	r27, 0x00	; 0
    4544:	e1 e2       	ldi	r30, 0x21	; 33
    4546:	f0 e0       	ldi	r31, 0x00	; 0
    4548:	80 81       	ld	r24, Z
    454a:	8d 7f       	andi	r24, 0xFD	; 253
    454c:	8c 93       	st	X, r24
//	// Set Freq. = 400KHZ
//	TWBR = 12;

	// This solved the setup and hold time warnings
	// Set Freq. = 100KHZ
	TWBR = 72;
    454e:	e0 e2       	ldi	r30, 0x20	; 32
    4550:	f0 e0       	ldi	r31, 0x00	; 0
    4552:	88 e4       	ldi	r24, 0x48	; 72
    4554:	80 83       	st	Z, r24

	// Enable ACK
	SET_BIT(TWCR,TWEA);
    4556:	a6 e5       	ldi	r26, 0x56	; 86
    4558:	b0 e0       	ldi	r27, 0x00	; 0
    455a:	e6 e5       	ldi	r30, 0x56	; 86
    455c:	f0 e0       	ldi	r31, 0x00	; 0
    455e:	80 81       	ld	r24, Z
    4560:	80 64       	ori	r24, 0x40	; 64
    4562:	8c 93       	st	X, r24

	// Enable TWI
    SET_BIT(TWCR,TWEN);
    4564:	a6 e5       	ldi	r26, 0x56	; 86
    4566:	b0 e0       	ldi	r27, 0x00	; 0
    4568:	e6 e5       	ldi	r30, 0x56	; 86
    456a:	f0 e0       	ldi	r31, 0x00	; 0
    456c:	80 81       	ld	r24, Z
    456e:	84 60       	ori	r24, 0x04	; 4
    4570:	8c 93       	st	X, r24

}
    4572:	cf 91       	pop	r28
    4574:	df 91       	pop	r29
    4576:	08 95       	ret

00004578 <TWI_initSlave>:


void TWI_initSlave(u8 slaveAdd)
{
    4578:	df 93       	push	r29
    457a:	cf 93       	push	r28
    457c:	0f 92       	push	r0
    457e:	cd b7       	in	r28, 0x3d	; 61
    4580:	de b7       	in	r29, 0x3e	; 62
    4582:	89 83       	std	Y+1, r24	; 0x01
	// Set Slave Address
	TWAR = slaveAdd<<1;
    4584:	e2 e2       	ldi	r30, 0x22	; 34
    4586:	f0 e0       	ldi	r31, 0x00	; 0
    4588:	89 81       	ldd	r24, Y+1	; 0x01
    458a:	88 0f       	add	r24, r24
    458c:	80 83       	st	Z, r24

	// Disable General Call
	CLR_BIT(TWAR,0);
    458e:	a2 e2       	ldi	r26, 0x22	; 34
    4590:	b0 e0       	ldi	r27, 0x00	; 0
    4592:	e2 e2       	ldi	r30, 0x22	; 34
    4594:	f0 e0       	ldi	r31, 0x00	; 0
    4596:	80 81       	ld	r24, Z
    4598:	8e 7f       	andi	r24, 0xFE	; 254
    459a:	8c 93       	st	X, r24

	// Enable ACK
	SET_BIT(TWCR,TWEA);
    459c:	a6 e5       	ldi	r26, 0x56	; 86
    459e:	b0 e0       	ldi	r27, 0x00	; 0
    45a0:	e6 e5       	ldi	r30, 0x56	; 86
    45a2:	f0 e0       	ldi	r31, 0x00	; 0
    45a4:	80 81       	ld	r24, Z
    45a6:	80 64       	ori	r24, 0x40	; 64
    45a8:	8c 93       	st	X, r24

	// Enable TWI
    SET_BIT(TWCR,TWEN);
    45aa:	a6 e5       	ldi	r26, 0x56	; 86
    45ac:	b0 e0       	ldi	r27, 0x00	; 0
    45ae:	e6 e5       	ldi	r30, 0x56	; 86
    45b0:	f0 e0       	ldi	r31, 0x00	; 0
    45b2:	80 81       	ld	r24, Z
    45b4:	84 60       	ori	r24, 0x04	; 4
    45b6:	8c 93       	st	X, r24

}
    45b8:	0f 90       	pop	r0
    45ba:	cf 91       	pop	r28
    45bc:	df 91       	pop	r29
    45be:	08 95       	ret

000045c0 <TWI_sendStartCondition>:


void TWI_sendStartCondition(void)
{
    45c0:	df 93       	push	r29
    45c2:	cf 93       	push	r28
    45c4:	cd b7       	in	r28, 0x3d	; 61
    45c6:	de b7       	in	r29, 0x3e	; 62

	// Send Start Condition
	SET_BIT(TWCR,5);
    45c8:	a6 e5       	ldi	r26, 0x56	; 86
    45ca:	b0 e0       	ldi	r27, 0x00	; 0
    45cc:	e6 e5       	ldi	r30, 0x56	; 86
    45ce:	f0 e0       	ldi	r31, 0x00	; 0
    45d0:	80 81       	ld	r24, Z
    45d2:	80 62       	ori	r24, 0x20	; 32
    45d4:	8c 93       	st	X, r24

	TWCR = (1 << TWEN) | (1 << TWINT) | (1 << TWEA);	/* Enable TWI and clear interrupt flag, ACK */
    45d6:	e6 e5       	ldi	r30, 0x56	; 86
    45d8:	f0 e0       	ldi	r31, 0x00	; 0
    45da:	84 ec       	ldi	r24, 0xC4	; 196
    45dc:	80 83       	st	Z, r24
//	while(!(TWCR&(1<<TWINT)));	/* Wait until TWI finish its current job */

	// Wait for the flag
	while(CHECK_BIT(TWCR, TWINT) == 0);
    45de:	e6 e5       	ldi	r30, 0x56	; 86
    45e0:	f0 e0       	ldi	r31, 0x00	; 0
    45e2:	80 81       	ld	r24, Z
    45e4:	88 23       	and	r24, r24
    45e6:	dc f7       	brge	.-10     	; 0x45de <TWI_sendStartCondition+0x1e>

	LCD_displayChar('C');
    45e8:	83 e4       	ldi	r24, 0x43	; 67
    45ea:	0e 94 87 14 	call	0x290e	; 0x290e <LCD_displayChar>

	// Check ACK = SC ACK
	while((TWSR & 0xF8) != 0x08);
    45ee:	e1 e2       	ldi	r30, 0x21	; 33
    45f0:	f0 e0       	ldi	r31, 0x00	; 0
    45f2:	80 81       	ld	r24, Z
    45f4:	88 2f       	mov	r24, r24
    45f6:	90 e0       	ldi	r25, 0x00	; 0
    45f8:	88 7f       	andi	r24, 0xF8	; 248
    45fa:	90 70       	andi	r25, 0x00	; 0
    45fc:	88 30       	cpi	r24, 0x08	; 8
    45fe:	91 05       	cpc	r25, r1
    4600:	b1 f7       	brne	.-20     	; 0x45ee <TWI_sendStartCondition+0x2e>


}
    4602:	cf 91       	pop	r28
    4604:	df 91       	pop	r29
    4606:	08 95       	ret

00004608 <TWI_sendRepStartCondition>:


void TWI_sendRepStartCondition(void)
{
    4608:	df 93       	push	r29
    460a:	cf 93       	push	r28
    460c:	cd b7       	in	r28, 0x3d	; 61
    460e:	de b7       	in	r29, 0x3e	; 62

	// Send Start Condition
	SET_BIT(TWCR,5);
    4610:	a6 e5       	ldi	r26, 0x56	; 86
    4612:	b0 e0       	ldi	r27, 0x00	; 0
    4614:	e6 e5       	ldi	r30, 0x56	; 86
    4616:	f0 e0       	ldi	r31, 0x00	; 0
    4618:	80 81       	ld	r24, Z
    461a:	80 62       	ori	r24, 0x20	; 32
    461c:	8c 93       	st	X, r24

	TWCR = (1 << TWEN) | (1 << TWINT) | (1 << TWEA);	/* Enable TWI and clear interrupt flag, ACK */
    461e:	e6 e5       	ldi	r30, 0x56	; 86
    4620:	f0 e0       	ldi	r31, 0x00	; 0
    4622:	84 ec       	ldi	r24, 0xC4	; 196
    4624:	80 83       	st	Z, r24

	// Wait for the flag
	while(0 == GET_BIT(TWCR,TWINT));
    4626:	e6 e5       	ldi	r30, 0x56	; 86
    4628:	f0 e0       	ldi	r31, 0x00	; 0
    462a:	80 81       	ld	r24, Z
    462c:	88 23       	and	r24, r24
    462e:	dc f7       	brge	.-10     	; 0x4626 <TWI_sendRepStartCondition+0x1e>

	// Check ACK = Repeated SC ACK
	while((TWSR & 0xF8) != 0x10);
    4630:	e1 e2       	ldi	r30, 0x21	; 33
    4632:	f0 e0       	ldi	r31, 0x00	; 0
    4634:	80 81       	ld	r24, Z
    4636:	88 2f       	mov	r24, r24
    4638:	90 e0       	ldi	r25, 0x00	; 0
    463a:	88 7f       	andi	r24, 0xF8	; 248
    463c:	90 70       	andi	r25, 0x00	; 0
    463e:	80 31       	cpi	r24, 0x10	; 16
    4640:	91 05       	cpc	r25, r1
    4642:	b1 f7       	brne	.-20     	; 0x4630 <TWI_sendRepStartCondition+0x28>
}
    4644:	cf 91       	pop	r28
    4646:	df 91       	pop	r29
    4648:	08 95       	ret

0000464a <TWI_sendStopCondition>:


void TWI_sendStopCondition(void)
{
    464a:	df 93       	push	r29
    464c:	cf 93       	push	r28
    464e:	cd b7       	in	r28, 0x3d	; 61
    4650:	de b7       	in	r29, 0x3e	; 62

	// Send Stop Condition
	SET_BIT(TWCR,4);
    4652:	a6 e5       	ldi	r26, 0x56	; 86
    4654:	b0 e0       	ldi	r27, 0x00	; 0
    4656:	e6 e5       	ldi	r30, 0x56	; 86
    4658:	f0 e0       	ldi	r31, 0x00	; 0
    465a:	80 81       	ld	r24, Z
    465c:	80 61       	ori	r24, 0x10	; 16
    465e:	8c 93       	st	X, r24

	TWCR = (1 << TWEN) | (1 << TWINT) | (1 << TWEA);	/* Enable TWI and clear interrupt flag, ACK */
    4660:	e6 e5       	ldi	r30, 0x56	; 86
    4662:	f0 e0       	ldi	r31, 0x00	; 0
    4664:	84 ec       	ldi	r24, 0xC4	; 196
    4666:	80 83       	st	Z, r24

	while (GET_BIT(TWCR, 4) == 1);
    4668:	e6 e5       	ldi	r30, 0x56	; 86
    466a:	f0 e0       	ldi	r31, 0x00	; 0
    466c:	80 81       	ld	r24, Z
    466e:	82 95       	swap	r24
    4670:	8f 70       	andi	r24, 0x0F	; 15
    4672:	88 2f       	mov	r24, r24
    4674:	90 e0       	ldi	r25, 0x00	; 0
    4676:	81 70       	andi	r24, 0x01	; 1
    4678:	90 70       	andi	r25, 0x00	; 0
    467a:	88 23       	and	r24, r24
    467c:	a9 f7       	brne	.-22     	; 0x4668 <TWI_sendStopCondition+0x1e>

}
    467e:	cf 91       	pop	r28
    4680:	df 91       	pop	r29
    4682:	08 95       	ret

00004684 <TWI_sendSlaveAddwithWrite>:


void TWI_sendSlaveAddwithWrite(u8 slaveAdd)
{
    4684:	df 93       	push	r29
    4686:	cf 93       	push	r28
    4688:	0f 92       	push	r0
    468a:	cd b7       	in	r28, 0x3d	; 61
    468c:	de b7       	in	r29, 0x3e	; 62
    468e:	89 83       	std	Y+1, r24	; 0x01
	// Set slave address
	TWDR = slaveAdd<<1;
    4690:	e3 e2       	ldi	r30, 0x23	; 35
    4692:	f0 e0       	ldi	r31, 0x00	; 0
    4694:	89 81       	ldd	r24, Y+1	; 0x01
    4696:	88 0f       	add	r24, r24
    4698:	80 83       	st	Z, r24

	// Select write operation
	CLR_BIT(TWDR,0);
    469a:	a3 e2       	ldi	r26, 0x23	; 35
    469c:	b0 e0       	ldi	r27, 0x00	; 0
    469e:	e3 e2       	ldi	r30, 0x23	; 35
    46a0:	f0 e0       	ldi	r31, 0x00	; 0
    46a2:	80 81       	ld	r24, Z
    46a4:	8e 7f       	andi	r24, 0xFE	; 254
    46a6:	8c 93       	st	X, r24

	// Clear SC bit
	CLR_BIT(TWCR,5);
    46a8:	a6 e5       	ldi	r26, 0x56	; 86
    46aa:	b0 e0       	ldi	r27, 0x00	; 0
    46ac:	e6 e5       	ldi	r30, 0x56	; 86
    46ae:	f0 e0       	ldi	r31, 0x00	; 0
    46b0:	80 81       	ld	r24, Z
    46b2:	8f 7d       	andi	r24, 0xDF	; 223
    46b4:	8c 93       	st	X, r24

	// Clear flag to start next job
	SET_BIT(TWCR,TWINT);
    46b6:	a6 e5       	ldi	r26, 0x56	; 86
    46b8:	b0 e0       	ldi	r27, 0x00	; 0
    46ba:	e6 e5       	ldi	r30, 0x56	; 86
    46bc:	f0 e0       	ldi	r31, 0x00	; 0
    46be:	80 81       	ld	r24, Z
    46c0:	80 68       	ori	r24, 0x80	; 128
    46c2:	8c 93       	st	X, r24
	// Enable TWI
	SET_BIT(TWCR,TWEN);
    46c4:	a6 e5       	ldi	r26, 0x56	; 86
    46c6:	b0 e0       	ldi	r27, 0x00	; 0
    46c8:	e6 e5       	ldi	r30, 0x56	; 86
    46ca:	f0 e0       	ldi	r31, 0x00	; 0
    46cc:	80 81       	ld	r24, Z
    46ce:	84 60       	ori	r24, 0x04	; 4
    46d0:	8c 93       	st	X, r24

	// Wait for the flag
	while(0 == GET_BIT(TWCR,TWINT));
    46d2:	e6 e5       	ldi	r30, 0x56	; 86
    46d4:	f0 e0       	ldi	r31, 0x00	; 0
    46d6:	80 81       	ld	r24, Z
    46d8:	88 23       	and	r24, r24
    46da:	dc f7       	brge	.-10     	; 0x46d2 <TWI_sendSlaveAddwithWrite+0x4e>

	// Check ACK = Master transmit ( slave address + Write request ) ACK
	while((TWSR & 0xF8) != 0x18);
    46dc:	e1 e2       	ldi	r30, 0x21	; 33
    46de:	f0 e0       	ldi	r31, 0x00	; 0
    46e0:	80 81       	ld	r24, Z
    46e2:	88 2f       	mov	r24, r24
    46e4:	90 e0       	ldi	r25, 0x00	; 0
    46e6:	88 7f       	andi	r24, 0xF8	; 248
    46e8:	90 70       	andi	r25, 0x00	; 0
    46ea:	88 31       	cpi	r24, 0x18	; 24
    46ec:	91 05       	cpc	r25, r1
    46ee:	b1 f7       	brne	.-20     	; 0x46dc <TWI_sendSlaveAddwithWrite+0x58>
}
    46f0:	0f 90       	pop	r0
    46f2:	cf 91       	pop	r28
    46f4:	df 91       	pop	r29
    46f6:	08 95       	ret

000046f8 <TWI_sendSlaveAddwithRead>:


void TWI_sendSlaveAddwithRead(u8 slaveAdd)
{
    46f8:	df 93       	push	r29
    46fa:	cf 93       	push	r28
    46fc:	0f 92       	push	r0
    46fe:	cd b7       	in	r28, 0x3d	; 61
    4700:	de b7       	in	r29, 0x3e	; 62
    4702:	89 83       	std	Y+1, r24	; 0x01
	// Set slave address
	TWDR = slaveAdd<<1;
    4704:	e3 e2       	ldi	r30, 0x23	; 35
    4706:	f0 e0       	ldi	r31, 0x00	; 0
    4708:	89 81       	ldd	r24, Y+1	; 0x01
    470a:	88 0f       	add	r24, r24
    470c:	80 83       	st	Z, r24

	// Select read operation
	SET_BIT(TWDR,0);
    470e:	a3 e2       	ldi	r26, 0x23	; 35
    4710:	b0 e0       	ldi	r27, 0x00	; 0
    4712:	e3 e2       	ldi	r30, 0x23	; 35
    4714:	f0 e0       	ldi	r31, 0x00	; 0
    4716:	80 81       	ld	r24, Z
    4718:	81 60       	ori	r24, 0x01	; 1
    471a:	8c 93       	st	X, r24

	// Clear SC bit
	CLR_BIT(TWCR,5);
    471c:	a6 e5       	ldi	r26, 0x56	; 86
    471e:	b0 e0       	ldi	r27, 0x00	; 0
    4720:	e6 e5       	ldi	r30, 0x56	; 86
    4722:	f0 e0       	ldi	r31, 0x00	; 0
    4724:	80 81       	ld	r24, Z
    4726:	8f 7d       	andi	r24, 0xDF	; 223
    4728:	8c 93       	st	X, r24

	// Clear flag to start next job
	SET_BIT(TWCR,TWINT);
    472a:	a6 e5       	ldi	r26, 0x56	; 86
    472c:	b0 e0       	ldi	r27, 0x00	; 0
    472e:	e6 e5       	ldi	r30, 0x56	; 86
    4730:	f0 e0       	ldi	r31, 0x00	; 0
    4732:	80 81       	ld	r24, Z
    4734:	80 68       	ori	r24, 0x80	; 128
    4736:	8c 93       	st	X, r24
	// Enable TWI
	SET_BIT(TWCR,TWEN);
    4738:	a6 e5       	ldi	r26, 0x56	; 86
    473a:	b0 e0       	ldi	r27, 0x00	; 0
    473c:	e6 e5       	ldi	r30, 0x56	; 86
    473e:	f0 e0       	ldi	r31, 0x00	; 0
    4740:	80 81       	ld	r24, Z
    4742:	84 60       	ori	r24, 0x04	; 4
    4744:	8c 93       	st	X, r24

	// Wait for the flagz
	while(0 == GET_BIT(TWCR,TWINT));
    4746:	e6 e5       	ldi	r30, 0x56	; 86
    4748:	f0 e0       	ldi	r31, 0x00	; 0
    474a:	80 81       	ld	r24, Z
    474c:	88 23       	and	r24, r24
    474e:	dc f7       	brge	.-10     	; 0x4746 <TWI_sendSlaveAddwithRead+0x4e>

	// Check ACK = Master transmit ( slave address + Read request ) ACK
	while((TWSR & 0xF8) != 0x40);
    4750:	e1 e2       	ldi	r30, 0x21	; 33
    4752:	f0 e0       	ldi	r31, 0x00	; 0
    4754:	80 81       	ld	r24, Z
    4756:	88 2f       	mov	r24, r24
    4758:	90 e0       	ldi	r25, 0x00	; 0
    475a:	88 7f       	andi	r24, 0xF8	; 248
    475c:	90 70       	andi	r25, 0x00	; 0
    475e:	80 34       	cpi	r24, 0x40	; 64
    4760:	91 05       	cpc	r25, r1
    4762:	b1 f7       	brne	.-20     	; 0x4750 <TWI_sendSlaveAddwithRead+0x58>
}
    4764:	0f 90       	pop	r0
    4766:	cf 91       	pop	r28
    4768:	df 91       	pop	r29
    476a:	08 95       	ret

0000476c <TWI_sendMasterDataByte>:


void TWI_sendMasterDataByte(u8 data)
{
    476c:	df 93       	push	r29
    476e:	cf 93       	push	r28
    4770:	0f 92       	push	r0
    4772:	cd b7       	in	r28, 0x3d	; 61
    4774:	de b7       	in	r29, 0x3e	; 62
    4776:	89 83       	std	Y+1, r24	; 0x01

	// Write Data into data register
	TWDR = data;
    4778:	e3 e2       	ldi	r30, 0x23	; 35
    477a:	f0 e0       	ldi	r31, 0x00	; 0
    477c:	89 81       	ldd	r24, Y+1	; 0x01
    477e:	80 83       	st	Z, r24

	TWCR = (1 << TWEN) | (1 << TWINT) | (1 << TWEA);	/* Enable TWI and clear interrupt flag, ACK */
    4780:	e6 e5       	ldi	r30, 0x56	; 86
    4782:	f0 e0       	ldi	r31, 0x00	; 0
    4784:	84 ec       	ldi	r24, 0xC4	; 196
    4786:	80 83       	st	Z, r24
	// Wait for the flag
	while(0 == GET_BIT(TWCR,TWINT));
    4788:	e6 e5       	ldi	r30, 0x56	; 86
    478a:	f0 e0       	ldi	r31, 0x00	; 0
    478c:	80 81       	ld	r24, Z
    478e:	88 23       	and	r24, r24
    4790:	dc f7       	brge	.-10     	; 0x4788 <TWI_sendMasterDataByte+0x1c>

	// Check ACK = Master transmit data ACK
	while((TWSR & 0xF8) != 0x28);
    4792:	e1 e2       	ldi	r30, 0x21	; 33
    4794:	f0 e0       	ldi	r31, 0x00	; 0
    4796:	80 81       	ld	r24, Z
    4798:	88 2f       	mov	r24, r24
    479a:	90 e0       	ldi	r25, 0x00	; 0
    479c:	88 7f       	andi	r24, 0xF8	; 248
    479e:	90 70       	andi	r25, 0x00	; 0
    47a0:	88 32       	cpi	r24, 0x28	; 40
    47a2:	91 05       	cpc	r25, r1
    47a4:	b1 f7       	brne	.-20     	; 0x4792 <TWI_sendMasterDataByte+0x26>
}
    47a6:	0f 90       	pop	r0
    47a8:	cf 91       	pop	r28
    47aa:	df 91       	pop	r29
    47ac:	08 95       	ret

000047ae <TWI_readMasterDataByte>:


void TWI_readMasterDataByte(u8* returnedData)
{
    47ae:	df 93       	push	r29
    47b0:	cf 93       	push	r28
    47b2:	00 d0       	rcall	.+0      	; 0x47b4 <TWI_readMasterDataByte+0x6>
    47b4:	cd b7       	in	r28, 0x3d	; 61
    47b6:	de b7       	in	r29, 0x3e	; 62
    47b8:	9a 83       	std	Y+2, r25	; 0x02
    47ba:	89 83       	std	Y+1, r24	; 0x01
	if(returnedData != 0)
    47bc:	89 81       	ldd	r24, Y+1	; 0x01
    47be:	9a 81       	ldd	r25, Y+2	; 0x02
    47c0:	00 97       	sbiw	r24, 0x00	; 0
    47c2:	a1 f0       	breq	.+40     	; 0x47ec <TWI_readMasterDataByte+0x3e>
	{

		TWCR = (1 << TWEN) | (1 << TWINT) | (1 << TWEA);	/* Enable TWI and clear interrupt flag, ACK */
    47c4:	e6 e5       	ldi	r30, 0x56	; 86
    47c6:	f0 e0       	ldi	r31, 0x00	; 0
    47c8:	84 ec       	ldi	r24, 0xC4	; 196
    47ca:	80 83       	st	Z, r24

	    // Check ACK = Master received data with ACK
		while((TWSR & 0xF8) != 0x50);
    47cc:	e1 e2       	ldi	r30, 0x21	; 33
    47ce:	f0 e0       	ldi	r31, 0x00	; 0
    47d0:	80 81       	ld	r24, Z
    47d2:	88 2f       	mov	r24, r24
    47d4:	90 e0       	ldi	r25, 0x00	; 0
    47d6:	88 7f       	andi	r24, 0xF8	; 248
    47d8:	90 70       	andi	r25, 0x00	; 0
    47da:	80 35       	cpi	r24, 0x50	; 80
    47dc:	91 05       	cpc	r25, r1
    47de:	b1 f7       	brne	.-20     	; 0x47cc <TWI_readMasterDataByte+0x1e>

		// Read Data from data register
		*returnedData = TWDR;
    47e0:	e3 e2       	ldi	r30, 0x23	; 35
    47e2:	f0 e0       	ldi	r31, 0x00	; 0
    47e4:	80 81       	ld	r24, Z
    47e6:	e9 81       	ldd	r30, Y+1	; 0x01
    47e8:	fa 81       	ldd	r31, Y+2	; 0x02
    47ea:	80 83       	st	Z, r24
	}
}
    47ec:	0f 90       	pop	r0
    47ee:	0f 90       	pop	r0
    47f0:	cf 91       	pop	r28
    47f2:	df 91       	pop	r29
    47f4:	08 95       	ret

000047f6 <SPI_MasterInit>:
 */

#include "SPI.h"

void SPI_MasterInit()
{
    47f6:	df 93       	push	r29
    47f8:	cf 93       	push	r28
    47fa:	cd b7       	in	r28, 0x3d	; 61
    47fc:	de b7       	in	r29, 0x3e	; 62

	// SS should be output
	Dio_configChanel(DIO_PORTB, DIO_PIN4, DIO_OUTPUT);
    47fe:	81 e0       	ldi	r24, 0x01	; 1
    4800:	64 e0       	ldi	r22, 0x04	; 4
    4802:	41 e0       	ldi	r20, 0x01	; 1
    4804:	0e 94 be 25 	call	0x4b7c	; 0x4b7c <Dio_configChanel>
	// SS set to high (No Slave Selected)
	Dio_writeChanel(DIO_PORTB, DIO_PIN4, DIO_HIGH);
    4808:	81 e0       	ldi	r24, 0x01	; 1
    480a:	64 e0       	ldi	r22, 0x04	; 4
    480c:	41 e0       	ldi	r20, 0x01	; 1
    480e:	0e 94 a1 26 	call	0x4d42	; 0x4d42 <Dio_writeChanel>

	// MOSI should be output
	Dio_configChanel(DIO_PORTB, DIO_PIN5, DIO_OUTPUT);
    4812:	81 e0       	ldi	r24, 0x01	; 1
    4814:	65 e0       	ldi	r22, 0x05	; 5
    4816:	41 e0       	ldi	r20, 0x01	; 1
    4818:	0e 94 be 25 	call	0x4b7c	; 0x4b7c <Dio_configChanel>
	// MISO should be input
	// SCK should be output
	Dio_configChanel(DIO_PORTB, DIO_PIN7, DIO_OUTPUT);
    481c:	81 e0       	ldi	r24, 0x01	; 1
    481e:	67 e0       	ldi	r22, 0x07	; 7
    4820:	41 e0       	ldi	r20, 0x01	; 1
    4822:	0e 94 be 25 	call	0x4b7c	; 0x4b7c <Dio_configChanel>

	// Enable SPI
	SPI_SPCR_REG |= 1 << 6;
    4826:	ad e2       	ldi	r26, 0x2D	; 45
    4828:	b0 e0       	ldi	r27, 0x00	; 0
    482a:	ed e2       	ldi	r30, 0x2D	; 45
    482c:	f0 e0       	ldi	r31, 0x00	; 0
    482e:	80 81       	ld	r24, Z
    4830:	80 64       	ori	r24, 0x40	; 64
    4832:	8c 93       	st	X, r24

	// Master Mode
	SPI_SPCR_REG |= 1 << 4;
    4834:	ad e2       	ldi	r26, 0x2D	; 45
    4836:	b0 e0       	ldi	r27, 0x00	; 0
    4838:	ed e2       	ldi	r30, 0x2D	; 45
    483a:	f0 e0       	ldi	r31, 0x00	; 0
    483c:	80 81       	ld	r24, Z
    483e:	80 61       	ori	r24, 0x10	; 16
    4840:	8c 93       	st	X, r24
	// MSB is transmitted first
	// Clock rising by default
	// Clock frequency is by default F_CPU / 4 -> 4 MHZ

	// Set clock as 1 MHZ
	SPI_SPCR_REG |= 1;
    4842:	ad e2       	ldi	r26, 0x2D	; 45
    4844:	b0 e0       	ldi	r27, 0x00	; 0
    4846:	ed e2       	ldi	r30, 0x2D	; 45
    4848:	f0 e0       	ldi	r31, 0x00	; 0
    484a:	80 81       	ld	r24, Z
    484c:	81 60       	ori	r24, 0x01	; 1
    484e:	8c 93       	st	X, r24

}
    4850:	cf 91       	pop	r28
    4852:	df 91       	pop	r29
    4854:	08 95       	ret

00004856 <SPI_SlaveInit>:

void SPI_SlaveInit()
{
    4856:	df 93       	push	r29
    4858:	cf 93       	push	r28
    485a:	cd b7       	in	r28, 0x3d	; 61
    485c:	de b7       	in	r29, 0x3e	; 62

//	// SS should be output
//	Dio_configChanel(DIO_PORTB, DIO_PIN4, DIO_INPUT);
	// MISO should be output
	Dio_configChanel(DIO_PORTB, DIO_PIN6, DIO_OUTPUT);
    485e:	81 e0       	ldi	r24, 0x01	; 1
    4860:	66 e0       	ldi	r22, 0x06	; 6
    4862:	41 e0       	ldi	r20, 0x01	; 1
    4864:	0e 94 be 25 	call	0x4b7c	; 0x4b7c <Dio_configChanel>

	// Enable SPI
	SPI_SPCR_REG |= 1 << 6;
    4868:	ad e2       	ldi	r26, 0x2D	; 45
    486a:	b0 e0       	ldi	r27, 0x00	; 0
    486c:	ed e2       	ldi	r30, 0x2D	; 45
    486e:	f0 e0       	ldi	r31, 0x00	; 0
    4870:	80 81       	ld	r24, Z
    4872:	80 64       	ori	r24, 0x40	; 64
    4874:	8c 93       	st	X, r24

	// MSB is transmitted first
	// Clock rising by default
	// Clock frequency is by default F_CPU / 4

}
    4876:	cf 91       	pop	r28
    4878:	df 91       	pop	r29
    487a:	08 95       	ret

0000487c <SPI_MasterTranser>:

u8 SPI_MasterTranser(u8 data)
{
    487c:	df 93       	push	r29
    487e:	cf 93       	push	r28
    4880:	0f 92       	push	r0
    4882:	cd b7       	in	r28, 0x3d	; 61
    4884:	de b7       	in	r29, 0x3e	; 62
    4886:	89 83       	std	Y+1, r24	; 0x01

	SPI_SPDR_REG = data;
    4888:	ef e2       	ldi	r30, 0x2F	; 47
    488a:	f0 e0       	ldi	r31, 0x00	; 0
    488c:	89 81       	ldd	r24, Y+1	; 0x01
    488e:	80 83       	st	Z, r24

	// Wait for the flag
	while ( (SPI_SPSR_REG >> 7) & 1 == 0);

	return SPI_SPDR_REG;
    4890:	ef e2       	ldi	r30, 0x2F	; 47
    4892:	f0 e0       	ldi	r31, 0x00	; 0
    4894:	80 81       	ld	r24, Z

}
    4896:	0f 90       	pop	r0
    4898:	cf 91       	pop	r28
    489a:	df 91       	pop	r29
    489c:	08 95       	ret

0000489e <SPI_MasterSend>:

void SPI_MasterSend(u8 data)
{
    489e:	df 93       	push	r29
    48a0:	cf 93       	push	r28
    48a2:	0f 92       	push	r0
    48a4:	cd b7       	in	r28, 0x3d	; 61
    48a6:	de b7       	in	r29, 0x3e	; 62
    48a8:	89 83       	std	Y+1, r24	; 0x01

	SPI_MasterTranser(data);
    48aa:	89 81       	ldd	r24, Y+1	; 0x01
    48ac:	0e 94 3e 24 	call	0x487c	; 0x487c <SPI_MasterTranser>

}
    48b0:	0f 90       	pop	r0
    48b2:	cf 91       	pop	r28
    48b4:	df 91       	pop	r29
    48b6:	08 95       	ret

000048b8 <SPI_MasterReceive>:

u8 SPI_MasterReceive()
{
    48b8:	df 93       	push	r29
    48ba:	cf 93       	push	r28
    48bc:	cd b7       	in	r28, 0x3d	; 61
    48be:	de b7       	in	r29, 0x3e	; 62

	return SPI_MasterTranser(0);
    48c0:	80 e0       	ldi	r24, 0x00	; 0
    48c2:	0e 94 3e 24 	call	0x487c	; 0x487c <SPI_MasterTranser>


}
    48c6:	cf 91       	pop	r28
    48c8:	df 91       	pop	r29
    48ca:	08 95       	ret

000048cc <SPI_SlaveSend>:

void SPI_SlaveSend(u8 data)
{
    48cc:	df 93       	push	r29
    48ce:	cf 93       	push	r28
    48d0:	0f 92       	push	r0
    48d2:	cd b7       	in	r28, 0x3d	; 61
    48d4:	de b7       	in	r29, 0x3e	; 62
    48d6:	89 83       	std	Y+1, r24	; 0x01

	SPI_SPDR_REG = data;
    48d8:	ef e2       	ldi	r30, 0x2F	; 47
    48da:	f0 e0       	ldi	r31, 0x00	; 0
    48dc:	89 81       	ldd	r24, Y+1	; 0x01
    48de:	80 83       	st	Z, r24

}
    48e0:	0f 90       	pop	r0
    48e2:	cf 91       	pop	r28
    48e4:	df 91       	pop	r29
    48e6:	08 95       	ret

000048e8 <SPI_SlaveReceive>:

u8 SPI_SlaveReceive()
{
    48e8:	df 93       	push	r29
    48ea:	cf 93       	push	r28
    48ec:	cd b7       	in	r28, 0x3d	; 61
    48ee:	de b7       	in	r29, 0x3e	; 62

	return SPI_MasterTranser(0);
    48f0:	80 e0       	ldi	r24, 0x00	; 0
    48f2:	0e 94 3e 24 	call	0x487c	; 0x487c <SPI_MasterTranser>

}
    48f6:	cf 91       	pop	r28
    48f8:	df 91       	pop	r29
    48fa:	08 95       	ret

000048fc <IEEPROM_Init>:
#define EEWE	1
#define EERE	0
#define SPMEN	0

void IEEPROM_Init()
{
    48fc:	df 93       	push	r29
    48fe:	cf 93       	push	r28
    4900:	cd b7       	in	r28, 0x3d	; 61
    4902:	de b7       	in	r29, 0x3e	; 62

	GIE_DisableGlobalInterrupt();
    4904:	0e 94 3b 25 	call	0x4a76	; 0x4a76 <GIE_DisableGlobalInterrupt>
	EECR = 0;
    4908:	ec e3       	ldi	r30, 0x3C	; 60
    490a:	f0 e0       	ldi	r31, 0x00	; 0
    490c:	10 82       	st	Z, r1

}
    490e:	cf 91       	pop	r28
    4910:	df 91       	pop	r29
    4912:	08 95       	ret

00004914 <IEEPROM_Write>:

void IEEPROM_Write(u16 uiAddress, u16 ucData)
{
    4914:	df 93       	push	r29
    4916:	cf 93       	push	r28
    4918:	00 d0       	rcall	.+0      	; 0x491a <IEEPROM_Write+0x6>
    491a:	00 d0       	rcall	.+0      	; 0x491c <IEEPROM_Write+0x8>
    491c:	cd b7       	in	r28, 0x3d	; 61
    491e:	de b7       	in	r29, 0x3e	; 62
    4920:	9a 83       	std	Y+2, r25	; 0x02
    4922:	89 83       	std	Y+1, r24	; 0x01
    4924:	7c 83       	std	Y+4, r23	; 0x04
    4926:	6b 83       	std	Y+3, r22	; 0x03

	eeprom_write_byte(uiAddress, ucData);
    4928:	89 81       	ldd	r24, Y+1	; 0x01
    492a:	9a 81       	ldd	r25, Y+2	; 0x02
    492c:	2b 81       	ldd	r18, Y+3	; 0x03
    492e:	62 2f       	mov	r22, r18
    4930:	0e 94 65 2d 	call	0x5aca	; 0x5aca <__eewr_byte_m32>

}
    4934:	0f 90       	pop	r0
    4936:	0f 90       	pop	r0
    4938:	0f 90       	pop	r0
    493a:	0f 90       	pop	r0
    493c:	cf 91       	pop	r28
    493e:	df 91       	pop	r29
    4940:	08 95       	ret

00004942 <IEEPROM_Read>:

u8 IEEPROM_Read(u16 uiAddress)
{
    4942:	df 93       	push	r29
    4944:	cf 93       	push	r28
    4946:	00 d0       	rcall	.+0      	; 0x4948 <IEEPROM_Read+0x6>
    4948:	cd b7       	in	r28, 0x3d	; 61
    494a:	de b7       	in	r29, 0x3e	; 62
    494c:	9a 83       	std	Y+2, r25	; 0x02
    494e:	89 83       	std	Y+1, r24	; 0x01

	return eeprom_read_byte(uiAddress);
    4950:	89 81       	ldd	r24, Y+1	; 0x01
    4952:	9a 81       	ldd	r25, Y+2	; 0x02
    4954:	0e 94 5d 2d 	call	0x5aba	; 0x5aba <__eerd_byte_m32>

}
    4958:	0f 90       	pop	r0
    495a:	0f 90       	pop	r0
    495c:	cf 91       	pop	r28
    495e:	df 91       	pop	r29
    4960:	08 95       	ret

00004962 <IEEPROM_WriteString>:

void IEEPROM_WriteString(u16 address, u8* string)
{
    4962:	df 93       	push	r29
    4964:	cf 93       	push	r28
    4966:	00 d0       	rcall	.+0      	; 0x4968 <IEEPROM_WriteString+0x6>
    4968:	00 d0       	rcall	.+0      	; 0x496a <IEEPROM_WriteString+0x8>
    496a:	00 d0       	rcall	.+0      	; 0x496c <IEEPROM_WriteString+0xa>
    496c:	cd b7       	in	r28, 0x3d	; 61
    496e:	de b7       	in	r29, 0x3e	; 62
    4970:	9c 83       	std	Y+4, r25	; 0x04
    4972:	8b 83       	std	Y+3, r24	; 0x03
    4974:	7e 83       	std	Y+6, r23	; 0x06
    4976:	6d 83       	std	Y+5, r22	; 0x05

	for (u8* ptr = string; *ptr != '\0'; ptr++)
    4978:	8d 81       	ldd	r24, Y+5	; 0x05
    497a:	9e 81       	ldd	r25, Y+6	; 0x06
    497c:	9a 83       	std	Y+2, r25	; 0x02
    497e:	89 83       	std	Y+1, r24	; 0x01
    4980:	12 c0       	rjmp	.+36     	; 0x49a6 <IEEPROM_WriteString+0x44>
	{

		eeprom_write_byte(address, *ptr);
    4982:	8b 81       	ldd	r24, Y+3	; 0x03
    4984:	9c 81       	ldd	r25, Y+4	; 0x04
    4986:	e9 81       	ldd	r30, Y+1	; 0x01
    4988:	fa 81       	ldd	r31, Y+2	; 0x02
    498a:	20 81       	ld	r18, Z
    498c:	62 2f       	mov	r22, r18
    498e:	0e 94 65 2d 	call	0x5aca	; 0x5aca <__eewr_byte_m32>
		address++;
    4992:	8b 81       	ldd	r24, Y+3	; 0x03
    4994:	9c 81       	ldd	r25, Y+4	; 0x04
    4996:	01 96       	adiw	r24, 0x01	; 1
    4998:	9c 83       	std	Y+4, r25	; 0x04
    499a:	8b 83       	std	Y+3, r24	; 0x03
}

void IEEPROM_WriteString(u16 address, u8* string)
{

	for (u8* ptr = string; *ptr != '\0'; ptr++)
    499c:	89 81       	ldd	r24, Y+1	; 0x01
    499e:	9a 81       	ldd	r25, Y+2	; 0x02
    49a0:	01 96       	adiw	r24, 0x01	; 1
    49a2:	9a 83       	std	Y+2, r25	; 0x02
    49a4:	89 83       	std	Y+1, r24	; 0x01
    49a6:	e9 81       	ldd	r30, Y+1	; 0x01
    49a8:	fa 81       	ldd	r31, Y+2	; 0x02
    49aa:	80 81       	ld	r24, Z
    49ac:	88 23       	and	r24, r24
    49ae:	49 f7       	brne	.-46     	; 0x4982 <IEEPROM_WriteString+0x20>

		eeprom_write_byte(address, *ptr);
		address++;

	}
	eeprom_write_byte(address, '\0');
    49b0:	8b 81       	ldd	r24, Y+3	; 0x03
    49b2:	9c 81       	ldd	r25, Y+4	; 0x04
    49b4:	60 e0       	ldi	r22, 0x00	; 0
    49b6:	0e 94 65 2d 	call	0x5aca	; 0x5aca <__eewr_byte_m32>

}
    49ba:	26 96       	adiw	r28, 0x06	; 6
    49bc:	0f b6       	in	r0, 0x3f	; 63
    49be:	f8 94       	cli
    49c0:	de bf       	out	0x3e, r29	; 62
    49c2:	0f be       	out	0x3f, r0	; 63
    49c4:	cd bf       	out	0x3d, r28	; 61
    49c6:	cf 91       	pop	r28
    49c8:	df 91       	pop	r29
    49ca:	08 95       	ret

000049cc <IEEPROM_ReadString>:

void IEEPROM_ReadString(u16 address, u8* string, u8 size)
{
    49cc:	0f 93       	push	r16
    49ce:	1f 93       	push	r17
    49d0:	df 93       	push	r29
    49d2:	cf 93       	push	r28
    49d4:	00 d0       	rcall	.+0      	; 0x49d6 <IEEPROM_ReadString+0xa>
    49d6:	00 d0       	rcall	.+0      	; 0x49d8 <IEEPROM_ReadString+0xc>
    49d8:	00 d0       	rcall	.+0      	; 0x49da <IEEPROM_ReadString+0xe>
    49da:	cd b7       	in	r28, 0x3d	; 61
    49dc:	de b7       	in	r29, 0x3e	; 62
    49de:	9b 83       	std	Y+3, r25	; 0x03
    49e0:	8a 83       	std	Y+2, r24	; 0x02
    49e2:	7d 83       	std	Y+5, r23	; 0x05
    49e4:	6c 83       	std	Y+4, r22	; 0x04
    49e6:	4e 83       	std	Y+6, r20	; 0x06

	for (u8 i = 0; i < size - 1; i++)
    49e8:	19 82       	std	Y+1, r1	; 0x01
    49ea:	16 c0       	rjmp	.+44     	; 0x4a18 <IEEPROM_ReadString+0x4c>
	{

		string[i] = eeprom_read_byte(address);
    49ec:	89 81       	ldd	r24, Y+1	; 0x01
    49ee:	28 2f       	mov	r18, r24
    49f0:	30 e0       	ldi	r19, 0x00	; 0
    49f2:	8c 81       	ldd	r24, Y+4	; 0x04
    49f4:	9d 81       	ldd	r25, Y+5	; 0x05
    49f6:	8c 01       	movw	r16, r24
    49f8:	02 0f       	add	r16, r18
    49fa:	13 1f       	adc	r17, r19
    49fc:	8a 81       	ldd	r24, Y+2	; 0x02
    49fe:	9b 81       	ldd	r25, Y+3	; 0x03
    4a00:	0e 94 5d 2d 	call	0x5aba	; 0x5aba <__eerd_byte_m32>
    4a04:	f8 01       	movw	r30, r16
    4a06:	80 83       	st	Z, r24
		address++;
    4a08:	8a 81       	ldd	r24, Y+2	; 0x02
    4a0a:	9b 81       	ldd	r25, Y+3	; 0x03
    4a0c:	01 96       	adiw	r24, 0x01	; 1
    4a0e:	9b 83       	std	Y+3, r25	; 0x03
    4a10:	8a 83       	std	Y+2, r24	; 0x02
}

void IEEPROM_ReadString(u16 address, u8* string, u8 size)
{

	for (u8 i = 0; i < size - 1; i++)
    4a12:	89 81       	ldd	r24, Y+1	; 0x01
    4a14:	8f 5f       	subi	r24, 0xFF	; 255
    4a16:	89 83       	std	Y+1, r24	; 0x01
    4a18:	89 81       	ldd	r24, Y+1	; 0x01
    4a1a:	28 2f       	mov	r18, r24
    4a1c:	30 e0       	ldi	r19, 0x00	; 0
    4a1e:	8e 81       	ldd	r24, Y+6	; 0x06
    4a20:	88 2f       	mov	r24, r24
    4a22:	90 e0       	ldi	r25, 0x00	; 0
    4a24:	01 97       	sbiw	r24, 0x01	; 1
    4a26:	28 17       	cp	r18, r24
    4a28:	39 07       	cpc	r19, r25
    4a2a:	04 f3       	brlt	.-64     	; 0x49ec <IEEPROM_ReadString+0x20>
		string[i] = eeprom_read_byte(address);
		address++;

	}

	string[size - 1] = '\0';
    4a2c:	8e 81       	ldd	r24, Y+6	; 0x06
    4a2e:	88 2f       	mov	r24, r24
    4a30:	90 e0       	ldi	r25, 0x00	; 0
    4a32:	9c 01       	movw	r18, r24
    4a34:	21 50       	subi	r18, 0x01	; 1
    4a36:	30 40       	sbci	r19, 0x00	; 0
    4a38:	8c 81       	ldd	r24, Y+4	; 0x04
    4a3a:	9d 81       	ldd	r25, Y+5	; 0x05
    4a3c:	fc 01       	movw	r30, r24
    4a3e:	e2 0f       	add	r30, r18
    4a40:	f3 1f       	adc	r31, r19
    4a42:	10 82       	st	Z, r1

}
    4a44:	26 96       	adiw	r28, 0x06	; 6
    4a46:	0f b6       	in	r0, 0x3f	; 63
    4a48:	f8 94       	cli
    4a4a:	de bf       	out	0x3e, r29	; 62
    4a4c:	0f be       	out	0x3f, r0	; 63
    4a4e:	cd bf       	out	0x3d, r28	; 61
    4a50:	cf 91       	pop	r28
    4a52:	df 91       	pop	r29
    4a54:	1f 91       	pop	r17
    4a56:	0f 91       	pop	r16
    4a58:	08 95       	ret

00004a5a <GIE_EnableGlobalInterrupt>:
 */

#include "GIE.h"

void GIE_EnableGlobalInterrupt()
{
    4a5a:	df 93       	push	r29
    4a5c:	cf 93       	push	r28
    4a5e:	cd b7       	in	r28, 0x3d	; 61
    4a60:	de b7       	in	r29, 0x3e	; 62

	SET_BIT(GIE_SREG, GIE_l_bit);
    4a62:	af e5       	ldi	r26, 0x5F	; 95
    4a64:	b0 e0       	ldi	r27, 0x00	; 0
    4a66:	ef e5       	ldi	r30, 0x5F	; 95
    4a68:	f0 e0       	ldi	r31, 0x00	; 0
    4a6a:	80 81       	ld	r24, Z
    4a6c:	80 68       	ori	r24, 0x80	; 128
    4a6e:	8c 93       	st	X, r24

}
    4a70:	cf 91       	pop	r28
    4a72:	df 91       	pop	r29
    4a74:	08 95       	ret

00004a76 <GIE_DisableGlobalInterrupt>:

void GIE_DisableGlobalInterrupt()
{
    4a76:	df 93       	push	r29
    4a78:	cf 93       	push	r28
    4a7a:	cd b7       	in	r28, 0x3d	; 61
    4a7c:	de b7       	in	r29, 0x3e	; 62

	CLEAR_BIT(GIE_SREG, GIE_l_bit);
    4a7e:	af e5       	ldi	r26, 0x5F	; 95
    4a80:	b0 e0       	ldi	r27, 0x00	; 0
    4a82:	ef e5       	ldi	r30, 0x5F	; 95
    4a84:	f0 e0       	ldi	r31, 0x00	; 0
    4a86:	80 81       	ld	r24, Z
    4a88:	8f 77       	andi	r24, 0x7F	; 127
    4a8a:	8c 93       	st	X, r24

}
    4a8c:	cf 91       	pop	r28
    4a8e:	df 91       	pop	r29
    4a90:	08 95       	ret

00004a92 <EXTI_EnableInterrupt>:
 */

#include "EXTI.h"

void EXTI_EnableInterrupt(exti_intId_t intId, exti_senseControl_t senseControl)
{
    4a92:	df 93       	push	r29
    4a94:	cf 93       	push	r28
    4a96:	00 d0       	rcall	.+0      	; 0x4a98 <EXTI_EnableInterrupt+0x6>
    4a98:	00 d0       	rcall	.+0      	; 0x4a9a <EXTI_EnableInterrupt+0x8>
    4a9a:	cd b7       	in	r28, 0x3d	; 61
    4a9c:	de b7       	in	r29, 0x3e	; 62
    4a9e:	89 83       	std	Y+1, r24	; 0x01
    4aa0:	6a 83       	std	Y+2, r22	; 0x02

	// Enable
	SET_BIT(GICR_REG, intId);
    4aa2:	ab e5       	ldi	r26, 0x5B	; 91
    4aa4:	b0 e0       	ldi	r27, 0x00	; 0
    4aa6:	eb e5       	ldi	r30, 0x5B	; 91
    4aa8:	f0 e0       	ldi	r31, 0x00	; 0
    4aaa:	80 81       	ld	r24, Z
    4aac:	48 2f       	mov	r20, r24
    4aae:	89 81       	ldd	r24, Y+1	; 0x01
    4ab0:	28 2f       	mov	r18, r24
    4ab2:	30 e0       	ldi	r19, 0x00	; 0
    4ab4:	81 e0       	ldi	r24, 0x01	; 1
    4ab6:	90 e0       	ldi	r25, 0x00	; 0
    4ab8:	02 c0       	rjmp	.+4      	; 0x4abe <EXTI_EnableInterrupt+0x2c>
    4aba:	88 0f       	add	r24, r24
    4abc:	99 1f       	adc	r25, r25
    4abe:	2a 95       	dec	r18
    4ac0:	e2 f7       	brpl	.-8      	; 0x4aba <EXTI_EnableInterrupt+0x28>
    4ac2:	84 2b       	or	r24, r20
    4ac4:	8c 93       	st	X, r24

	// Set sensor control
	switch (intId) {
    4ac6:	89 81       	ldd	r24, Y+1	; 0x01
    4ac8:	28 2f       	mov	r18, r24
    4aca:	30 e0       	ldi	r19, 0x00	; 0
    4acc:	3c 83       	std	Y+4, r19	; 0x04
    4ace:	2b 83       	std	Y+3, r18	; 0x03
    4ad0:	8b 81       	ldd	r24, Y+3	; 0x03
    4ad2:	9c 81       	ldd	r25, Y+4	; 0x04
    4ad4:	86 30       	cpi	r24, 0x06	; 6
    4ad6:	91 05       	cpc	r25, r1
    4ad8:	59 f0       	breq	.+22     	; 0x4af0 <EXTI_EnableInterrupt+0x5e>
    4ada:	2b 81       	ldd	r18, Y+3	; 0x03
    4adc:	3c 81       	ldd	r19, Y+4	; 0x04
    4ade:	27 30       	cpi	r18, 0x07	; 7
    4ae0:	31 05       	cpc	r19, r1
    4ae2:	79 f0       	breq	.+30     	; 0x4b02 <EXTI_EnableInterrupt+0x70>
    4ae4:	8b 81       	ldd	r24, Y+3	; 0x03
    4ae6:	9c 81       	ldd	r25, Y+4	; 0x04
    4ae8:	85 30       	cpi	r24, 0x05	; 5
    4aea:	91 05       	cpc	r25, r1
    4aec:	d1 f0       	breq	.+52     	; 0x4b22 <EXTI_EnableInterrupt+0x90>
    4aee:	21 c0       	rjmp	.+66     	; 0x4b32 <EXTI_EnableInterrupt+0xa0>
	case EXTI_INT0:
		MCUCR_REG |= senseControl;
    4af0:	a5 e5       	ldi	r26, 0x55	; 85
    4af2:	b0 e0       	ldi	r27, 0x00	; 0
    4af4:	e5 e5       	ldi	r30, 0x55	; 85
    4af6:	f0 e0       	ldi	r31, 0x00	; 0
    4af8:	90 81       	ld	r25, Z
    4afa:	8a 81       	ldd	r24, Y+2	; 0x02
    4afc:	89 2b       	or	r24, r25
    4afe:	8c 93       	st	X, r24
    4b00:	18 c0       	rjmp	.+48     	; 0x4b32 <EXTI_EnableInterrupt+0xa0>
		break;
	case EXTI_INT1:
		MCUCR_REG |= (senseControl << 2);
    4b02:	a5 e5       	ldi	r26, 0x55	; 85
    4b04:	b0 e0       	ldi	r27, 0x00	; 0
    4b06:	e5 e5       	ldi	r30, 0x55	; 85
    4b08:	f0 e0       	ldi	r31, 0x00	; 0
    4b0a:	80 81       	ld	r24, Z
    4b0c:	28 2f       	mov	r18, r24
    4b0e:	8a 81       	ldd	r24, Y+2	; 0x02
    4b10:	88 2f       	mov	r24, r24
    4b12:	90 e0       	ldi	r25, 0x00	; 0
    4b14:	88 0f       	add	r24, r24
    4b16:	99 1f       	adc	r25, r25
    4b18:	88 0f       	add	r24, r24
    4b1a:	99 1f       	adc	r25, r25
    4b1c:	82 2b       	or	r24, r18
    4b1e:	8c 93       	st	X, r24
    4b20:	08 c0       	rjmp	.+16     	; 0x4b32 <EXTI_EnableInterrupt+0xa0>
		break;
	case EXTI_INT2:
		MCUCSR_REG |= senseControl;
    4b22:	a4 e5       	ldi	r26, 0x54	; 84
    4b24:	b0 e0       	ldi	r27, 0x00	; 0
    4b26:	e4 e5       	ldi	r30, 0x54	; 84
    4b28:	f0 e0       	ldi	r31, 0x00	; 0
    4b2a:	90 81       	ld	r25, Z
    4b2c:	8a 81       	ldd	r24, Y+2	; 0x02
    4b2e:	89 2b       	or	r24, r25
    4b30:	8c 93       	st	X, r24
		break;
	}

}
    4b32:	0f 90       	pop	r0
    4b34:	0f 90       	pop	r0
    4b36:	0f 90       	pop	r0
    4b38:	0f 90       	pop	r0
    4b3a:	cf 91       	pop	r28
    4b3c:	df 91       	pop	r29
    4b3e:	08 95       	ret

00004b40 <EXTI_DisableInterrupt>:

void EXTI_DisableInterrupt(exti_intId_t intId)
{
    4b40:	df 93       	push	r29
    4b42:	cf 93       	push	r28
    4b44:	0f 92       	push	r0
    4b46:	cd b7       	in	r28, 0x3d	; 61
    4b48:	de b7       	in	r29, 0x3e	; 62
    4b4a:	89 83       	std	Y+1, r24	; 0x01

	CLEAR_BIT(GICR_REG, intId);
    4b4c:	ab e5       	ldi	r26, 0x5B	; 91
    4b4e:	b0 e0       	ldi	r27, 0x00	; 0
    4b50:	eb e5       	ldi	r30, 0x5B	; 91
    4b52:	f0 e0       	ldi	r31, 0x00	; 0
    4b54:	80 81       	ld	r24, Z
    4b56:	48 2f       	mov	r20, r24
    4b58:	89 81       	ldd	r24, Y+1	; 0x01
    4b5a:	28 2f       	mov	r18, r24
    4b5c:	30 e0       	ldi	r19, 0x00	; 0
    4b5e:	81 e0       	ldi	r24, 0x01	; 1
    4b60:	90 e0       	ldi	r25, 0x00	; 0
    4b62:	02 2e       	mov	r0, r18
    4b64:	02 c0       	rjmp	.+4      	; 0x4b6a <EXTI_DisableInterrupt+0x2a>
    4b66:	88 0f       	add	r24, r24
    4b68:	99 1f       	adc	r25, r25
    4b6a:	0a 94       	dec	r0
    4b6c:	e2 f7       	brpl	.-8      	; 0x4b66 <EXTI_DisableInterrupt+0x26>
    4b6e:	80 95       	com	r24
    4b70:	84 23       	and	r24, r20
    4b72:	8c 93       	st	X, r24

}
    4b74:	0f 90       	pop	r0
    4b76:	cf 91       	pop	r28
    4b78:	df 91       	pop	r29
    4b7a:	08 95       	ret

00004b7c <Dio_configChanel>:
 */
#include "Dio.h"
#include "Bit_Math.h"

void Dio_configChanel(dio_port_t port, dio_pin_t pin, dio_dir_t dir)
{
    4b7c:	df 93       	push	r29
    4b7e:	cf 93       	push	r28
    4b80:	00 d0       	rcall	.+0      	; 0x4b82 <Dio_configChanel+0x6>
    4b82:	00 d0       	rcall	.+0      	; 0x4b84 <Dio_configChanel+0x8>
    4b84:	0f 92       	push	r0
    4b86:	cd b7       	in	r28, 0x3d	; 61
    4b88:	de b7       	in	r29, 0x3e	; 62
    4b8a:	89 83       	std	Y+1, r24	; 0x01
    4b8c:	6a 83       	std	Y+2, r22	; 0x02
    4b8e:	4b 83       	std	Y+3, r20	; 0x03
	switch (port)
    4b90:	89 81       	ldd	r24, Y+1	; 0x01
    4b92:	28 2f       	mov	r18, r24
    4b94:	30 e0       	ldi	r19, 0x00	; 0
    4b96:	3d 83       	std	Y+5, r19	; 0x05
    4b98:	2c 83       	std	Y+4, r18	; 0x04
    4b9a:	8c 81       	ldd	r24, Y+4	; 0x04
    4b9c:	9d 81       	ldd	r25, Y+5	; 0x05
    4b9e:	81 30       	cpi	r24, 0x01	; 1
    4ba0:	91 05       	cpc	r25, r1
    4ba2:	09 f4       	brne	.+2      	; 0x4ba6 <Dio_configChanel+0x2a>
    4ba4:	43 c0       	rjmp	.+134    	; 0x4c2c <Dio_configChanel+0xb0>
    4ba6:	2c 81       	ldd	r18, Y+4	; 0x04
    4ba8:	3d 81       	ldd	r19, Y+5	; 0x05
    4baa:	22 30       	cpi	r18, 0x02	; 2
    4bac:	31 05       	cpc	r19, r1
    4bae:	2c f4       	brge	.+10     	; 0x4bba <Dio_configChanel+0x3e>
    4bb0:	8c 81       	ldd	r24, Y+4	; 0x04
    4bb2:	9d 81       	ldd	r25, Y+5	; 0x05
    4bb4:	00 97       	sbiw	r24, 0x00	; 0
    4bb6:	71 f0       	breq	.+28     	; 0x4bd4 <Dio_configChanel+0x58>
    4bb8:	bc c0       	rjmp	.+376    	; 0x4d32 <Dio_configChanel+0x1b6>
    4bba:	2c 81       	ldd	r18, Y+4	; 0x04
    4bbc:	3d 81       	ldd	r19, Y+5	; 0x05
    4bbe:	22 30       	cpi	r18, 0x02	; 2
    4bc0:	31 05       	cpc	r19, r1
    4bc2:	09 f4       	brne	.+2      	; 0x4bc6 <Dio_configChanel+0x4a>
    4bc4:	5f c0       	rjmp	.+190    	; 0x4c84 <Dio_configChanel+0x108>
    4bc6:	8c 81       	ldd	r24, Y+4	; 0x04
    4bc8:	9d 81       	ldd	r25, Y+5	; 0x05
    4bca:	83 30       	cpi	r24, 0x03	; 3
    4bcc:	91 05       	cpc	r25, r1
    4bce:	09 f4       	brne	.+2      	; 0x4bd2 <Dio_configChanel+0x56>
    4bd0:	85 c0       	rjmp	.+266    	; 0x4cdc <Dio_configChanel+0x160>
    4bd2:	af c0       	rjmp	.+350    	; 0x4d32 <Dio_configChanel+0x1b6>
	{
	case DIO_PORTA:
		{
			if (dir == DIO_INPUT)
    4bd4:	8b 81       	ldd	r24, Y+3	; 0x03
    4bd6:	88 23       	and	r24, r24
    4bd8:	a9 f4       	brne	.+42     	; 0x4c04 <Dio_configChanel+0x88>
			{
				CLEAR_BIT(DIO_DDRA_REG,pin);
    4bda:	aa e3       	ldi	r26, 0x3A	; 58
    4bdc:	b0 e0       	ldi	r27, 0x00	; 0
    4bde:	ea e3       	ldi	r30, 0x3A	; 58
    4be0:	f0 e0       	ldi	r31, 0x00	; 0
    4be2:	80 81       	ld	r24, Z
    4be4:	48 2f       	mov	r20, r24
    4be6:	8a 81       	ldd	r24, Y+2	; 0x02
    4be8:	28 2f       	mov	r18, r24
    4bea:	30 e0       	ldi	r19, 0x00	; 0
    4bec:	81 e0       	ldi	r24, 0x01	; 1
    4bee:	90 e0       	ldi	r25, 0x00	; 0
    4bf0:	02 2e       	mov	r0, r18
    4bf2:	02 c0       	rjmp	.+4      	; 0x4bf8 <Dio_configChanel+0x7c>
    4bf4:	88 0f       	add	r24, r24
    4bf6:	99 1f       	adc	r25, r25
    4bf8:	0a 94       	dec	r0
    4bfa:	e2 f7       	brpl	.-8      	; 0x4bf4 <Dio_configChanel+0x78>
    4bfc:	80 95       	com	r24
    4bfe:	84 23       	and	r24, r20
    4c00:	8c 93       	st	X, r24
    4c02:	97 c0       	rjmp	.+302    	; 0x4d32 <Dio_configChanel+0x1b6>
			}
			else
			{
				SET_BIT(DIO_DDRA_REG,pin);
    4c04:	aa e3       	ldi	r26, 0x3A	; 58
    4c06:	b0 e0       	ldi	r27, 0x00	; 0
    4c08:	ea e3       	ldi	r30, 0x3A	; 58
    4c0a:	f0 e0       	ldi	r31, 0x00	; 0
    4c0c:	80 81       	ld	r24, Z
    4c0e:	48 2f       	mov	r20, r24
    4c10:	8a 81       	ldd	r24, Y+2	; 0x02
    4c12:	28 2f       	mov	r18, r24
    4c14:	30 e0       	ldi	r19, 0x00	; 0
    4c16:	81 e0       	ldi	r24, 0x01	; 1
    4c18:	90 e0       	ldi	r25, 0x00	; 0
    4c1a:	02 2e       	mov	r0, r18
    4c1c:	02 c0       	rjmp	.+4      	; 0x4c22 <Dio_configChanel+0xa6>
    4c1e:	88 0f       	add	r24, r24
    4c20:	99 1f       	adc	r25, r25
    4c22:	0a 94       	dec	r0
    4c24:	e2 f7       	brpl	.-8      	; 0x4c1e <Dio_configChanel+0xa2>
    4c26:	84 2b       	or	r24, r20
    4c28:	8c 93       	st	X, r24
    4c2a:	83 c0       	rjmp	.+262    	; 0x4d32 <Dio_configChanel+0x1b6>
			break;
		}

	case DIO_PORTB:
		{
			if (dir == DIO_INPUT)
    4c2c:	8b 81       	ldd	r24, Y+3	; 0x03
    4c2e:	88 23       	and	r24, r24
    4c30:	a9 f4       	brne	.+42     	; 0x4c5c <Dio_configChanel+0xe0>
			{
				CLEAR_BIT(DIO_DDRB_REG,pin);
    4c32:	a7 e3       	ldi	r26, 0x37	; 55
    4c34:	b0 e0       	ldi	r27, 0x00	; 0
    4c36:	e7 e3       	ldi	r30, 0x37	; 55
    4c38:	f0 e0       	ldi	r31, 0x00	; 0
    4c3a:	80 81       	ld	r24, Z
    4c3c:	48 2f       	mov	r20, r24
    4c3e:	8a 81       	ldd	r24, Y+2	; 0x02
    4c40:	28 2f       	mov	r18, r24
    4c42:	30 e0       	ldi	r19, 0x00	; 0
    4c44:	81 e0       	ldi	r24, 0x01	; 1
    4c46:	90 e0       	ldi	r25, 0x00	; 0
    4c48:	02 2e       	mov	r0, r18
    4c4a:	02 c0       	rjmp	.+4      	; 0x4c50 <Dio_configChanel+0xd4>
    4c4c:	88 0f       	add	r24, r24
    4c4e:	99 1f       	adc	r25, r25
    4c50:	0a 94       	dec	r0
    4c52:	e2 f7       	brpl	.-8      	; 0x4c4c <Dio_configChanel+0xd0>
    4c54:	80 95       	com	r24
    4c56:	84 23       	and	r24, r20
    4c58:	8c 93       	st	X, r24
    4c5a:	6b c0       	rjmp	.+214    	; 0x4d32 <Dio_configChanel+0x1b6>
			}
			else
			{
				SET_BIT(DIO_DDRB_REG,pin);
    4c5c:	a7 e3       	ldi	r26, 0x37	; 55
    4c5e:	b0 e0       	ldi	r27, 0x00	; 0
    4c60:	e7 e3       	ldi	r30, 0x37	; 55
    4c62:	f0 e0       	ldi	r31, 0x00	; 0
    4c64:	80 81       	ld	r24, Z
    4c66:	48 2f       	mov	r20, r24
    4c68:	8a 81       	ldd	r24, Y+2	; 0x02
    4c6a:	28 2f       	mov	r18, r24
    4c6c:	30 e0       	ldi	r19, 0x00	; 0
    4c6e:	81 e0       	ldi	r24, 0x01	; 1
    4c70:	90 e0       	ldi	r25, 0x00	; 0
    4c72:	02 2e       	mov	r0, r18
    4c74:	02 c0       	rjmp	.+4      	; 0x4c7a <Dio_configChanel+0xfe>
    4c76:	88 0f       	add	r24, r24
    4c78:	99 1f       	adc	r25, r25
    4c7a:	0a 94       	dec	r0
    4c7c:	e2 f7       	brpl	.-8      	; 0x4c76 <Dio_configChanel+0xfa>
    4c7e:	84 2b       	or	r24, r20
    4c80:	8c 93       	st	X, r24
    4c82:	57 c0       	rjmp	.+174    	; 0x4d32 <Dio_configChanel+0x1b6>
			break;
		}

	case DIO_PORTC:
		{
			if (dir == DIO_INPUT)
    4c84:	8b 81       	ldd	r24, Y+3	; 0x03
    4c86:	88 23       	and	r24, r24
    4c88:	a9 f4       	brne	.+42     	; 0x4cb4 <Dio_configChanel+0x138>
			{
				CLEAR_BIT(DIO_DDRC_REG,pin);
    4c8a:	a4 e3       	ldi	r26, 0x34	; 52
    4c8c:	b0 e0       	ldi	r27, 0x00	; 0
    4c8e:	e4 e3       	ldi	r30, 0x34	; 52
    4c90:	f0 e0       	ldi	r31, 0x00	; 0
    4c92:	80 81       	ld	r24, Z
    4c94:	48 2f       	mov	r20, r24
    4c96:	8a 81       	ldd	r24, Y+2	; 0x02
    4c98:	28 2f       	mov	r18, r24
    4c9a:	30 e0       	ldi	r19, 0x00	; 0
    4c9c:	81 e0       	ldi	r24, 0x01	; 1
    4c9e:	90 e0       	ldi	r25, 0x00	; 0
    4ca0:	02 2e       	mov	r0, r18
    4ca2:	02 c0       	rjmp	.+4      	; 0x4ca8 <Dio_configChanel+0x12c>
    4ca4:	88 0f       	add	r24, r24
    4ca6:	99 1f       	adc	r25, r25
    4ca8:	0a 94       	dec	r0
    4caa:	e2 f7       	brpl	.-8      	; 0x4ca4 <Dio_configChanel+0x128>
    4cac:	80 95       	com	r24
    4cae:	84 23       	and	r24, r20
    4cb0:	8c 93       	st	X, r24
    4cb2:	3f c0       	rjmp	.+126    	; 0x4d32 <Dio_configChanel+0x1b6>
			}
			else
			{
				SET_BIT(DIO_DDRC_REG,pin);
    4cb4:	a4 e3       	ldi	r26, 0x34	; 52
    4cb6:	b0 e0       	ldi	r27, 0x00	; 0
    4cb8:	e4 e3       	ldi	r30, 0x34	; 52
    4cba:	f0 e0       	ldi	r31, 0x00	; 0
    4cbc:	80 81       	ld	r24, Z
    4cbe:	48 2f       	mov	r20, r24
    4cc0:	8a 81       	ldd	r24, Y+2	; 0x02
    4cc2:	28 2f       	mov	r18, r24
    4cc4:	30 e0       	ldi	r19, 0x00	; 0
    4cc6:	81 e0       	ldi	r24, 0x01	; 1
    4cc8:	90 e0       	ldi	r25, 0x00	; 0
    4cca:	02 2e       	mov	r0, r18
    4ccc:	02 c0       	rjmp	.+4      	; 0x4cd2 <Dio_configChanel+0x156>
    4cce:	88 0f       	add	r24, r24
    4cd0:	99 1f       	adc	r25, r25
    4cd2:	0a 94       	dec	r0
    4cd4:	e2 f7       	brpl	.-8      	; 0x4cce <Dio_configChanel+0x152>
    4cd6:	84 2b       	or	r24, r20
    4cd8:	8c 93       	st	X, r24
    4cda:	2b c0       	rjmp	.+86     	; 0x4d32 <Dio_configChanel+0x1b6>
			break;
		}

	case DIO_PORTD:
		{
			if (dir == DIO_INPUT)
    4cdc:	8b 81       	ldd	r24, Y+3	; 0x03
    4cde:	88 23       	and	r24, r24
    4ce0:	a9 f4       	brne	.+42     	; 0x4d0c <Dio_configChanel+0x190>
			{
				CLEAR_BIT(DIO_DDRD_REG,pin);
    4ce2:	a1 e3       	ldi	r26, 0x31	; 49
    4ce4:	b0 e0       	ldi	r27, 0x00	; 0
    4ce6:	e1 e3       	ldi	r30, 0x31	; 49
    4ce8:	f0 e0       	ldi	r31, 0x00	; 0
    4cea:	80 81       	ld	r24, Z
    4cec:	48 2f       	mov	r20, r24
    4cee:	8a 81       	ldd	r24, Y+2	; 0x02
    4cf0:	28 2f       	mov	r18, r24
    4cf2:	30 e0       	ldi	r19, 0x00	; 0
    4cf4:	81 e0       	ldi	r24, 0x01	; 1
    4cf6:	90 e0       	ldi	r25, 0x00	; 0
    4cf8:	02 2e       	mov	r0, r18
    4cfa:	02 c0       	rjmp	.+4      	; 0x4d00 <Dio_configChanel+0x184>
    4cfc:	88 0f       	add	r24, r24
    4cfe:	99 1f       	adc	r25, r25
    4d00:	0a 94       	dec	r0
    4d02:	e2 f7       	brpl	.-8      	; 0x4cfc <Dio_configChanel+0x180>
    4d04:	80 95       	com	r24
    4d06:	84 23       	and	r24, r20
    4d08:	8c 93       	st	X, r24
    4d0a:	13 c0       	rjmp	.+38     	; 0x4d32 <Dio_configChanel+0x1b6>
			}
			else
			{
				SET_BIT(DIO_DDRD_REG,pin);
    4d0c:	a1 e3       	ldi	r26, 0x31	; 49
    4d0e:	b0 e0       	ldi	r27, 0x00	; 0
    4d10:	e1 e3       	ldi	r30, 0x31	; 49
    4d12:	f0 e0       	ldi	r31, 0x00	; 0
    4d14:	80 81       	ld	r24, Z
    4d16:	48 2f       	mov	r20, r24
    4d18:	8a 81       	ldd	r24, Y+2	; 0x02
    4d1a:	28 2f       	mov	r18, r24
    4d1c:	30 e0       	ldi	r19, 0x00	; 0
    4d1e:	81 e0       	ldi	r24, 0x01	; 1
    4d20:	90 e0       	ldi	r25, 0x00	; 0
    4d22:	02 2e       	mov	r0, r18
    4d24:	02 c0       	rjmp	.+4      	; 0x4d2a <Dio_configChanel+0x1ae>
    4d26:	88 0f       	add	r24, r24
    4d28:	99 1f       	adc	r25, r25
    4d2a:	0a 94       	dec	r0
    4d2c:	e2 f7       	brpl	.-8      	; 0x4d26 <Dio_configChanel+0x1aa>
    4d2e:	84 2b       	or	r24, r20
    4d30:	8c 93       	st	X, r24
			}
			break;
		}
	}
}
    4d32:	0f 90       	pop	r0
    4d34:	0f 90       	pop	r0
    4d36:	0f 90       	pop	r0
    4d38:	0f 90       	pop	r0
    4d3a:	0f 90       	pop	r0
    4d3c:	cf 91       	pop	r28
    4d3e:	df 91       	pop	r29
    4d40:	08 95       	ret

00004d42 <Dio_writeChanel>:

void Dio_writeChanel(dio_port_t port, dio_pin_t pin, dio_level_t level)
{
    4d42:	df 93       	push	r29
    4d44:	cf 93       	push	r28
    4d46:	00 d0       	rcall	.+0      	; 0x4d48 <Dio_writeChanel+0x6>
    4d48:	00 d0       	rcall	.+0      	; 0x4d4a <Dio_writeChanel+0x8>
    4d4a:	0f 92       	push	r0
    4d4c:	cd b7       	in	r28, 0x3d	; 61
    4d4e:	de b7       	in	r29, 0x3e	; 62
    4d50:	89 83       	std	Y+1, r24	; 0x01
    4d52:	6a 83       	std	Y+2, r22	; 0x02
    4d54:	4b 83       	std	Y+3, r20	; 0x03
	switch (port)
    4d56:	89 81       	ldd	r24, Y+1	; 0x01
    4d58:	28 2f       	mov	r18, r24
    4d5a:	30 e0       	ldi	r19, 0x00	; 0
    4d5c:	3d 83       	std	Y+5, r19	; 0x05
    4d5e:	2c 83       	std	Y+4, r18	; 0x04
    4d60:	8c 81       	ldd	r24, Y+4	; 0x04
    4d62:	9d 81       	ldd	r25, Y+5	; 0x05
    4d64:	81 30       	cpi	r24, 0x01	; 1
    4d66:	91 05       	cpc	r25, r1
    4d68:	09 f4       	brne	.+2      	; 0x4d6c <Dio_writeChanel+0x2a>
    4d6a:	43 c0       	rjmp	.+134    	; 0x4df2 <Dio_writeChanel+0xb0>
    4d6c:	2c 81       	ldd	r18, Y+4	; 0x04
    4d6e:	3d 81       	ldd	r19, Y+5	; 0x05
    4d70:	22 30       	cpi	r18, 0x02	; 2
    4d72:	31 05       	cpc	r19, r1
    4d74:	2c f4       	brge	.+10     	; 0x4d80 <Dio_writeChanel+0x3e>
    4d76:	8c 81       	ldd	r24, Y+4	; 0x04
    4d78:	9d 81       	ldd	r25, Y+5	; 0x05
    4d7a:	00 97       	sbiw	r24, 0x00	; 0
    4d7c:	71 f0       	breq	.+28     	; 0x4d9a <Dio_writeChanel+0x58>
    4d7e:	bc c0       	rjmp	.+376    	; 0x4ef8 <Dio_writeChanel+0x1b6>
    4d80:	2c 81       	ldd	r18, Y+4	; 0x04
    4d82:	3d 81       	ldd	r19, Y+5	; 0x05
    4d84:	22 30       	cpi	r18, 0x02	; 2
    4d86:	31 05       	cpc	r19, r1
    4d88:	09 f4       	brne	.+2      	; 0x4d8c <Dio_writeChanel+0x4a>
    4d8a:	5f c0       	rjmp	.+190    	; 0x4e4a <Dio_writeChanel+0x108>
    4d8c:	8c 81       	ldd	r24, Y+4	; 0x04
    4d8e:	9d 81       	ldd	r25, Y+5	; 0x05
    4d90:	83 30       	cpi	r24, 0x03	; 3
    4d92:	91 05       	cpc	r25, r1
    4d94:	09 f4       	brne	.+2      	; 0x4d98 <Dio_writeChanel+0x56>
    4d96:	85 c0       	rjmp	.+266    	; 0x4ea2 <Dio_writeChanel+0x160>
    4d98:	af c0       	rjmp	.+350    	; 0x4ef8 <Dio_writeChanel+0x1b6>
	{
	case DIO_PORTA:
		if (level == DIO_HIGH)
    4d9a:	8b 81       	ldd	r24, Y+3	; 0x03
    4d9c:	81 30       	cpi	r24, 0x01	; 1
    4d9e:	a1 f4       	brne	.+40     	; 0x4dc8 <Dio_writeChanel+0x86>
		{
			SET_BIT(DIO_PORTA_REG,pin);
    4da0:	ab e3       	ldi	r26, 0x3B	; 59
    4da2:	b0 e0       	ldi	r27, 0x00	; 0
    4da4:	eb e3       	ldi	r30, 0x3B	; 59
    4da6:	f0 e0       	ldi	r31, 0x00	; 0
    4da8:	80 81       	ld	r24, Z
    4daa:	48 2f       	mov	r20, r24
    4dac:	8a 81       	ldd	r24, Y+2	; 0x02
    4dae:	28 2f       	mov	r18, r24
    4db0:	30 e0       	ldi	r19, 0x00	; 0
    4db2:	81 e0       	ldi	r24, 0x01	; 1
    4db4:	90 e0       	ldi	r25, 0x00	; 0
    4db6:	02 2e       	mov	r0, r18
    4db8:	02 c0       	rjmp	.+4      	; 0x4dbe <Dio_writeChanel+0x7c>
    4dba:	88 0f       	add	r24, r24
    4dbc:	99 1f       	adc	r25, r25
    4dbe:	0a 94       	dec	r0
    4dc0:	e2 f7       	brpl	.-8      	; 0x4dba <Dio_writeChanel+0x78>
    4dc2:	84 2b       	or	r24, r20
    4dc4:	8c 93       	st	X, r24
    4dc6:	98 c0       	rjmp	.+304    	; 0x4ef8 <Dio_writeChanel+0x1b6>
		}
		else
		{
			CLEAR_BIT(DIO_PORTA_REG,pin);
    4dc8:	ab e3       	ldi	r26, 0x3B	; 59
    4dca:	b0 e0       	ldi	r27, 0x00	; 0
    4dcc:	eb e3       	ldi	r30, 0x3B	; 59
    4dce:	f0 e0       	ldi	r31, 0x00	; 0
    4dd0:	80 81       	ld	r24, Z
    4dd2:	48 2f       	mov	r20, r24
    4dd4:	8a 81       	ldd	r24, Y+2	; 0x02
    4dd6:	28 2f       	mov	r18, r24
    4dd8:	30 e0       	ldi	r19, 0x00	; 0
    4dda:	81 e0       	ldi	r24, 0x01	; 1
    4ddc:	90 e0       	ldi	r25, 0x00	; 0
    4dde:	02 2e       	mov	r0, r18
    4de0:	02 c0       	rjmp	.+4      	; 0x4de6 <Dio_writeChanel+0xa4>
    4de2:	88 0f       	add	r24, r24
    4de4:	99 1f       	adc	r25, r25
    4de6:	0a 94       	dec	r0
    4de8:	e2 f7       	brpl	.-8      	; 0x4de2 <Dio_writeChanel+0xa0>
    4dea:	80 95       	com	r24
    4dec:	84 23       	and	r24, r20
    4dee:	8c 93       	st	X, r24
    4df0:	83 c0       	rjmp	.+262    	; 0x4ef8 <Dio_writeChanel+0x1b6>
		}
		break;

	case DIO_PORTB:
		if (level == DIO_HIGH)
    4df2:	8b 81       	ldd	r24, Y+3	; 0x03
    4df4:	81 30       	cpi	r24, 0x01	; 1
    4df6:	a1 f4       	brne	.+40     	; 0x4e20 <Dio_writeChanel+0xde>
		{
			SET_BIT(DIO_PORTB_REG,pin);
    4df8:	a8 e3       	ldi	r26, 0x38	; 56
    4dfa:	b0 e0       	ldi	r27, 0x00	; 0
    4dfc:	e8 e3       	ldi	r30, 0x38	; 56
    4dfe:	f0 e0       	ldi	r31, 0x00	; 0
    4e00:	80 81       	ld	r24, Z
    4e02:	48 2f       	mov	r20, r24
    4e04:	8a 81       	ldd	r24, Y+2	; 0x02
    4e06:	28 2f       	mov	r18, r24
    4e08:	30 e0       	ldi	r19, 0x00	; 0
    4e0a:	81 e0       	ldi	r24, 0x01	; 1
    4e0c:	90 e0       	ldi	r25, 0x00	; 0
    4e0e:	02 2e       	mov	r0, r18
    4e10:	02 c0       	rjmp	.+4      	; 0x4e16 <Dio_writeChanel+0xd4>
    4e12:	88 0f       	add	r24, r24
    4e14:	99 1f       	adc	r25, r25
    4e16:	0a 94       	dec	r0
    4e18:	e2 f7       	brpl	.-8      	; 0x4e12 <Dio_writeChanel+0xd0>
    4e1a:	84 2b       	or	r24, r20
    4e1c:	8c 93       	st	X, r24
    4e1e:	6c c0       	rjmp	.+216    	; 0x4ef8 <Dio_writeChanel+0x1b6>
		}
		else
		{
			CLEAR_BIT(DIO_PORTB_REG,pin);
    4e20:	a8 e3       	ldi	r26, 0x38	; 56
    4e22:	b0 e0       	ldi	r27, 0x00	; 0
    4e24:	e8 e3       	ldi	r30, 0x38	; 56
    4e26:	f0 e0       	ldi	r31, 0x00	; 0
    4e28:	80 81       	ld	r24, Z
    4e2a:	48 2f       	mov	r20, r24
    4e2c:	8a 81       	ldd	r24, Y+2	; 0x02
    4e2e:	28 2f       	mov	r18, r24
    4e30:	30 e0       	ldi	r19, 0x00	; 0
    4e32:	81 e0       	ldi	r24, 0x01	; 1
    4e34:	90 e0       	ldi	r25, 0x00	; 0
    4e36:	02 2e       	mov	r0, r18
    4e38:	02 c0       	rjmp	.+4      	; 0x4e3e <Dio_writeChanel+0xfc>
    4e3a:	88 0f       	add	r24, r24
    4e3c:	99 1f       	adc	r25, r25
    4e3e:	0a 94       	dec	r0
    4e40:	e2 f7       	brpl	.-8      	; 0x4e3a <Dio_writeChanel+0xf8>
    4e42:	80 95       	com	r24
    4e44:	84 23       	and	r24, r20
    4e46:	8c 93       	st	X, r24
    4e48:	57 c0       	rjmp	.+174    	; 0x4ef8 <Dio_writeChanel+0x1b6>
		}
		break;

	case DIO_PORTC:
		if (level == DIO_HIGH)
    4e4a:	8b 81       	ldd	r24, Y+3	; 0x03
    4e4c:	81 30       	cpi	r24, 0x01	; 1
    4e4e:	a1 f4       	brne	.+40     	; 0x4e78 <Dio_writeChanel+0x136>
		{
			SET_BIT(DIO_PORTC_REG,pin);
    4e50:	a5 e3       	ldi	r26, 0x35	; 53
    4e52:	b0 e0       	ldi	r27, 0x00	; 0
    4e54:	e5 e3       	ldi	r30, 0x35	; 53
    4e56:	f0 e0       	ldi	r31, 0x00	; 0
    4e58:	80 81       	ld	r24, Z
    4e5a:	48 2f       	mov	r20, r24
    4e5c:	8a 81       	ldd	r24, Y+2	; 0x02
    4e5e:	28 2f       	mov	r18, r24
    4e60:	30 e0       	ldi	r19, 0x00	; 0
    4e62:	81 e0       	ldi	r24, 0x01	; 1
    4e64:	90 e0       	ldi	r25, 0x00	; 0
    4e66:	02 2e       	mov	r0, r18
    4e68:	02 c0       	rjmp	.+4      	; 0x4e6e <Dio_writeChanel+0x12c>
    4e6a:	88 0f       	add	r24, r24
    4e6c:	99 1f       	adc	r25, r25
    4e6e:	0a 94       	dec	r0
    4e70:	e2 f7       	brpl	.-8      	; 0x4e6a <Dio_writeChanel+0x128>
    4e72:	84 2b       	or	r24, r20
    4e74:	8c 93       	st	X, r24
    4e76:	40 c0       	rjmp	.+128    	; 0x4ef8 <Dio_writeChanel+0x1b6>
		}
		else
		{
			CLEAR_BIT(DIO_PORTC_REG,pin);
    4e78:	a5 e3       	ldi	r26, 0x35	; 53
    4e7a:	b0 e0       	ldi	r27, 0x00	; 0
    4e7c:	e5 e3       	ldi	r30, 0x35	; 53
    4e7e:	f0 e0       	ldi	r31, 0x00	; 0
    4e80:	80 81       	ld	r24, Z
    4e82:	48 2f       	mov	r20, r24
    4e84:	8a 81       	ldd	r24, Y+2	; 0x02
    4e86:	28 2f       	mov	r18, r24
    4e88:	30 e0       	ldi	r19, 0x00	; 0
    4e8a:	81 e0       	ldi	r24, 0x01	; 1
    4e8c:	90 e0       	ldi	r25, 0x00	; 0
    4e8e:	02 2e       	mov	r0, r18
    4e90:	02 c0       	rjmp	.+4      	; 0x4e96 <Dio_writeChanel+0x154>
    4e92:	88 0f       	add	r24, r24
    4e94:	99 1f       	adc	r25, r25
    4e96:	0a 94       	dec	r0
    4e98:	e2 f7       	brpl	.-8      	; 0x4e92 <Dio_writeChanel+0x150>
    4e9a:	80 95       	com	r24
    4e9c:	84 23       	and	r24, r20
    4e9e:	8c 93       	st	X, r24
    4ea0:	2b c0       	rjmp	.+86     	; 0x4ef8 <Dio_writeChanel+0x1b6>
		}
		break;

	case DIO_PORTD:
		if (level == DIO_HIGH)
    4ea2:	8b 81       	ldd	r24, Y+3	; 0x03
    4ea4:	81 30       	cpi	r24, 0x01	; 1
    4ea6:	a1 f4       	brne	.+40     	; 0x4ed0 <Dio_writeChanel+0x18e>
		{
			SET_BIT(DIO_PORTD_REG,pin);
    4ea8:	a2 e3       	ldi	r26, 0x32	; 50
    4eaa:	b0 e0       	ldi	r27, 0x00	; 0
    4eac:	e2 e3       	ldi	r30, 0x32	; 50
    4eae:	f0 e0       	ldi	r31, 0x00	; 0
    4eb0:	80 81       	ld	r24, Z
    4eb2:	48 2f       	mov	r20, r24
    4eb4:	8a 81       	ldd	r24, Y+2	; 0x02
    4eb6:	28 2f       	mov	r18, r24
    4eb8:	30 e0       	ldi	r19, 0x00	; 0
    4eba:	81 e0       	ldi	r24, 0x01	; 1
    4ebc:	90 e0       	ldi	r25, 0x00	; 0
    4ebe:	02 2e       	mov	r0, r18
    4ec0:	02 c0       	rjmp	.+4      	; 0x4ec6 <Dio_writeChanel+0x184>
    4ec2:	88 0f       	add	r24, r24
    4ec4:	99 1f       	adc	r25, r25
    4ec6:	0a 94       	dec	r0
    4ec8:	e2 f7       	brpl	.-8      	; 0x4ec2 <Dio_writeChanel+0x180>
    4eca:	84 2b       	or	r24, r20
    4ecc:	8c 93       	st	X, r24
    4ece:	14 c0       	rjmp	.+40     	; 0x4ef8 <Dio_writeChanel+0x1b6>
		}
		else
		{
			CLEAR_BIT(DIO_PORTD_REG,pin);
    4ed0:	a2 e3       	ldi	r26, 0x32	; 50
    4ed2:	b0 e0       	ldi	r27, 0x00	; 0
    4ed4:	e2 e3       	ldi	r30, 0x32	; 50
    4ed6:	f0 e0       	ldi	r31, 0x00	; 0
    4ed8:	80 81       	ld	r24, Z
    4eda:	48 2f       	mov	r20, r24
    4edc:	8a 81       	ldd	r24, Y+2	; 0x02
    4ede:	28 2f       	mov	r18, r24
    4ee0:	30 e0       	ldi	r19, 0x00	; 0
    4ee2:	81 e0       	ldi	r24, 0x01	; 1
    4ee4:	90 e0       	ldi	r25, 0x00	; 0
    4ee6:	02 2e       	mov	r0, r18
    4ee8:	02 c0       	rjmp	.+4      	; 0x4eee <Dio_writeChanel+0x1ac>
    4eea:	88 0f       	add	r24, r24
    4eec:	99 1f       	adc	r25, r25
    4eee:	0a 94       	dec	r0
    4ef0:	e2 f7       	brpl	.-8      	; 0x4eea <Dio_writeChanel+0x1a8>
    4ef2:	80 95       	com	r24
    4ef4:	84 23       	and	r24, r20
    4ef6:	8c 93       	st	X, r24
		}
		break;
	}
}
    4ef8:	0f 90       	pop	r0
    4efa:	0f 90       	pop	r0
    4efc:	0f 90       	pop	r0
    4efe:	0f 90       	pop	r0
    4f00:	0f 90       	pop	r0
    4f02:	cf 91       	pop	r28
    4f04:	df 91       	pop	r29
    4f06:	08 95       	ret

00004f08 <Dio_writeChanelGroup>:

void Dio_writeChanelGroup(dio_port_t port, u8 data, u8 mask)
{
    4f08:	df 93       	push	r29
    4f0a:	cf 93       	push	r28
    4f0c:	00 d0       	rcall	.+0      	; 0x4f0e <Dio_writeChanelGroup+0x6>
    4f0e:	00 d0       	rcall	.+0      	; 0x4f10 <Dio_writeChanelGroup+0x8>
    4f10:	0f 92       	push	r0
    4f12:	cd b7       	in	r28, 0x3d	; 61
    4f14:	de b7       	in	r29, 0x3e	; 62
    4f16:	89 83       	std	Y+1, r24	; 0x01
    4f18:	6a 83       	std	Y+2, r22	; 0x02
    4f1a:	4b 83       	std	Y+3, r20	; 0x03

	switch (port)
    4f1c:	89 81       	ldd	r24, Y+1	; 0x01
    4f1e:	28 2f       	mov	r18, r24
    4f20:	30 e0       	ldi	r19, 0x00	; 0
    4f22:	3d 83       	std	Y+5, r19	; 0x05
    4f24:	2c 83       	std	Y+4, r18	; 0x04
    4f26:	8c 81       	ldd	r24, Y+4	; 0x04
    4f28:	9d 81       	ldd	r25, Y+5	; 0x05
    4f2a:	81 30       	cpi	r24, 0x01	; 1
    4f2c:	91 05       	cpc	r25, r1
    4f2e:	01 f1       	breq	.+64     	; 0x4f70 <Dio_writeChanelGroup+0x68>
    4f30:	2c 81       	ldd	r18, Y+4	; 0x04
    4f32:	3d 81       	ldd	r19, Y+5	; 0x05
    4f34:	22 30       	cpi	r18, 0x02	; 2
    4f36:	31 05       	cpc	r19, r1
    4f38:	2c f4       	brge	.+10     	; 0x4f44 <Dio_writeChanelGroup+0x3c>
    4f3a:	8c 81       	ldd	r24, Y+4	; 0x04
    4f3c:	9d 81       	ldd	r25, Y+5	; 0x05
    4f3e:	00 97       	sbiw	r24, 0x00	; 0
    4f40:	61 f0       	breq	.+24     	; 0x4f5a <Dio_writeChanelGroup+0x52>
    4f42:	36 c0       	rjmp	.+108    	; 0x4fb0 <Dio_writeChanelGroup+0xa8>
    4f44:	2c 81       	ldd	r18, Y+4	; 0x04
    4f46:	3d 81       	ldd	r19, Y+5	; 0x05
    4f48:	22 30       	cpi	r18, 0x02	; 2
    4f4a:	31 05       	cpc	r19, r1
    4f4c:	e1 f0       	breq	.+56     	; 0x4f86 <Dio_writeChanelGroup+0x7e>
    4f4e:	8c 81       	ldd	r24, Y+4	; 0x04
    4f50:	9d 81       	ldd	r25, Y+5	; 0x05
    4f52:	83 30       	cpi	r24, 0x03	; 3
    4f54:	91 05       	cpc	r25, r1
    4f56:	11 f1       	breq	.+68     	; 0x4f9c <Dio_writeChanelGroup+0x94>
    4f58:	2b c0       	rjmp	.+86     	; 0x4fb0 <Dio_writeChanelGroup+0xa8>
	{

	case DIO_PORTA:
		// DIO_PORTA_REG &= data;						WRONG because we should use AND to set the left 4 bit to 0
		// 												then use OR to set the left 4 bit to required value
		DIO_PORTA_REG = (DIO_PORTA_REG & mask) | data;
    4f5a:	ab e3       	ldi	r26, 0x3B	; 59
    4f5c:	b0 e0       	ldi	r27, 0x00	; 0
    4f5e:	eb e3       	ldi	r30, 0x3B	; 59
    4f60:	f0 e0       	ldi	r31, 0x00	; 0
    4f62:	90 81       	ld	r25, Z
    4f64:	8b 81       	ldd	r24, Y+3	; 0x03
    4f66:	98 23       	and	r25, r24
    4f68:	8a 81       	ldd	r24, Y+2	; 0x02
    4f6a:	89 2b       	or	r24, r25
    4f6c:	8c 93       	st	X, r24
    4f6e:	20 c0       	rjmp	.+64     	; 0x4fb0 <Dio_writeChanelGroup+0xa8>
		break;
	case DIO_PORTB:
		DIO_PORTB_REG = (DIO_PORTB_REG & mask) | data;
    4f70:	a8 e3       	ldi	r26, 0x38	; 56
    4f72:	b0 e0       	ldi	r27, 0x00	; 0
    4f74:	e8 e3       	ldi	r30, 0x38	; 56
    4f76:	f0 e0       	ldi	r31, 0x00	; 0
    4f78:	90 81       	ld	r25, Z
    4f7a:	8b 81       	ldd	r24, Y+3	; 0x03
    4f7c:	98 23       	and	r25, r24
    4f7e:	8a 81       	ldd	r24, Y+2	; 0x02
    4f80:	89 2b       	or	r24, r25
    4f82:	8c 93       	st	X, r24
    4f84:	15 c0       	rjmp	.+42     	; 0x4fb0 <Dio_writeChanelGroup+0xa8>
		break;
	case DIO_PORTC:
		DIO_PORTC_REG = (DIO_PORTC_REG & mask) | data;
    4f86:	a5 e3       	ldi	r26, 0x35	; 53
    4f88:	b0 e0       	ldi	r27, 0x00	; 0
    4f8a:	e5 e3       	ldi	r30, 0x35	; 53
    4f8c:	f0 e0       	ldi	r31, 0x00	; 0
    4f8e:	90 81       	ld	r25, Z
    4f90:	8b 81       	ldd	r24, Y+3	; 0x03
    4f92:	98 23       	and	r25, r24
    4f94:	8a 81       	ldd	r24, Y+2	; 0x02
    4f96:	89 2b       	or	r24, r25
    4f98:	8c 93       	st	X, r24
    4f9a:	0a c0       	rjmp	.+20     	; 0x4fb0 <Dio_writeChanelGroup+0xa8>
		break;
	case DIO_PORTD:
		DIO_PORTD_REG = (DIO_PORTD_REG & mask) | data;
    4f9c:	a2 e3       	ldi	r26, 0x32	; 50
    4f9e:	b0 e0       	ldi	r27, 0x00	; 0
    4fa0:	e2 e3       	ldi	r30, 0x32	; 50
    4fa2:	f0 e0       	ldi	r31, 0x00	; 0
    4fa4:	90 81       	ld	r25, Z
    4fa6:	8b 81       	ldd	r24, Y+3	; 0x03
    4fa8:	98 23       	and	r25, r24
    4faa:	8a 81       	ldd	r24, Y+2	; 0x02
    4fac:	89 2b       	or	r24, r25
    4fae:	8c 93       	st	X, r24
		break;

	}

}
    4fb0:	0f 90       	pop	r0
    4fb2:	0f 90       	pop	r0
    4fb4:	0f 90       	pop	r0
    4fb6:	0f 90       	pop	r0
    4fb8:	0f 90       	pop	r0
    4fba:	cf 91       	pop	r28
    4fbc:	df 91       	pop	r29
    4fbe:	08 95       	ret

00004fc0 <Dio_udtreadChanel>:

dio_level_t Dio_udtreadChanel(dio_port_t port, dio_pin_t pin)
{
    4fc0:	df 93       	push	r29
    4fc2:	cf 93       	push	r28
    4fc4:	00 d0       	rcall	.+0      	; 0x4fc6 <Dio_udtreadChanel+0x6>
    4fc6:	00 d0       	rcall	.+0      	; 0x4fc8 <Dio_udtreadChanel+0x8>
    4fc8:	0f 92       	push	r0
    4fca:	cd b7       	in	r28, 0x3d	; 61
    4fcc:	de b7       	in	r29, 0x3e	; 62
    4fce:	8a 83       	std	Y+2, r24	; 0x02
    4fd0:	6b 83       	std	Y+3, r22	; 0x03

	dio_level_t returnValue = 0;
    4fd2:	19 82       	std	Y+1, r1	; 0x01

	switch(port)
    4fd4:	8a 81       	ldd	r24, Y+2	; 0x02
    4fd6:	28 2f       	mov	r18, r24
    4fd8:	30 e0       	ldi	r19, 0x00	; 0
    4fda:	3d 83       	std	Y+5, r19	; 0x05
    4fdc:	2c 83       	std	Y+4, r18	; 0x04
    4fde:	4c 81       	ldd	r20, Y+4	; 0x04
    4fe0:	5d 81       	ldd	r21, Y+5	; 0x05
    4fe2:	41 30       	cpi	r20, 0x01	; 1
    4fe4:	51 05       	cpc	r21, r1
    4fe6:	41 f1       	breq	.+80     	; 0x5038 <Dio_udtreadChanel+0x78>
    4fe8:	8c 81       	ldd	r24, Y+4	; 0x04
    4fea:	9d 81       	ldd	r25, Y+5	; 0x05
    4fec:	82 30       	cpi	r24, 0x02	; 2
    4fee:	91 05       	cpc	r25, r1
    4ff0:	34 f4       	brge	.+12     	; 0x4ffe <Dio_udtreadChanel+0x3e>
    4ff2:	2c 81       	ldd	r18, Y+4	; 0x04
    4ff4:	3d 81       	ldd	r19, Y+5	; 0x05
    4ff6:	21 15       	cp	r18, r1
    4ff8:	31 05       	cpc	r19, r1
    4ffa:	61 f0       	breq	.+24     	; 0x5014 <Dio_udtreadChanel+0x54>
    4ffc:	52 c0       	rjmp	.+164    	; 0x50a2 <Dio_udtreadChanel+0xe2>
    4ffe:	4c 81       	ldd	r20, Y+4	; 0x04
    5000:	5d 81       	ldd	r21, Y+5	; 0x05
    5002:	42 30       	cpi	r20, 0x02	; 2
    5004:	51 05       	cpc	r21, r1
    5006:	51 f1       	breq	.+84     	; 0x505c <Dio_udtreadChanel+0x9c>
    5008:	8c 81       	ldd	r24, Y+4	; 0x04
    500a:	9d 81       	ldd	r25, Y+5	; 0x05
    500c:	83 30       	cpi	r24, 0x03	; 3
    500e:	91 05       	cpc	r25, r1
    5010:	b9 f1       	breq	.+110    	; 0x5080 <Dio_udtreadChanel+0xc0>
    5012:	47 c0       	rjmp	.+142    	; 0x50a2 <Dio_udtreadChanel+0xe2>
	{

	case DIO_PORTA:
		returnValue = CHECK_BIT(DIO_PINA_REG, pin);
    5014:	e9 e3       	ldi	r30, 0x39	; 57
    5016:	f0 e0       	ldi	r31, 0x00	; 0
    5018:	80 81       	ld	r24, Z
    501a:	28 2f       	mov	r18, r24
    501c:	30 e0       	ldi	r19, 0x00	; 0
    501e:	8b 81       	ldd	r24, Y+3	; 0x03
    5020:	88 2f       	mov	r24, r24
    5022:	90 e0       	ldi	r25, 0x00	; 0
    5024:	a9 01       	movw	r20, r18
    5026:	02 c0       	rjmp	.+4      	; 0x502c <Dio_udtreadChanel+0x6c>
    5028:	55 95       	asr	r21
    502a:	47 95       	ror	r20
    502c:	8a 95       	dec	r24
    502e:	e2 f7       	brpl	.-8      	; 0x5028 <Dio_udtreadChanel+0x68>
    5030:	ca 01       	movw	r24, r20
    5032:	81 70       	andi	r24, 0x01	; 1
    5034:	89 83       	std	Y+1, r24	; 0x01
    5036:	35 c0       	rjmp	.+106    	; 0x50a2 <Dio_udtreadChanel+0xe2>
		break;

	case DIO_PORTB:
		returnValue = CHECK_BIT(DIO_PINB_REG, pin);
    5038:	e6 e3       	ldi	r30, 0x36	; 54
    503a:	f0 e0       	ldi	r31, 0x00	; 0
    503c:	80 81       	ld	r24, Z
    503e:	28 2f       	mov	r18, r24
    5040:	30 e0       	ldi	r19, 0x00	; 0
    5042:	8b 81       	ldd	r24, Y+3	; 0x03
    5044:	88 2f       	mov	r24, r24
    5046:	90 e0       	ldi	r25, 0x00	; 0
    5048:	a9 01       	movw	r20, r18
    504a:	02 c0       	rjmp	.+4      	; 0x5050 <Dio_udtreadChanel+0x90>
    504c:	55 95       	asr	r21
    504e:	47 95       	ror	r20
    5050:	8a 95       	dec	r24
    5052:	e2 f7       	brpl	.-8      	; 0x504c <Dio_udtreadChanel+0x8c>
    5054:	ca 01       	movw	r24, r20
    5056:	81 70       	andi	r24, 0x01	; 1
    5058:	89 83       	std	Y+1, r24	; 0x01
    505a:	23 c0       	rjmp	.+70     	; 0x50a2 <Dio_udtreadChanel+0xe2>
		break;

	case DIO_PORTC:
		returnValue = CHECK_BIT(DIO_PINC_REG, pin);
    505c:	e3 e3       	ldi	r30, 0x33	; 51
    505e:	f0 e0       	ldi	r31, 0x00	; 0
    5060:	80 81       	ld	r24, Z
    5062:	28 2f       	mov	r18, r24
    5064:	30 e0       	ldi	r19, 0x00	; 0
    5066:	8b 81       	ldd	r24, Y+3	; 0x03
    5068:	88 2f       	mov	r24, r24
    506a:	90 e0       	ldi	r25, 0x00	; 0
    506c:	a9 01       	movw	r20, r18
    506e:	02 c0       	rjmp	.+4      	; 0x5074 <Dio_udtreadChanel+0xb4>
    5070:	55 95       	asr	r21
    5072:	47 95       	ror	r20
    5074:	8a 95       	dec	r24
    5076:	e2 f7       	brpl	.-8      	; 0x5070 <Dio_udtreadChanel+0xb0>
    5078:	ca 01       	movw	r24, r20
    507a:	81 70       	andi	r24, 0x01	; 1
    507c:	89 83       	std	Y+1, r24	; 0x01
    507e:	11 c0       	rjmp	.+34     	; 0x50a2 <Dio_udtreadChanel+0xe2>
		break;

	case DIO_PORTD:
		returnValue = CHECK_BIT(DIO_PIND_REG, pin);
    5080:	e0 e3       	ldi	r30, 0x30	; 48
    5082:	f0 e0       	ldi	r31, 0x00	; 0
    5084:	80 81       	ld	r24, Z
    5086:	28 2f       	mov	r18, r24
    5088:	30 e0       	ldi	r19, 0x00	; 0
    508a:	8b 81       	ldd	r24, Y+3	; 0x03
    508c:	88 2f       	mov	r24, r24
    508e:	90 e0       	ldi	r25, 0x00	; 0
    5090:	a9 01       	movw	r20, r18
    5092:	02 c0       	rjmp	.+4      	; 0x5098 <Dio_udtreadChanel+0xd8>
    5094:	55 95       	asr	r21
    5096:	47 95       	ror	r20
    5098:	8a 95       	dec	r24
    509a:	e2 f7       	brpl	.-8      	; 0x5094 <Dio_udtreadChanel+0xd4>
    509c:	ca 01       	movw	r24, r20
    509e:	81 70       	andi	r24, 0x01	; 1
    50a0:	89 83       	std	Y+1, r24	; 0x01
		break;

	}

	return returnValue;
    50a2:	89 81       	ldd	r24, Y+1	; 0x01

}
    50a4:	0f 90       	pop	r0
    50a6:	0f 90       	pop	r0
    50a8:	0f 90       	pop	r0
    50aa:	0f 90       	pop	r0
    50ac:	0f 90       	pop	r0
    50ae:	cf 91       	pop	r28
    50b0:	df 91       	pop	r29
    50b2:	08 95       	ret

000050b4 <Dio_flipChanel>:


void Dio_flipChanel(dio_port_t port, dio_pin_t pin)
{
    50b4:	df 93       	push	r29
    50b6:	cf 93       	push	r28
    50b8:	00 d0       	rcall	.+0      	; 0x50ba <Dio_flipChanel+0x6>
    50ba:	00 d0       	rcall	.+0      	; 0x50bc <Dio_flipChanel+0x8>
    50bc:	cd b7       	in	r28, 0x3d	; 61
    50be:	de b7       	in	r29, 0x3e	; 62
    50c0:	89 83       	std	Y+1, r24	; 0x01
    50c2:	6a 83       	std	Y+2, r22	; 0x02

	switch(port)
    50c4:	89 81       	ldd	r24, Y+1	; 0x01
    50c6:	28 2f       	mov	r18, r24
    50c8:	30 e0       	ldi	r19, 0x00	; 0
    50ca:	3c 83       	std	Y+4, r19	; 0x04
    50cc:	2b 83       	std	Y+3, r18	; 0x03
    50ce:	8b 81       	ldd	r24, Y+3	; 0x03
    50d0:	9c 81       	ldd	r25, Y+4	; 0x04
    50d2:	81 30       	cpi	r24, 0x01	; 1
    50d4:	91 05       	cpc	r25, r1
    50d6:	49 f1       	breq	.+82     	; 0x512a <Dio_flipChanel+0x76>
    50d8:	2b 81       	ldd	r18, Y+3	; 0x03
    50da:	3c 81       	ldd	r19, Y+4	; 0x04
    50dc:	22 30       	cpi	r18, 0x02	; 2
    50de:	31 05       	cpc	r19, r1
    50e0:	2c f4       	brge	.+10     	; 0x50ec <Dio_flipChanel+0x38>
    50e2:	8b 81       	ldd	r24, Y+3	; 0x03
    50e4:	9c 81       	ldd	r25, Y+4	; 0x04
    50e6:	00 97       	sbiw	r24, 0x00	; 0
    50e8:	61 f0       	breq	.+24     	; 0x5102 <Dio_flipChanel+0x4e>
    50ea:	5a c0       	rjmp	.+180    	; 0x51a0 <Dio_flipChanel+0xec>
    50ec:	2b 81       	ldd	r18, Y+3	; 0x03
    50ee:	3c 81       	ldd	r19, Y+4	; 0x04
    50f0:	22 30       	cpi	r18, 0x02	; 2
    50f2:	31 05       	cpc	r19, r1
    50f4:	71 f1       	breq	.+92     	; 0x5152 <Dio_flipChanel+0x9e>
    50f6:	8b 81       	ldd	r24, Y+3	; 0x03
    50f8:	9c 81       	ldd	r25, Y+4	; 0x04
    50fa:	83 30       	cpi	r24, 0x03	; 3
    50fc:	91 05       	cpc	r25, r1
    50fe:	e9 f1       	breq	.+122    	; 0x517a <Dio_flipChanel+0xc6>
    5100:	4f c0       	rjmp	.+158    	; 0x51a0 <Dio_flipChanel+0xec>
	{

	case DIO_PORTA:
		FLIP_BIT(DIO_PORTA_REG, pin);
    5102:	ab e3       	ldi	r26, 0x3B	; 59
    5104:	b0 e0       	ldi	r27, 0x00	; 0
    5106:	eb e3       	ldi	r30, 0x3B	; 59
    5108:	f0 e0       	ldi	r31, 0x00	; 0
    510a:	80 81       	ld	r24, Z
    510c:	48 2f       	mov	r20, r24
    510e:	8a 81       	ldd	r24, Y+2	; 0x02
    5110:	28 2f       	mov	r18, r24
    5112:	30 e0       	ldi	r19, 0x00	; 0
    5114:	81 e0       	ldi	r24, 0x01	; 1
    5116:	90 e0       	ldi	r25, 0x00	; 0
    5118:	02 2e       	mov	r0, r18
    511a:	02 c0       	rjmp	.+4      	; 0x5120 <Dio_flipChanel+0x6c>
    511c:	88 0f       	add	r24, r24
    511e:	99 1f       	adc	r25, r25
    5120:	0a 94       	dec	r0
    5122:	e2 f7       	brpl	.-8      	; 0x511c <Dio_flipChanel+0x68>
    5124:	84 27       	eor	r24, r20
    5126:	8c 93       	st	X, r24
    5128:	3b c0       	rjmp	.+118    	; 0x51a0 <Dio_flipChanel+0xec>
		break;

	case DIO_PORTB:
		FLIP_BIT(DIO_PORTB_REG, pin);
    512a:	a8 e3       	ldi	r26, 0x38	; 56
    512c:	b0 e0       	ldi	r27, 0x00	; 0
    512e:	e8 e3       	ldi	r30, 0x38	; 56
    5130:	f0 e0       	ldi	r31, 0x00	; 0
    5132:	80 81       	ld	r24, Z
    5134:	48 2f       	mov	r20, r24
    5136:	8a 81       	ldd	r24, Y+2	; 0x02
    5138:	28 2f       	mov	r18, r24
    513a:	30 e0       	ldi	r19, 0x00	; 0
    513c:	81 e0       	ldi	r24, 0x01	; 1
    513e:	90 e0       	ldi	r25, 0x00	; 0
    5140:	02 2e       	mov	r0, r18
    5142:	02 c0       	rjmp	.+4      	; 0x5148 <Dio_flipChanel+0x94>
    5144:	88 0f       	add	r24, r24
    5146:	99 1f       	adc	r25, r25
    5148:	0a 94       	dec	r0
    514a:	e2 f7       	brpl	.-8      	; 0x5144 <Dio_flipChanel+0x90>
    514c:	84 27       	eor	r24, r20
    514e:	8c 93       	st	X, r24
    5150:	27 c0       	rjmp	.+78     	; 0x51a0 <Dio_flipChanel+0xec>
		break;

	case DIO_PORTC:
		FLIP_BIT(DIO_PORTC_REG, pin);
    5152:	a5 e3       	ldi	r26, 0x35	; 53
    5154:	b0 e0       	ldi	r27, 0x00	; 0
    5156:	e5 e3       	ldi	r30, 0x35	; 53
    5158:	f0 e0       	ldi	r31, 0x00	; 0
    515a:	80 81       	ld	r24, Z
    515c:	48 2f       	mov	r20, r24
    515e:	8a 81       	ldd	r24, Y+2	; 0x02
    5160:	28 2f       	mov	r18, r24
    5162:	30 e0       	ldi	r19, 0x00	; 0
    5164:	81 e0       	ldi	r24, 0x01	; 1
    5166:	90 e0       	ldi	r25, 0x00	; 0
    5168:	02 2e       	mov	r0, r18
    516a:	02 c0       	rjmp	.+4      	; 0x5170 <Dio_flipChanel+0xbc>
    516c:	88 0f       	add	r24, r24
    516e:	99 1f       	adc	r25, r25
    5170:	0a 94       	dec	r0
    5172:	e2 f7       	brpl	.-8      	; 0x516c <Dio_flipChanel+0xb8>
    5174:	84 27       	eor	r24, r20
    5176:	8c 93       	st	X, r24
    5178:	13 c0       	rjmp	.+38     	; 0x51a0 <Dio_flipChanel+0xec>
		break;

	case DIO_PORTD:
		FLIP_BIT(DIO_PORTD_REG, pin);
    517a:	a2 e3       	ldi	r26, 0x32	; 50
    517c:	b0 e0       	ldi	r27, 0x00	; 0
    517e:	e2 e3       	ldi	r30, 0x32	; 50
    5180:	f0 e0       	ldi	r31, 0x00	; 0
    5182:	80 81       	ld	r24, Z
    5184:	48 2f       	mov	r20, r24
    5186:	8a 81       	ldd	r24, Y+2	; 0x02
    5188:	28 2f       	mov	r18, r24
    518a:	30 e0       	ldi	r19, 0x00	; 0
    518c:	81 e0       	ldi	r24, 0x01	; 1
    518e:	90 e0       	ldi	r25, 0x00	; 0
    5190:	02 2e       	mov	r0, r18
    5192:	02 c0       	rjmp	.+4      	; 0x5198 <Dio_flipChanel+0xe4>
    5194:	88 0f       	add	r24, r24
    5196:	99 1f       	adc	r25, r25
    5198:	0a 94       	dec	r0
    519a:	e2 f7       	brpl	.-8      	; 0x5194 <Dio_flipChanel+0xe0>
    519c:	84 27       	eor	r24, r20
    519e:	8c 93       	st	X, r24
		break;

	}

}
    51a0:	0f 90       	pop	r0
    51a2:	0f 90       	pop	r0
    51a4:	0f 90       	pop	r0
    51a6:	0f 90       	pop	r0
    51a8:	cf 91       	pop	r28
    51aa:	df 91       	pop	r29
    51ac:	08 95       	ret

000051ae <ADC_InitADC>:
 */

#include "ADC.h"

void ADC_InitADC()
{
    51ae:	df 93       	push	r29
    51b0:	cf 93       	push	r28
    51b2:	cd b7       	in	r28, 0x3d	; 61
    51b4:	de b7       	in	r29, 0x3e	; 62

	// Don't know how it works without config dio pins to input!

	// Enable ADC
	SET_BIT(ADC_ADCSRA_REG, ADC_Enable);
    51b6:	a6 e2       	ldi	r26, 0x26	; 38
    51b8:	b0 e0       	ldi	r27, 0x00	; 0
    51ba:	e6 e2       	ldi	r30, 0x26	; 38
    51bc:	f0 e0       	ldi	r31, 0x00	; 0
    51be:	80 81       	ld	r24, Z
    51c0:	80 68       	ori	r24, 0x80	; 128
    51c2:	8c 93       	st	X, r24

	// Prescale clock (die by 128)
	ADC_ADCSRA_REG |= 0x07;			// 0000 0111
    51c4:	a6 e2       	ldi	r26, 0x26	; 38
    51c6:	b0 e0       	ldi	r27, 0x00	; 0
    51c8:	e6 e2       	ldi	r30, 0x26	; 38
    51ca:	f0 e0       	ldi	r31, 0x00	; 0
    51cc:	80 81       	ld	r24, Z
    51ce:	87 60       	ori	r24, 0x07	; 7
    51d0:	8c 93       	st	X, r24

	// Vref (reference bits) match to the MC VCC
	SET_BIT(ADC_ADMUX_REG, ADC_REFS0);
    51d2:	a7 e2       	ldi	r26, 0x27	; 39
    51d4:	b0 e0       	ldi	r27, 0x00	; 0
    51d6:	e7 e2       	ldi	r30, 0x27	; 39
    51d8:	f0 e0       	ldi	r31, 0x00	; 0
    51da:	80 81       	ld	r24, Z
    51dc:	80 64       	ori	r24, 0x40	; 64
    51de:	8c 93       	st	X, r24

	// ADLAR is default -> 0

}
    51e0:	cf 91       	pop	r28
    51e2:	df 91       	pop	r29
    51e4:	08 95       	ret

000051e6 <ADC_f32ReadChannel>:

f32 ADC_f32ReadChannel(adc_channel_t channelNum)
{
    51e6:	df 93       	push	r29
    51e8:	cf 93       	push	r28
    51ea:	cd b7       	in	r28, 0x3d	; 61
    51ec:	de b7       	in	r29, 0x3e	; 62
    51ee:	27 97       	sbiw	r28, 0x07	; 7
    51f0:	0f b6       	in	r0, 0x3f	; 63
    51f2:	f8 94       	cli
    51f4:	de bf       	out	0x3e, r29	; 62
    51f6:	0f be       	out	0x3f, r0	; 63
    51f8:	cd bf       	out	0x3d, r28	; 61
    51fa:	8f 83       	std	Y+7, r24	; 0x07

	// Clear MUX bits
	ADC_ADMUX_REG &= ADC_MASK;
    51fc:	a7 e2       	ldi	r26, 0x27	; 39
    51fe:	b0 e0       	ldi	r27, 0x00	; 0
    5200:	e7 e2       	ldi	r30, 0x27	; 39
    5202:	f0 e0       	ldi	r31, 0x00	; 0
    5204:	80 81       	ld	r24, Z
    5206:	88 7f       	andi	r24, 0xF8	; 248
    5208:	8c 93       	st	X, r24

	// Select channel
	ADC_ADMUX_REG |= channelNum;	// xxx0 0000
    520a:	a7 e2       	ldi	r26, 0x27	; 39
    520c:	b0 e0       	ldi	r27, 0x00	; 0
    520e:	e7 e2       	ldi	r30, 0x27	; 39
    5210:	f0 e0       	ldi	r31, 0x00	; 0
    5212:	90 81       	ld	r25, Z
    5214:	8f 81       	ldd	r24, Y+7	; 0x07
    5216:	89 2b       	or	r24, r25
    5218:	8c 93       	st	X, r24

	// Start Conversion
	SET_BIT(ADC_ADCSRA_REG, ADC_START_CONV);
    521a:	a6 e2       	ldi	r26, 0x26	; 38
    521c:	b0 e0       	ldi	r27, 0x00	; 0
    521e:	e6 e2       	ldi	r30, 0x26	; 38
    5220:	f0 e0       	ldi	r31, 0x00	; 0
    5222:	80 81       	ld	r24, Z
    5224:	80 64       	ori	r24, 0x40	; 64
    5226:	8c 93       	st	X, r24

	// wait for ADIF become 1
	while (CHECK_BIT(ADC_ADCSRA_REG, ADC_INT_FLAG) != 1);
    5228:	e6 e2       	ldi	r30, 0x26	; 38
    522a:	f0 e0       	ldi	r31, 0x00	; 0
    522c:	80 81       	ld	r24, Z
    522e:	82 95       	swap	r24
    5230:	8f 70       	andi	r24, 0x0F	; 15
    5232:	88 2f       	mov	r24, r24
    5234:	90 e0       	ldi	r25, 0x00	; 0
    5236:	81 70       	andi	r24, 0x01	; 1
    5238:	90 70       	andi	r25, 0x00	; 0
    523a:	00 97       	sbiw	r24, 0x00	; 0
    523c:	a9 f3       	breq	.-22     	; 0x5228 <ADC_f32ReadChannel+0x42>

	// Clear ADIF by setting 1
	SET_BIT(ADC_ADCSRA_REG, ADC_INT_FLAG);
    523e:	a6 e2       	ldi	r26, 0x26	; 38
    5240:	b0 e0       	ldi	r27, 0x00	; 0
    5242:	e6 e2       	ldi	r30, 0x26	; 38
    5244:	f0 e0       	ldi	r31, 0x00	; 0
    5246:	80 81       	ld	r24, Z
    5248:	80 61       	ori	r24, 0x10	; 16
    524a:	8c 93       	st	X, r24

	u16 data = ADC_ADCL_REG | (u16)(ADC_ADCH_REG << 8);
    524c:	e4 e2       	ldi	r30, 0x24	; 36
    524e:	f0 e0       	ldi	r31, 0x00	; 0
    5250:	80 81       	ld	r24, Z
    5252:	28 2f       	mov	r18, r24
    5254:	30 e0       	ldi	r19, 0x00	; 0
    5256:	e5 e2       	ldi	r30, 0x25	; 37
    5258:	f0 e0       	ldi	r31, 0x00	; 0
    525a:	80 81       	ld	r24, Z
    525c:	88 2f       	mov	r24, r24
    525e:	90 e0       	ldi	r25, 0x00	; 0
    5260:	98 2f       	mov	r25, r24
    5262:	88 27       	eor	r24, r24
    5264:	82 2b       	or	r24, r18
    5266:	93 2b       	or	r25, r19
    5268:	9e 83       	std	Y+6, r25	; 0x06
    526a:	8d 83       	std	Y+5, r24	; 0x05

	// Convert from mV to V
	f32 volt = (data * ADC_BIT_SIZE) / (f32) 1000;
    526c:	8d 81       	ldd	r24, Y+5	; 0x05
    526e:	9e 81       	ldd	r25, Y+6	; 0x06
    5270:	cc 01       	movw	r24, r24
    5272:	a0 e0       	ldi	r26, 0x00	; 0
    5274:	b0 e0       	ldi	r27, 0x00	; 0
    5276:	bc 01       	movw	r22, r24
    5278:	cd 01       	movw	r24, r26
    527a:	0e 94 07 05 	call	0xa0e	; 0xa0e <__floatunsisf>
    527e:	dc 01       	movw	r26, r24
    5280:	cb 01       	movw	r24, r22
    5282:	bc 01       	movw	r22, r24
    5284:	cd 01       	movw	r24, r26
    5286:	2a e9       	ldi	r18, 0x9A	; 154
    5288:	39 e9       	ldi	r19, 0x99	; 153
    528a:	49 e9       	ldi	r20, 0x99	; 153
    528c:	50 e4       	ldi	r21, 0x40	; 64
    528e:	0e 94 1f 02 	call	0x43e	; 0x43e <__mulsf3>
    5292:	dc 01       	movw	r26, r24
    5294:	cb 01       	movw	r24, r22
    5296:	bc 01       	movw	r22, r24
    5298:	cd 01       	movw	r24, r26
    529a:	20 e0       	ldi	r18, 0x00	; 0
    529c:	30 e0       	ldi	r19, 0x00	; 0
    529e:	4a e7       	ldi	r20, 0x7A	; 122
    52a0:	54 e4       	ldi	r21, 0x44	; 68
    52a2:	0e 94 19 03 	call	0x632	; 0x632 <__divsf3>
    52a6:	dc 01       	movw	r26, r24
    52a8:	cb 01       	movw	r24, r22
    52aa:	89 83       	std	Y+1, r24	; 0x01
    52ac:	9a 83       	std	Y+2, r25	; 0x02
    52ae:	ab 83       	std	Y+3, r26	; 0x03
    52b0:	bc 83       	std	Y+4, r27	; 0x04

	return volt;
    52b2:	89 81       	ldd	r24, Y+1	; 0x01
    52b4:	9a 81       	ldd	r25, Y+2	; 0x02
    52b6:	ab 81       	ldd	r26, Y+3	; 0x03
    52b8:	bc 81       	ldd	r27, Y+4	; 0x04

}
    52ba:	bc 01       	movw	r22, r24
    52bc:	cd 01       	movw	r24, r26
    52be:	27 96       	adiw	r28, 0x07	; 7
    52c0:	0f b6       	in	r0, 0x3f	; 63
    52c2:	f8 94       	cli
    52c4:	de bf       	out	0x3e, r29	; 62
    52c6:	0f be       	out	0x3f, r0	; 63
    52c8:	cd bf       	out	0x3d, r28	; 61
    52ca:	cf 91       	pop	r28
    52cc:	df 91       	pop	r29
    52ce:	08 95       	ret

000052d0 <__udivmodqi4>:
    52d0:	99 1b       	sub	r25, r25
    52d2:	79 e0       	ldi	r23, 0x09	; 9
    52d4:	04 c0       	rjmp	.+8      	; 0x52de <__udivmodqi4_ep>

000052d6 <__udivmodqi4_loop>:
    52d6:	99 1f       	adc	r25, r25
    52d8:	96 17       	cp	r25, r22
    52da:	08 f0       	brcs	.+2      	; 0x52de <__udivmodqi4_ep>
    52dc:	96 1b       	sub	r25, r22

000052de <__udivmodqi4_ep>:
    52de:	88 1f       	adc	r24, r24
    52e0:	7a 95       	dec	r23
    52e2:	c9 f7       	brne	.-14     	; 0x52d6 <__udivmodqi4_loop>
    52e4:	80 95       	com	r24
    52e6:	08 95       	ret

000052e8 <__udivmodhi4>:
    52e8:	aa 1b       	sub	r26, r26
    52ea:	bb 1b       	sub	r27, r27
    52ec:	51 e1       	ldi	r21, 0x11	; 17
    52ee:	07 c0       	rjmp	.+14     	; 0x52fe <__udivmodhi4_ep>

000052f0 <__udivmodhi4_loop>:
    52f0:	aa 1f       	adc	r26, r26
    52f2:	bb 1f       	adc	r27, r27
    52f4:	a6 17       	cp	r26, r22
    52f6:	b7 07       	cpc	r27, r23
    52f8:	10 f0       	brcs	.+4      	; 0x52fe <__udivmodhi4_ep>
    52fa:	a6 1b       	sub	r26, r22
    52fc:	b7 0b       	sbc	r27, r23

000052fe <__udivmodhi4_ep>:
    52fe:	88 1f       	adc	r24, r24
    5300:	99 1f       	adc	r25, r25
    5302:	5a 95       	dec	r21
    5304:	a9 f7       	brne	.-22     	; 0x52f0 <__udivmodhi4_loop>
    5306:	80 95       	com	r24
    5308:	90 95       	com	r25
    530a:	bc 01       	movw	r22, r24
    530c:	cd 01       	movw	r24, r26
    530e:	08 95       	ret

00005310 <__divmodhi4>:
    5310:	97 fb       	bst	r25, 7
    5312:	09 2e       	mov	r0, r25
    5314:	07 26       	eor	r0, r23
    5316:	0a d0       	rcall	.+20     	; 0x532c <__divmodhi4_neg1>
    5318:	77 fd       	sbrc	r23, 7
    531a:	04 d0       	rcall	.+8      	; 0x5324 <__divmodhi4_neg2>
    531c:	e5 df       	rcall	.-54     	; 0x52e8 <__udivmodhi4>
    531e:	06 d0       	rcall	.+12     	; 0x532c <__divmodhi4_neg1>
    5320:	00 20       	and	r0, r0
    5322:	1a f4       	brpl	.+6      	; 0x532a <__divmodhi4_exit>

00005324 <__divmodhi4_neg2>:
    5324:	70 95       	com	r23
    5326:	61 95       	neg	r22
    5328:	7f 4f       	sbci	r23, 0xFF	; 255

0000532a <__divmodhi4_exit>:
    532a:	08 95       	ret

0000532c <__divmodhi4_neg1>:
    532c:	f6 f7       	brtc	.-4      	; 0x532a <__divmodhi4_exit>
    532e:	90 95       	com	r25
    5330:	81 95       	neg	r24
    5332:	9f 4f       	sbci	r25, 0xFF	; 255
    5334:	08 95       	ret

00005336 <__prologue_saves__>:
    5336:	2f 92       	push	r2
    5338:	3f 92       	push	r3
    533a:	4f 92       	push	r4
    533c:	5f 92       	push	r5
    533e:	6f 92       	push	r6
    5340:	7f 92       	push	r7
    5342:	8f 92       	push	r8
    5344:	9f 92       	push	r9
    5346:	af 92       	push	r10
    5348:	bf 92       	push	r11
    534a:	cf 92       	push	r12
    534c:	df 92       	push	r13
    534e:	ef 92       	push	r14
    5350:	ff 92       	push	r15
    5352:	0f 93       	push	r16
    5354:	1f 93       	push	r17
    5356:	cf 93       	push	r28
    5358:	df 93       	push	r29
    535a:	cd b7       	in	r28, 0x3d	; 61
    535c:	de b7       	in	r29, 0x3e	; 62
    535e:	ca 1b       	sub	r28, r26
    5360:	db 0b       	sbc	r29, r27
    5362:	0f b6       	in	r0, 0x3f	; 63
    5364:	f8 94       	cli
    5366:	de bf       	out	0x3e, r29	; 62
    5368:	0f be       	out	0x3f, r0	; 63
    536a:	cd bf       	out	0x3d, r28	; 61
    536c:	09 94       	ijmp

0000536e <__epilogue_restores__>:
    536e:	2a 88       	ldd	r2, Y+18	; 0x12
    5370:	39 88       	ldd	r3, Y+17	; 0x11
    5372:	48 88       	ldd	r4, Y+16	; 0x10
    5374:	5f 84       	ldd	r5, Y+15	; 0x0f
    5376:	6e 84       	ldd	r6, Y+14	; 0x0e
    5378:	7d 84       	ldd	r7, Y+13	; 0x0d
    537a:	8c 84       	ldd	r8, Y+12	; 0x0c
    537c:	9b 84       	ldd	r9, Y+11	; 0x0b
    537e:	aa 84       	ldd	r10, Y+10	; 0x0a
    5380:	b9 84       	ldd	r11, Y+9	; 0x09
    5382:	c8 84       	ldd	r12, Y+8	; 0x08
    5384:	df 80       	ldd	r13, Y+7	; 0x07
    5386:	ee 80       	ldd	r14, Y+6	; 0x06
    5388:	fd 80       	ldd	r15, Y+5	; 0x05
    538a:	0c 81       	ldd	r16, Y+4	; 0x04
    538c:	1b 81       	ldd	r17, Y+3	; 0x03
    538e:	aa 81       	ldd	r26, Y+2	; 0x02
    5390:	b9 81       	ldd	r27, Y+1	; 0x01
    5392:	ce 0f       	add	r28, r30
    5394:	d1 1d       	adc	r29, r1
    5396:	0f b6       	in	r0, 0x3f	; 63
    5398:	f8 94       	cli
    539a:	de bf       	out	0x3e, r29	; 62
    539c:	0f be       	out	0x3f, r0	; 63
    539e:	cd bf       	out	0x3d, r28	; 61
    53a0:	ed 01       	movw	r28, r26
    53a2:	08 95       	ret

000053a4 <strtol>:
    53a4:	2f 92       	push	r2
    53a6:	3f 92       	push	r3
    53a8:	5f 92       	push	r5
    53aa:	6f 92       	push	r6
    53ac:	7f 92       	push	r7
    53ae:	8f 92       	push	r8
    53b0:	9f 92       	push	r9
    53b2:	af 92       	push	r10
    53b4:	bf 92       	push	r11
    53b6:	cf 92       	push	r12
    53b8:	df 92       	push	r13
    53ba:	ef 92       	push	r14
    53bc:	ff 92       	push	r15
    53be:	0f 93       	push	r16
    53c0:	1f 93       	push	r17
    53c2:	cf 93       	push	r28
    53c4:	df 93       	push	r29
    53c6:	8c 01       	movw	r16, r24
    53c8:	1b 01       	movw	r2, r22
    53ca:	ea 01       	movw	r28, r20
    53cc:	61 15       	cp	r22, r1
    53ce:	71 05       	cpc	r23, r1
    53d0:	19 f0       	breq	.+6      	; 0x53d8 <strtol+0x34>
    53d2:	fb 01       	movw	r30, r22
    53d4:	91 83       	std	Z+1, r25	; 0x01
    53d6:	80 83       	st	Z, r24
    53d8:	20 97       	sbiw	r28, 0x00	; 0
    53da:	49 f0       	breq	.+18     	; 0x53ee <strtol+0x4a>
    53dc:	ce 01       	movw	r24, r28
    53de:	02 97       	sbiw	r24, 0x02	; 2
    53e0:	83 97       	sbiw	r24, 0x23	; 35
    53e2:	28 f0       	brcs	.+10     	; 0x53ee <strtol+0x4a>
    53e4:	20 e0       	ldi	r18, 0x00	; 0
    53e6:	30 e0       	ldi	r19, 0x00	; 0
    53e8:	40 e0       	ldi	r20, 0x00	; 0
    53ea:	50 e0       	ldi	r21, 0x00	; 0
    53ec:	f6 c0       	rjmp	.+492    	; 0x55da <strtol+0x236>
    53ee:	f8 01       	movw	r30, r16
    53f0:	a1 90       	ld	r10, Z+
    53f2:	8f 01       	movw	r16, r30
    53f4:	8a 2d       	mov	r24, r10
    53f6:	90 e0       	ldi	r25, 0x00	; 0
    53f8:	0e 94 01 2b 	call	0x5602	; 0x5602 <isspace>
    53fc:	89 2b       	or	r24, r25
    53fe:	b9 f7       	brne	.-18     	; 0x53ee <strtol+0x4a>
    5400:	fd e2       	ldi	r31, 0x2D	; 45
    5402:	af 16       	cp	r10, r31
    5404:	31 f4       	brne	.+12     	; 0x5412 <strtol+0x6e>
    5406:	f8 01       	movw	r30, r16
    5408:	a1 90       	ld	r10, Z+
    540a:	8f 01       	movw	r16, r30
    540c:	55 24       	eor	r5, r5
    540e:	53 94       	inc	r5
    5410:	07 c0       	rjmp	.+14     	; 0x5420 <strtol+0x7c>
    5412:	fb e2       	ldi	r31, 0x2B	; 43
    5414:	af 16       	cp	r10, r31
    5416:	19 f4       	brne	.+6      	; 0x541e <strtol+0x7a>
    5418:	f8 01       	movw	r30, r16
    541a:	a1 90       	ld	r10, Z+
    541c:	8f 01       	movw	r16, r30
    541e:	55 24       	eor	r5, r5
    5420:	20 97       	sbiw	r28, 0x00	; 0
    5422:	19 f0       	breq	.+6      	; 0x542a <strtol+0x86>
    5424:	c0 31       	cpi	r28, 0x10	; 16
    5426:	d1 05       	cpc	r29, r1
    5428:	c1 f4       	brne	.+48     	; 0x545a <strtol+0xb6>
    542a:	f0 e3       	ldi	r31, 0x30	; 48
    542c:	af 16       	cp	r10, r31
    542e:	79 f4       	brne	.+30     	; 0x544e <strtol+0xaa>
    5430:	f8 01       	movw	r30, r16
    5432:	80 81       	ld	r24, Z
    5434:	88 37       	cpi	r24, 0x78	; 120
    5436:	11 f0       	breq	.+4      	; 0x543c <strtol+0x98>
    5438:	88 35       	cpi	r24, 0x58	; 88
    543a:	49 f4       	brne	.+18     	; 0x544e <strtol+0xaa>
    543c:	f8 01       	movw	r30, r16
    543e:	a1 80       	ldd	r10, Z+1	; 0x01
    5440:	0e 5f       	subi	r16, 0xFE	; 254
    5442:	1f 4f       	sbci	r17, 0xFF	; 255
    5444:	f2 e0       	ldi	r31, 0x02	; 2
    5446:	5f 2a       	or	r5, r31
    5448:	c0 e1       	ldi	r28, 0x10	; 16
    544a:	d0 e0       	ldi	r29, 0x00	; 0
    544c:	06 c0       	rjmp	.+12     	; 0x545a <strtol+0xb6>
    544e:	20 97       	sbiw	r28, 0x00	; 0
    5450:	21 f4       	brne	.+8      	; 0x545a <strtol+0xb6>
    5452:	80 e3       	ldi	r24, 0x30	; 48
    5454:	a8 16       	cp	r10, r24
    5456:	e9 f4       	brne	.+58     	; 0x5492 <strtol+0xee>
    5458:	27 c0       	rjmp	.+78     	; 0x54a8 <strtol+0x104>
    545a:	c8 30       	cpi	r28, 0x08	; 8
    545c:	d1 05       	cpc	r29, r1
    545e:	31 f1       	breq	.+76     	; 0x54ac <strtol+0x108>
    5460:	c9 30       	cpi	r28, 0x09	; 9
    5462:	d1 05       	cpc	r29, r1
    5464:	24 f4       	brge	.+8      	; 0x546e <strtol+0xca>
    5466:	c2 30       	cpi	r28, 0x02	; 2
    5468:	d1 05       	cpc	r29, r1
    546a:	31 f5       	brne	.+76     	; 0x54b8 <strtol+0x114>
    546c:	0c c0       	rjmp	.+24     	; 0x5486 <strtol+0xe2>
    546e:	ca 30       	cpi	r28, 0x0A	; 10
    5470:	d1 05       	cpc	r29, r1
    5472:	89 f0       	breq	.+34     	; 0x5496 <strtol+0xf2>
    5474:	c0 31       	cpi	r28, 0x10	; 16
    5476:	d1 05       	cpc	r29, r1
    5478:	f9 f4       	brne	.+62     	; 0x54b8 <strtol+0x114>
    547a:	c1 2c       	mov	r12, r1
    547c:	d1 2c       	mov	r13, r1
    547e:	e1 2c       	mov	r14, r1
    5480:	b8 e0       	ldi	r27, 0x08	; 8
    5482:	fb 2e       	mov	r15, r27
    5484:	28 c0       	rjmp	.+80     	; 0x54d6 <strtol+0x132>
    5486:	c1 2c       	mov	r12, r1
    5488:	d1 2c       	mov	r13, r1
    548a:	e1 2c       	mov	r14, r1
    548c:	a0 e4       	ldi	r26, 0x40	; 64
    548e:	fa 2e       	mov	r15, r26
    5490:	22 c0       	rjmp	.+68     	; 0x54d6 <strtol+0x132>
    5492:	ca e0       	ldi	r28, 0x0A	; 10
    5494:	d0 e0       	ldi	r29, 0x00	; 0
    5496:	fc ec       	ldi	r31, 0xCC	; 204
    5498:	cf 2e       	mov	r12, r31
    549a:	fc ec       	ldi	r31, 0xCC	; 204
    549c:	df 2e       	mov	r13, r31
    549e:	fc ec       	ldi	r31, 0xCC	; 204
    54a0:	ef 2e       	mov	r14, r31
    54a2:	fc e0       	ldi	r31, 0x0C	; 12
    54a4:	ff 2e       	mov	r15, r31
    54a6:	17 c0       	rjmp	.+46     	; 0x54d6 <strtol+0x132>
    54a8:	c8 e0       	ldi	r28, 0x08	; 8
    54aa:	d0 e0       	ldi	r29, 0x00	; 0
    54ac:	c1 2c       	mov	r12, r1
    54ae:	d1 2c       	mov	r13, r1
    54b0:	e1 2c       	mov	r14, r1
    54b2:	e0 e1       	ldi	r30, 0x10	; 16
    54b4:	fe 2e       	mov	r15, r30
    54b6:	0f c0       	rjmp	.+30     	; 0x54d6 <strtol+0x132>
    54b8:	9e 01       	movw	r18, r28
    54ba:	44 27       	eor	r20, r20
    54bc:	37 fd       	sbrc	r19, 7
    54be:	40 95       	com	r20
    54c0:	54 2f       	mov	r21, r20
    54c2:	60 e0       	ldi	r22, 0x00	; 0
    54c4:	70 e0       	ldi	r23, 0x00	; 0
    54c6:	80 e0       	ldi	r24, 0x00	; 0
    54c8:	90 e8       	ldi	r25, 0x80	; 128
    54ca:	0e 94 34 2e 	call	0x5c68	; 0x5c68 <__udivmodsi4>
    54ce:	c9 01       	movw	r24, r18
    54d0:	da 01       	movw	r26, r20
    54d2:	6c 01       	movw	r12, r24
    54d4:	7d 01       	movw	r14, r26
    54d6:	20 e0       	ldi	r18, 0x00	; 0
    54d8:	30 e0       	ldi	r19, 0x00	; 0
    54da:	40 e0       	ldi	r20, 0x00	; 0
    54dc:	50 e0       	ldi	r21, 0x00	; 0
    54de:	60 e0       	ldi	r22, 0x00	; 0
    54e0:	3e 01       	movw	r6, r28
    54e2:	88 24       	eor	r8, r8
    54e4:	77 fc       	sbrc	r7, 7
    54e6:	80 94       	com	r8
    54e8:	98 2c       	mov	r9, r8
    54ea:	70 ed       	ldi	r23, 0xD0	; 208
    54ec:	b7 2e       	mov	r11, r23
    54ee:	ba 0c       	add	r11, r10
    54f0:	e9 e0       	ldi	r30, 0x09	; 9
    54f2:	eb 15       	cp	r30, r11
    54f4:	70 f4       	brcc	.+28     	; 0x5512 <strtol+0x16e>
    54f6:	8a 2d       	mov	r24, r10
    54f8:	81 54       	subi	r24, 0x41	; 65
    54fa:	8a 31       	cpi	r24, 0x1A	; 26
    54fc:	18 f4       	brcc	.+6      	; 0x5504 <strtol+0x160>
    54fe:	99 ec       	ldi	r25, 0xC9	; 201
    5500:	b9 2e       	mov	r11, r25
    5502:	06 c0       	rjmp	.+12     	; 0x5510 <strtol+0x16c>
    5504:	8a 2d       	mov	r24, r10
    5506:	81 56       	subi	r24, 0x61	; 97
    5508:	8a 31       	cpi	r24, 0x1A	; 26
    550a:	50 f5       	brcc	.+84     	; 0x5560 <strtol+0x1bc>
    550c:	89 ea       	ldi	r24, 0xA9	; 169
    550e:	b8 2e       	mov	r11, r24
    5510:	ba 0c       	add	r11, r10
    5512:	8b 2d       	mov	r24, r11
    5514:	90 e0       	ldi	r25, 0x00	; 0
    5516:	8c 17       	cp	r24, r28
    5518:	9d 07       	cpc	r25, r29
    551a:	14 f5       	brge	.+68     	; 0x5560 <strtol+0x1bc>
    551c:	6f 3f       	cpi	r22, 0xFF	; 255
    551e:	e1 f0       	breq	.+56     	; 0x5558 <strtol+0x1b4>
    5520:	c2 16       	cp	r12, r18
    5522:	d3 06       	cpc	r13, r19
    5524:	e4 06       	cpc	r14, r20
    5526:	f5 06       	cpc	r15, r21
    5528:	b0 f0       	brcs	.+44     	; 0x5556 <strtol+0x1b2>
    552a:	ca 01       	movw	r24, r20
    552c:	b9 01       	movw	r22, r18
    552e:	a4 01       	movw	r20, r8
    5530:	93 01       	movw	r18, r6
    5532:	0e 94 15 2e 	call	0x5c2a	; 0x5c2a <__mulsi3>
    5536:	9b 01       	movw	r18, r22
    5538:	ac 01       	movw	r20, r24
    553a:	2b 0d       	add	r18, r11
    553c:	31 1d       	adc	r19, r1
    553e:	41 1d       	adc	r20, r1
    5540:	51 1d       	adc	r21, r1
    5542:	21 30       	cpi	r18, 0x01	; 1
    5544:	f0 e0       	ldi	r31, 0x00	; 0
    5546:	3f 07       	cpc	r19, r31
    5548:	f0 e0       	ldi	r31, 0x00	; 0
    554a:	4f 07       	cpc	r20, r31
    554c:	f0 e8       	ldi	r31, 0x80	; 128
    554e:	5f 07       	cpc	r21, r31
    5550:	10 f4       	brcc	.+4      	; 0x5556 <strtol+0x1b2>
    5552:	61 e0       	ldi	r22, 0x01	; 1
    5554:	01 c0       	rjmp	.+2      	; 0x5558 <strtol+0x1b4>
    5556:	6f ef       	ldi	r22, 0xFF	; 255
    5558:	f8 01       	movw	r30, r16
    555a:	a1 90       	ld	r10, Z+
    555c:	8f 01       	movw	r16, r30
    555e:	c5 cf       	rjmp	.-118    	; 0x54ea <strtol+0x146>
    5560:	21 14       	cp	r2, r1
    5562:	31 04       	cpc	r3, r1
    5564:	81 f0       	breq	.+32     	; 0x5586 <strtol+0x1e2>
    5566:	66 23       	and	r22, r22
    5568:	31 f0       	breq	.+12     	; 0x5576 <strtol+0x1d2>
    556a:	01 50       	subi	r16, 0x01	; 1
    556c:	10 40       	sbci	r17, 0x00	; 0
    556e:	f1 01       	movw	r30, r2
    5570:	11 83       	std	Z+1, r17	; 0x01
    5572:	00 83       	st	Z, r16
    5574:	08 c0       	rjmp	.+16     	; 0x5586 <strtol+0x1e2>
    5576:	51 fe       	sbrs	r5, 1
    5578:	1a c0       	rjmp	.+52     	; 0x55ae <strtol+0x20a>
    557a:	02 50       	subi	r16, 0x02	; 2
    557c:	10 40       	sbci	r17, 0x00	; 0
    557e:	f1 01       	movw	r30, r2
    5580:	11 83       	std	Z+1, r17	; 0x01
    5582:	00 83       	st	Z, r16
    5584:	14 c0       	rjmp	.+40     	; 0x55ae <strtol+0x20a>
    5586:	67 ff       	sbrs	r22, 7
    5588:	12 c0       	rjmp	.+36     	; 0x55ae <strtol+0x20a>
    558a:	50 fc       	sbrc	r5, 0
    558c:	05 c0       	rjmp	.+10     	; 0x5598 <strtol+0x1f4>
    558e:	2f ef       	ldi	r18, 0xFF	; 255
    5590:	3f ef       	ldi	r19, 0xFF	; 255
    5592:	4f ef       	ldi	r20, 0xFF	; 255
    5594:	5f e7       	ldi	r21, 0x7F	; 127
    5596:	04 c0       	rjmp	.+8      	; 0x55a0 <strtol+0x1fc>
    5598:	20 e0       	ldi	r18, 0x00	; 0
    559a:	30 e0       	ldi	r19, 0x00	; 0
    559c:	40 e0       	ldi	r20, 0x00	; 0
    559e:	50 e8       	ldi	r21, 0x80	; 128
    55a0:	82 e2       	ldi	r24, 0x22	; 34
    55a2:	90 e0       	ldi	r25, 0x00	; 0
    55a4:	90 93 7e 03 	sts	0x037E, r25
    55a8:	80 93 7d 03 	sts	0x037D, r24
    55ac:	16 c0       	rjmp	.+44     	; 0x55da <strtol+0x236>
    55ae:	50 fe       	sbrs	r5, 0
    55b0:	08 c0       	rjmp	.+16     	; 0x55c2 <strtol+0x21e>
    55b2:	50 95       	com	r21
    55b4:	40 95       	com	r20
    55b6:	30 95       	com	r19
    55b8:	21 95       	neg	r18
    55ba:	3f 4f       	sbci	r19, 0xFF	; 255
    55bc:	4f 4f       	sbci	r20, 0xFF	; 255
    55be:	5f 4f       	sbci	r21, 0xFF	; 255
    55c0:	0c c0       	rjmp	.+24     	; 0x55da <strtol+0x236>
    55c2:	57 ff       	sbrs	r21, 7
    55c4:	0a c0       	rjmp	.+20     	; 0x55da <strtol+0x236>
    55c6:	82 e2       	ldi	r24, 0x22	; 34
    55c8:	90 e0       	ldi	r25, 0x00	; 0
    55ca:	90 93 7e 03 	sts	0x037E, r25
    55ce:	80 93 7d 03 	sts	0x037D, r24
    55d2:	2f ef       	ldi	r18, 0xFF	; 255
    55d4:	3f ef       	ldi	r19, 0xFF	; 255
    55d6:	4f ef       	ldi	r20, 0xFF	; 255
    55d8:	5f e7       	ldi	r21, 0x7F	; 127
    55da:	b9 01       	movw	r22, r18
    55dc:	ca 01       	movw	r24, r20
    55de:	df 91       	pop	r29
    55e0:	cf 91       	pop	r28
    55e2:	1f 91       	pop	r17
    55e4:	0f 91       	pop	r16
    55e6:	ff 90       	pop	r15
    55e8:	ef 90       	pop	r14
    55ea:	df 90       	pop	r13
    55ec:	cf 90       	pop	r12
    55ee:	bf 90       	pop	r11
    55f0:	af 90       	pop	r10
    55f2:	9f 90       	pop	r9
    55f4:	8f 90       	pop	r8
    55f6:	7f 90       	pop	r7
    55f8:	6f 90       	pop	r6
    55fa:	5f 90       	pop	r5
    55fc:	3f 90       	pop	r3
    55fe:	2f 90       	pop	r2
    5600:	08 95       	ret

00005602 <isspace>:
    5602:	91 11       	cpse	r25, r1
    5604:	6f c2       	rjmp	.+1246   	; 0x5ae4 <__ctype_isfalse>
    5606:	80 32       	cpi	r24, 0x20	; 32
    5608:	19 f0       	breq	.+6      	; 0x5610 <isspace+0xe>
    560a:	89 50       	subi	r24, 0x09	; 9
    560c:	85 50       	subi	r24, 0x05	; 5
    560e:	d0 f7       	brcc	.-12     	; 0x5604 <isspace+0x2>
    5610:	08 95       	ret

00005612 <memcpy>:
    5612:	fb 01       	movw	r30, r22
    5614:	dc 01       	movw	r26, r24
    5616:	02 c0       	rjmp	.+4      	; 0x561c <memcpy+0xa>
    5618:	01 90       	ld	r0, Z+
    561a:	0d 92       	st	X+, r0
    561c:	41 50       	subi	r20, 0x01	; 1
    561e:	50 40       	sbci	r21, 0x00	; 0
    5620:	d8 f7       	brcc	.-10     	; 0x5618 <memcpy+0x6>
    5622:	08 95       	ret

00005624 <strcmp>:
    5624:	fb 01       	movw	r30, r22
    5626:	dc 01       	movw	r26, r24
    5628:	8d 91       	ld	r24, X+
    562a:	01 90       	ld	r0, Z+
    562c:	80 19       	sub	r24, r0
    562e:	01 10       	cpse	r0, r1
    5630:	d9 f3       	breq	.-10     	; 0x5628 <strcmp+0x4>
    5632:	99 0b       	sbc	r25, r25
    5634:	08 95       	ret

00005636 <strcpy>:
    5636:	fb 01       	movw	r30, r22
    5638:	dc 01       	movw	r26, r24
    563a:	01 90       	ld	r0, Z+
    563c:	0d 92       	st	X+, r0
    563e:	00 20       	and	r0, r0
    5640:	e1 f7       	brne	.-8      	; 0x563a <strcpy+0x4>
    5642:	08 95       	ret

00005644 <strlen>:
    5644:	fc 01       	movw	r30, r24
    5646:	01 90       	ld	r0, Z+
    5648:	00 20       	and	r0, r0
    564a:	e9 f7       	brne	.-6      	; 0x5646 <strlen+0x2>
    564c:	80 95       	com	r24
    564e:	90 95       	com	r25
    5650:	8e 0f       	add	r24, r30
    5652:	9f 1f       	adc	r25, r31
    5654:	08 95       	ret

00005656 <snprintf>:
    5656:	ae e0       	ldi	r26, 0x0E	; 14
    5658:	b0 e0       	ldi	r27, 0x00	; 0
    565a:	e1 e3       	ldi	r30, 0x31	; 49
    565c:	fb e2       	ldi	r31, 0x2B	; 43
    565e:	0c 94 a9 29 	jmp	0x5352	; 0x5352 <__prologue_saves__+0x1c>
    5662:	0d 89       	ldd	r16, Y+21	; 0x15
    5664:	1e 89       	ldd	r17, Y+22	; 0x16
    5666:	8f 89       	ldd	r24, Y+23	; 0x17
    5668:	98 8d       	ldd	r25, Y+24	; 0x18
    566a:	97 ff       	sbrs	r25, 7
    566c:	02 c0       	rjmp	.+4      	; 0x5672 <snprintf+0x1c>
    566e:	80 e0       	ldi	r24, 0x00	; 0
    5670:	90 e8       	ldi	r25, 0x80	; 128
    5672:	01 97       	sbiw	r24, 0x01	; 1
    5674:	9e 83       	std	Y+6, r25	; 0x06
    5676:	8d 83       	std	Y+5, r24	; 0x05
    5678:	1a 83       	std	Y+2, r17	; 0x02
    567a:	09 83       	std	Y+1, r16	; 0x01
    567c:	86 e0       	ldi	r24, 0x06	; 6
    567e:	8c 83       	std	Y+4, r24	; 0x04
    5680:	9e 01       	movw	r18, r28
    5682:	25 5e       	subi	r18, 0xE5	; 229
    5684:	3f 4f       	sbci	r19, 0xFF	; 255
    5686:	ce 01       	movw	r24, r28
    5688:	01 96       	adiw	r24, 0x01	; 1
    568a:	69 8d       	ldd	r22, Y+25	; 0x19
    568c:	7a 8d       	ldd	r23, Y+26	; 0x1a
    568e:	a9 01       	movw	r20, r18
    5690:	0e 94 80 2b 	call	0x5700	; 0x5700 <vfprintf>
    5694:	4d 81       	ldd	r20, Y+5	; 0x05
    5696:	5e 81       	ldd	r21, Y+6	; 0x06
    5698:	57 fd       	sbrc	r21, 7
    569a:	0a c0       	rjmp	.+20     	; 0x56b0 <snprintf+0x5a>
    569c:	2f 81       	ldd	r18, Y+7	; 0x07
    569e:	38 85       	ldd	r19, Y+8	; 0x08
    56a0:	42 17       	cp	r20, r18
    56a2:	53 07       	cpc	r21, r19
    56a4:	0c f4       	brge	.+2      	; 0x56a8 <snprintf+0x52>
    56a6:	9a 01       	movw	r18, r20
    56a8:	02 0f       	add	r16, r18
    56aa:	13 1f       	adc	r17, r19
    56ac:	f8 01       	movw	r30, r16
    56ae:	10 82       	st	Z, r1
    56b0:	2e 96       	adiw	r28, 0x0e	; 14
    56b2:	e4 e0       	ldi	r30, 0x04	; 4
    56b4:	0c 94 c5 29 	jmp	0x538a	; 0x538a <__epilogue_restores__+0x1c>

000056b8 <sprintf>:
    56b8:	ae e0       	ldi	r26, 0x0E	; 14
    56ba:	b0 e0       	ldi	r27, 0x00	; 0
    56bc:	e2 e6       	ldi	r30, 0x62	; 98
    56be:	fb e2       	ldi	r31, 0x2B	; 43
    56c0:	0c 94 a9 29 	jmp	0x5352	; 0x5352 <__prologue_saves__+0x1c>
    56c4:	0d 89       	ldd	r16, Y+21	; 0x15
    56c6:	1e 89       	ldd	r17, Y+22	; 0x16
    56c8:	86 e0       	ldi	r24, 0x06	; 6
    56ca:	8c 83       	std	Y+4, r24	; 0x04
    56cc:	1a 83       	std	Y+2, r17	; 0x02
    56ce:	09 83       	std	Y+1, r16	; 0x01
    56d0:	8f ef       	ldi	r24, 0xFF	; 255
    56d2:	9f e7       	ldi	r25, 0x7F	; 127
    56d4:	9e 83       	std	Y+6, r25	; 0x06
    56d6:	8d 83       	std	Y+5, r24	; 0x05
    56d8:	9e 01       	movw	r18, r28
    56da:	27 5e       	subi	r18, 0xE7	; 231
    56dc:	3f 4f       	sbci	r19, 0xFF	; 255
    56de:	ce 01       	movw	r24, r28
    56e0:	01 96       	adiw	r24, 0x01	; 1
    56e2:	6f 89       	ldd	r22, Y+23	; 0x17
    56e4:	78 8d       	ldd	r23, Y+24	; 0x18
    56e6:	a9 01       	movw	r20, r18
    56e8:	0e 94 80 2b 	call	0x5700	; 0x5700 <vfprintf>
    56ec:	2f 81       	ldd	r18, Y+7	; 0x07
    56ee:	38 85       	ldd	r19, Y+8	; 0x08
    56f0:	02 0f       	add	r16, r18
    56f2:	13 1f       	adc	r17, r19
    56f4:	f8 01       	movw	r30, r16
    56f6:	10 82       	st	Z, r1
    56f8:	2e 96       	adiw	r28, 0x0e	; 14
    56fa:	e4 e0       	ldi	r30, 0x04	; 4
    56fc:	0c 94 c5 29 	jmp	0x538a	; 0x538a <__epilogue_restores__+0x1c>

00005700 <vfprintf>:
    5700:	ab e0       	ldi	r26, 0x0B	; 11
    5702:	b0 e0       	ldi	r27, 0x00	; 0
    5704:	e6 e8       	ldi	r30, 0x86	; 134
    5706:	fb e2       	ldi	r31, 0x2B	; 43
    5708:	0c 94 9b 29 	jmp	0x5336	; 0x5336 <__prologue_saves__>
    570c:	3c 01       	movw	r6, r24
    570e:	2b 01       	movw	r4, r22
    5710:	5a 01       	movw	r10, r20
    5712:	fc 01       	movw	r30, r24
    5714:	17 82       	std	Z+7, r1	; 0x07
    5716:	16 82       	std	Z+6, r1	; 0x06
    5718:	83 81       	ldd	r24, Z+3	; 0x03
    571a:	81 fd       	sbrc	r24, 1
    571c:	03 c0       	rjmp	.+6      	; 0x5724 <vfprintf+0x24>
    571e:	6f ef       	ldi	r22, 0xFF	; 255
    5720:	7f ef       	ldi	r23, 0xFF	; 255
    5722:	c6 c1       	rjmp	.+908    	; 0x5ab0 <vfprintf+0x3b0>
    5724:	9a e0       	ldi	r25, 0x0A	; 10
    5726:	89 2e       	mov	r8, r25
    5728:	1e 01       	movw	r2, r28
    572a:	08 94       	sec
    572c:	21 1c       	adc	r2, r1
    572e:	31 1c       	adc	r3, r1
    5730:	f3 01       	movw	r30, r6
    5732:	23 81       	ldd	r18, Z+3	; 0x03
    5734:	f2 01       	movw	r30, r4
    5736:	23 fd       	sbrc	r18, 3
    5738:	85 91       	lpm	r24, Z+
    573a:	23 ff       	sbrs	r18, 3
    573c:	81 91       	ld	r24, Z+
    573e:	2f 01       	movw	r4, r30
    5740:	88 23       	and	r24, r24
    5742:	09 f4       	brne	.+2      	; 0x5746 <vfprintf+0x46>
    5744:	b2 c1       	rjmp	.+868    	; 0x5aaa <vfprintf+0x3aa>
    5746:	85 32       	cpi	r24, 0x25	; 37
    5748:	39 f4       	brne	.+14     	; 0x5758 <vfprintf+0x58>
    574a:	23 fd       	sbrc	r18, 3
    574c:	85 91       	lpm	r24, Z+
    574e:	23 ff       	sbrs	r18, 3
    5750:	81 91       	ld	r24, Z+
    5752:	2f 01       	movw	r4, r30
    5754:	85 32       	cpi	r24, 0x25	; 37
    5756:	29 f4       	brne	.+10     	; 0x5762 <vfprintf+0x62>
    5758:	90 e0       	ldi	r25, 0x00	; 0
    575a:	b3 01       	movw	r22, r6
    575c:	0e 94 8b 2d 	call	0x5b16	; 0x5b16 <fputc>
    5760:	e7 cf       	rjmp	.-50     	; 0x5730 <vfprintf+0x30>
    5762:	98 2f       	mov	r25, r24
    5764:	ff 24       	eor	r15, r15
    5766:	ee 24       	eor	r14, r14
    5768:	99 24       	eor	r9, r9
    576a:	ff e1       	ldi	r31, 0x1F	; 31
    576c:	ff 15       	cp	r31, r15
    576e:	d0 f0       	brcs	.+52     	; 0x57a4 <vfprintf+0xa4>
    5770:	9b 32       	cpi	r25, 0x2B	; 43
    5772:	69 f0       	breq	.+26     	; 0x578e <vfprintf+0x8e>
    5774:	9c 32       	cpi	r25, 0x2C	; 44
    5776:	28 f4       	brcc	.+10     	; 0x5782 <vfprintf+0x82>
    5778:	90 32       	cpi	r25, 0x20	; 32
    577a:	59 f0       	breq	.+22     	; 0x5792 <vfprintf+0x92>
    577c:	93 32       	cpi	r25, 0x23	; 35
    577e:	91 f4       	brne	.+36     	; 0x57a4 <vfprintf+0xa4>
    5780:	0e c0       	rjmp	.+28     	; 0x579e <vfprintf+0x9e>
    5782:	9d 32       	cpi	r25, 0x2D	; 45
    5784:	49 f0       	breq	.+18     	; 0x5798 <vfprintf+0x98>
    5786:	90 33       	cpi	r25, 0x30	; 48
    5788:	69 f4       	brne	.+26     	; 0x57a4 <vfprintf+0xa4>
    578a:	41 e0       	ldi	r20, 0x01	; 1
    578c:	24 c0       	rjmp	.+72     	; 0x57d6 <vfprintf+0xd6>
    578e:	52 e0       	ldi	r21, 0x02	; 2
    5790:	f5 2a       	or	r15, r21
    5792:	84 e0       	ldi	r24, 0x04	; 4
    5794:	f8 2a       	or	r15, r24
    5796:	28 c0       	rjmp	.+80     	; 0x57e8 <vfprintf+0xe8>
    5798:	98 e0       	ldi	r25, 0x08	; 8
    579a:	f9 2a       	or	r15, r25
    579c:	25 c0       	rjmp	.+74     	; 0x57e8 <vfprintf+0xe8>
    579e:	e0 e1       	ldi	r30, 0x10	; 16
    57a0:	fe 2a       	or	r15, r30
    57a2:	22 c0       	rjmp	.+68     	; 0x57e8 <vfprintf+0xe8>
    57a4:	f7 fc       	sbrc	r15, 7
    57a6:	29 c0       	rjmp	.+82     	; 0x57fa <vfprintf+0xfa>
    57a8:	89 2f       	mov	r24, r25
    57aa:	80 53       	subi	r24, 0x30	; 48
    57ac:	8a 30       	cpi	r24, 0x0A	; 10
    57ae:	70 f4       	brcc	.+28     	; 0x57cc <vfprintf+0xcc>
    57b0:	f6 fe       	sbrs	r15, 6
    57b2:	05 c0       	rjmp	.+10     	; 0x57be <vfprintf+0xbe>
    57b4:	98 9c       	mul	r9, r8
    57b6:	90 2c       	mov	r9, r0
    57b8:	11 24       	eor	r1, r1
    57ba:	98 0e       	add	r9, r24
    57bc:	15 c0       	rjmp	.+42     	; 0x57e8 <vfprintf+0xe8>
    57be:	e8 9c       	mul	r14, r8
    57c0:	e0 2c       	mov	r14, r0
    57c2:	11 24       	eor	r1, r1
    57c4:	e8 0e       	add	r14, r24
    57c6:	f0 e2       	ldi	r31, 0x20	; 32
    57c8:	ff 2a       	or	r15, r31
    57ca:	0e c0       	rjmp	.+28     	; 0x57e8 <vfprintf+0xe8>
    57cc:	9e 32       	cpi	r25, 0x2E	; 46
    57ce:	29 f4       	brne	.+10     	; 0x57da <vfprintf+0xda>
    57d0:	f6 fc       	sbrc	r15, 6
    57d2:	6b c1       	rjmp	.+726    	; 0x5aaa <vfprintf+0x3aa>
    57d4:	40 e4       	ldi	r20, 0x40	; 64
    57d6:	f4 2a       	or	r15, r20
    57d8:	07 c0       	rjmp	.+14     	; 0x57e8 <vfprintf+0xe8>
    57da:	9c 36       	cpi	r25, 0x6C	; 108
    57dc:	19 f4       	brne	.+6      	; 0x57e4 <vfprintf+0xe4>
    57de:	50 e8       	ldi	r21, 0x80	; 128
    57e0:	f5 2a       	or	r15, r21
    57e2:	02 c0       	rjmp	.+4      	; 0x57e8 <vfprintf+0xe8>
    57e4:	98 36       	cpi	r25, 0x68	; 104
    57e6:	49 f4       	brne	.+18     	; 0x57fa <vfprintf+0xfa>
    57e8:	f2 01       	movw	r30, r4
    57ea:	23 fd       	sbrc	r18, 3
    57ec:	95 91       	lpm	r25, Z+
    57ee:	23 ff       	sbrs	r18, 3
    57f0:	91 91       	ld	r25, Z+
    57f2:	2f 01       	movw	r4, r30
    57f4:	99 23       	and	r25, r25
    57f6:	09 f0       	breq	.+2      	; 0x57fa <vfprintf+0xfa>
    57f8:	b8 cf       	rjmp	.-144    	; 0x576a <vfprintf+0x6a>
    57fa:	89 2f       	mov	r24, r25
    57fc:	85 54       	subi	r24, 0x45	; 69
    57fe:	83 30       	cpi	r24, 0x03	; 3
    5800:	18 f0       	brcs	.+6      	; 0x5808 <vfprintf+0x108>
    5802:	80 52       	subi	r24, 0x20	; 32
    5804:	83 30       	cpi	r24, 0x03	; 3
    5806:	38 f4       	brcc	.+14     	; 0x5816 <vfprintf+0x116>
    5808:	44 e0       	ldi	r20, 0x04	; 4
    580a:	50 e0       	ldi	r21, 0x00	; 0
    580c:	a4 0e       	add	r10, r20
    580e:	b5 1e       	adc	r11, r21
    5810:	5f e3       	ldi	r21, 0x3F	; 63
    5812:	59 83       	std	Y+1, r21	; 0x01
    5814:	0f c0       	rjmp	.+30     	; 0x5834 <vfprintf+0x134>
    5816:	93 36       	cpi	r25, 0x63	; 99
    5818:	31 f0       	breq	.+12     	; 0x5826 <vfprintf+0x126>
    581a:	93 37       	cpi	r25, 0x73	; 115
    581c:	79 f0       	breq	.+30     	; 0x583c <vfprintf+0x13c>
    581e:	93 35       	cpi	r25, 0x53	; 83
    5820:	09 f0       	breq	.+2      	; 0x5824 <vfprintf+0x124>
    5822:	56 c0       	rjmp	.+172    	; 0x58d0 <vfprintf+0x1d0>
    5824:	20 c0       	rjmp	.+64     	; 0x5866 <vfprintf+0x166>
    5826:	f5 01       	movw	r30, r10
    5828:	80 81       	ld	r24, Z
    582a:	89 83       	std	Y+1, r24	; 0x01
    582c:	42 e0       	ldi	r20, 0x02	; 2
    582e:	50 e0       	ldi	r21, 0x00	; 0
    5830:	a4 0e       	add	r10, r20
    5832:	b5 1e       	adc	r11, r21
    5834:	61 01       	movw	r12, r2
    5836:	01 e0       	ldi	r16, 0x01	; 1
    5838:	10 e0       	ldi	r17, 0x00	; 0
    583a:	12 c0       	rjmp	.+36     	; 0x5860 <vfprintf+0x160>
    583c:	f5 01       	movw	r30, r10
    583e:	c0 80       	ld	r12, Z
    5840:	d1 80       	ldd	r13, Z+1	; 0x01
    5842:	f6 fc       	sbrc	r15, 6
    5844:	03 c0       	rjmp	.+6      	; 0x584c <vfprintf+0x14c>
    5846:	6f ef       	ldi	r22, 0xFF	; 255
    5848:	7f ef       	ldi	r23, 0xFF	; 255
    584a:	02 c0       	rjmp	.+4      	; 0x5850 <vfprintf+0x150>
    584c:	69 2d       	mov	r22, r9
    584e:	70 e0       	ldi	r23, 0x00	; 0
    5850:	42 e0       	ldi	r20, 0x02	; 2
    5852:	50 e0       	ldi	r21, 0x00	; 0
    5854:	a4 0e       	add	r10, r20
    5856:	b5 1e       	adc	r11, r21
    5858:	c6 01       	movw	r24, r12
    585a:	0e 94 80 2d 	call	0x5b00	; 0x5b00 <strnlen>
    585e:	8c 01       	movw	r16, r24
    5860:	5f e7       	ldi	r21, 0x7F	; 127
    5862:	f5 22       	and	r15, r21
    5864:	14 c0       	rjmp	.+40     	; 0x588e <vfprintf+0x18e>
    5866:	f5 01       	movw	r30, r10
    5868:	c0 80       	ld	r12, Z
    586a:	d1 80       	ldd	r13, Z+1	; 0x01
    586c:	f6 fc       	sbrc	r15, 6
    586e:	03 c0       	rjmp	.+6      	; 0x5876 <vfprintf+0x176>
    5870:	6f ef       	ldi	r22, 0xFF	; 255
    5872:	7f ef       	ldi	r23, 0xFF	; 255
    5874:	02 c0       	rjmp	.+4      	; 0x587a <vfprintf+0x17a>
    5876:	69 2d       	mov	r22, r9
    5878:	70 e0       	ldi	r23, 0x00	; 0
    587a:	42 e0       	ldi	r20, 0x02	; 2
    587c:	50 e0       	ldi	r21, 0x00	; 0
    587e:	a4 0e       	add	r10, r20
    5880:	b5 1e       	adc	r11, r21
    5882:	c6 01       	movw	r24, r12
    5884:	0e 94 75 2d 	call	0x5aea	; 0x5aea <strnlen_P>
    5888:	8c 01       	movw	r16, r24
    588a:	50 e8       	ldi	r21, 0x80	; 128
    588c:	f5 2a       	or	r15, r21
    588e:	f3 fe       	sbrs	r15, 3
    5890:	07 c0       	rjmp	.+14     	; 0x58a0 <vfprintf+0x1a0>
    5892:	1a c0       	rjmp	.+52     	; 0x58c8 <vfprintf+0x1c8>
    5894:	80 e2       	ldi	r24, 0x20	; 32
    5896:	90 e0       	ldi	r25, 0x00	; 0
    5898:	b3 01       	movw	r22, r6
    589a:	0e 94 8b 2d 	call	0x5b16	; 0x5b16 <fputc>
    589e:	ea 94       	dec	r14
    58a0:	8e 2d       	mov	r24, r14
    58a2:	90 e0       	ldi	r25, 0x00	; 0
    58a4:	08 17       	cp	r16, r24
    58a6:	19 07       	cpc	r17, r25
    58a8:	a8 f3       	brcs	.-22     	; 0x5894 <vfprintf+0x194>
    58aa:	0e c0       	rjmp	.+28     	; 0x58c8 <vfprintf+0x1c8>
    58ac:	f6 01       	movw	r30, r12
    58ae:	f7 fc       	sbrc	r15, 7
    58b0:	85 91       	lpm	r24, Z+
    58b2:	f7 fe       	sbrs	r15, 7
    58b4:	81 91       	ld	r24, Z+
    58b6:	6f 01       	movw	r12, r30
    58b8:	90 e0       	ldi	r25, 0x00	; 0
    58ba:	b3 01       	movw	r22, r6
    58bc:	0e 94 8b 2d 	call	0x5b16	; 0x5b16 <fputc>
    58c0:	e1 10       	cpse	r14, r1
    58c2:	ea 94       	dec	r14
    58c4:	01 50       	subi	r16, 0x01	; 1
    58c6:	10 40       	sbci	r17, 0x00	; 0
    58c8:	01 15       	cp	r16, r1
    58ca:	11 05       	cpc	r17, r1
    58cc:	79 f7       	brne	.-34     	; 0x58ac <vfprintf+0x1ac>
    58ce:	ea c0       	rjmp	.+468    	; 0x5aa4 <vfprintf+0x3a4>
    58d0:	94 36       	cpi	r25, 0x64	; 100
    58d2:	11 f0       	breq	.+4      	; 0x58d8 <vfprintf+0x1d8>
    58d4:	99 36       	cpi	r25, 0x69	; 105
    58d6:	69 f5       	brne	.+90     	; 0x5932 <vfprintf+0x232>
    58d8:	f7 fe       	sbrs	r15, 7
    58da:	08 c0       	rjmp	.+16     	; 0x58ec <vfprintf+0x1ec>
    58dc:	f5 01       	movw	r30, r10
    58de:	20 81       	ld	r18, Z
    58e0:	31 81       	ldd	r19, Z+1	; 0x01
    58e2:	42 81       	ldd	r20, Z+2	; 0x02
    58e4:	53 81       	ldd	r21, Z+3	; 0x03
    58e6:	84 e0       	ldi	r24, 0x04	; 4
    58e8:	90 e0       	ldi	r25, 0x00	; 0
    58ea:	0a c0       	rjmp	.+20     	; 0x5900 <vfprintf+0x200>
    58ec:	f5 01       	movw	r30, r10
    58ee:	80 81       	ld	r24, Z
    58f0:	91 81       	ldd	r25, Z+1	; 0x01
    58f2:	9c 01       	movw	r18, r24
    58f4:	44 27       	eor	r20, r20
    58f6:	37 fd       	sbrc	r19, 7
    58f8:	40 95       	com	r20
    58fa:	54 2f       	mov	r21, r20
    58fc:	82 e0       	ldi	r24, 0x02	; 2
    58fe:	90 e0       	ldi	r25, 0x00	; 0
    5900:	a8 0e       	add	r10, r24
    5902:	b9 1e       	adc	r11, r25
    5904:	9f e6       	ldi	r25, 0x6F	; 111
    5906:	f9 22       	and	r15, r25
    5908:	57 ff       	sbrs	r21, 7
    590a:	09 c0       	rjmp	.+18     	; 0x591e <vfprintf+0x21e>
    590c:	50 95       	com	r21
    590e:	40 95       	com	r20
    5910:	30 95       	com	r19
    5912:	21 95       	neg	r18
    5914:	3f 4f       	sbci	r19, 0xFF	; 255
    5916:	4f 4f       	sbci	r20, 0xFF	; 255
    5918:	5f 4f       	sbci	r21, 0xFF	; 255
    591a:	e0 e8       	ldi	r30, 0x80	; 128
    591c:	fe 2a       	or	r15, r30
    591e:	ca 01       	movw	r24, r20
    5920:	b9 01       	movw	r22, r18
    5922:	a1 01       	movw	r20, r2
    5924:	2a e0       	ldi	r18, 0x0A	; 10
    5926:	30 e0       	ldi	r19, 0x00	; 0
    5928:	0e 94 b7 2d 	call	0x5b6e	; 0x5b6e <__ultoa_invert>
    592c:	d8 2e       	mov	r13, r24
    592e:	d2 18       	sub	r13, r2
    5930:	40 c0       	rjmp	.+128    	; 0x59b2 <vfprintf+0x2b2>
    5932:	95 37       	cpi	r25, 0x75	; 117
    5934:	29 f4       	brne	.+10     	; 0x5940 <vfprintf+0x240>
    5936:	1f 2d       	mov	r17, r15
    5938:	1f 7e       	andi	r17, 0xEF	; 239
    593a:	2a e0       	ldi	r18, 0x0A	; 10
    593c:	30 e0       	ldi	r19, 0x00	; 0
    593e:	1d c0       	rjmp	.+58     	; 0x597a <vfprintf+0x27a>
    5940:	1f 2d       	mov	r17, r15
    5942:	19 7f       	andi	r17, 0xF9	; 249
    5944:	9f 36       	cpi	r25, 0x6F	; 111
    5946:	61 f0       	breq	.+24     	; 0x5960 <vfprintf+0x260>
    5948:	90 37       	cpi	r25, 0x70	; 112
    594a:	20 f4       	brcc	.+8      	; 0x5954 <vfprintf+0x254>
    594c:	98 35       	cpi	r25, 0x58	; 88
    594e:	09 f0       	breq	.+2      	; 0x5952 <vfprintf+0x252>
    5950:	ac c0       	rjmp	.+344    	; 0x5aaa <vfprintf+0x3aa>
    5952:	0f c0       	rjmp	.+30     	; 0x5972 <vfprintf+0x272>
    5954:	90 37       	cpi	r25, 0x70	; 112
    5956:	39 f0       	breq	.+14     	; 0x5966 <vfprintf+0x266>
    5958:	98 37       	cpi	r25, 0x78	; 120
    595a:	09 f0       	breq	.+2      	; 0x595e <vfprintf+0x25e>
    595c:	a6 c0       	rjmp	.+332    	; 0x5aaa <vfprintf+0x3aa>
    595e:	04 c0       	rjmp	.+8      	; 0x5968 <vfprintf+0x268>
    5960:	28 e0       	ldi	r18, 0x08	; 8
    5962:	30 e0       	ldi	r19, 0x00	; 0
    5964:	0a c0       	rjmp	.+20     	; 0x597a <vfprintf+0x27a>
    5966:	10 61       	ori	r17, 0x10	; 16
    5968:	14 fd       	sbrc	r17, 4
    596a:	14 60       	ori	r17, 0x04	; 4
    596c:	20 e1       	ldi	r18, 0x10	; 16
    596e:	30 e0       	ldi	r19, 0x00	; 0
    5970:	04 c0       	rjmp	.+8      	; 0x597a <vfprintf+0x27a>
    5972:	14 fd       	sbrc	r17, 4
    5974:	16 60       	ori	r17, 0x06	; 6
    5976:	20 e1       	ldi	r18, 0x10	; 16
    5978:	32 e0       	ldi	r19, 0x02	; 2
    597a:	17 ff       	sbrs	r17, 7
    597c:	08 c0       	rjmp	.+16     	; 0x598e <vfprintf+0x28e>
    597e:	f5 01       	movw	r30, r10
    5980:	60 81       	ld	r22, Z
    5982:	71 81       	ldd	r23, Z+1	; 0x01
    5984:	82 81       	ldd	r24, Z+2	; 0x02
    5986:	93 81       	ldd	r25, Z+3	; 0x03
    5988:	44 e0       	ldi	r20, 0x04	; 4
    598a:	50 e0       	ldi	r21, 0x00	; 0
    598c:	08 c0       	rjmp	.+16     	; 0x599e <vfprintf+0x29e>
    598e:	f5 01       	movw	r30, r10
    5990:	80 81       	ld	r24, Z
    5992:	91 81       	ldd	r25, Z+1	; 0x01
    5994:	bc 01       	movw	r22, r24
    5996:	80 e0       	ldi	r24, 0x00	; 0
    5998:	90 e0       	ldi	r25, 0x00	; 0
    599a:	42 e0       	ldi	r20, 0x02	; 2
    599c:	50 e0       	ldi	r21, 0x00	; 0
    599e:	a4 0e       	add	r10, r20
    59a0:	b5 1e       	adc	r11, r21
    59a2:	a1 01       	movw	r20, r2
    59a4:	0e 94 b7 2d 	call	0x5b6e	; 0x5b6e <__ultoa_invert>
    59a8:	d8 2e       	mov	r13, r24
    59aa:	d2 18       	sub	r13, r2
    59ac:	8f e7       	ldi	r24, 0x7F	; 127
    59ae:	f8 2e       	mov	r15, r24
    59b0:	f1 22       	and	r15, r17
    59b2:	f6 fe       	sbrs	r15, 6
    59b4:	0b c0       	rjmp	.+22     	; 0x59cc <vfprintf+0x2cc>
    59b6:	5e ef       	ldi	r21, 0xFE	; 254
    59b8:	f5 22       	and	r15, r21
    59ba:	d9 14       	cp	r13, r9
    59bc:	38 f4       	brcc	.+14     	; 0x59cc <vfprintf+0x2cc>
    59be:	f4 fe       	sbrs	r15, 4
    59c0:	07 c0       	rjmp	.+14     	; 0x59d0 <vfprintf+0x2d0>
    59c2:	f2 fc       	sbrc	r15, 2
    59c4:	05 c0       	rjmp	.+10     	; 0x59d0 <vfprintf+0x2d0>
    59c6:	8f ee       	ldi	r24, 0xEF	; 239
    59c8:	f8 22       	and	r15, r24
    59ca:	02 c0       	rjmp	.+4      	; 0x59d0 <vfprintf+0x2d0>
    59cc:	1d 2d       	mov	r17, r13
    59ce:	01 c0       	rjmp	.+2      	; 0x59d2 <vfprintf+0x2d2>
    59d0:	19 2d       	mov	r17, r9
    59d2:	f4 fe       	sbrs	r15, 4
    59d4:	0d c0       	rjmp	.+26     	; 0x59f0 <vfprintf+0x2f0>
    59d6:	fe 01       	movw	r30, r28
    59d8:	ed 0d       	add	r30, r13
    59da:	f1 1d       	adc	r31, r1
    59dc:	80 81       	ld	r24, Z
    59de:	80 33       	cpi	r24, 0x30	; 48
    59e0:	19 f4       	brne	.+6      	; 0x59e8 <vfprintf+0x2e8>
    59e2:	99 ee       	ldi	r25, 0xE9	; 233
    59e4:	f9 22       	and	r15, r25
    59e6:	08 c0       	rjmp	.+16     	; 0x59f8 <vfprintf+0x2f8>
    59e8:	1f 5f       	subi	r17, 0xFF	; 255
    59ea:	f2 fe       	sbrs	r15, 2
    59ec:	05 c0       	rjmp	.+10     	; 0x59f8 <vfprintf+0x2f8>
    59ee:	03 c0       	rjmp	.+6      	; 0x59f6 <vfprintf+0x2f6>
    59f0:	8f 2d       	mov	r24, r15
    59f2:	86 78       	andi	r24, 0x86	; 134
    59f4:	09 f0       	breq	.+2      	; 0x59f8 <vfprintf+0x2f8>
    59f6:	1f 5f       	subi	r17, 0xFF	; 255
    59f8:	0f 2d       	mov	r16, r15
    59fa:	f3 fc       	sbrc	r15, 3
    59fc:	14 c0       	rjmp	.+40     	; 0x5a26 <vfprintf+0x326>
    59fe:	f0 fe       	sbrs	r15, 0
    5a00:	0f c0       	rjmp	.+30     	; 0x5a20 <vfprintf+0x320>
    5a02:	1e 15       	cp	r17, r14
    5a04:	10 f0       	brcs	.+4      	; 0x5a0a <vfprintf+0x30a>
    5a06:	9d 2c       	mov	r9, r13
    5a08:	0b c0       	rjmp	.+22     	; 0x5a20 <vfprintf+0x320>
    5a0a:	9d 2c       	mov	r9, r13
    5a0c:	9e 0c       	add	r9, r14
    5a0e:	91 1a       	sub	r9, r17
    5a10:	1e 2d       	mov	r17, r14
    5a12:	06 c0       	rjmp	.+12     	; 0x5a20 <vfprintf+0x320>
    5a14:	80 e2       	ldi	r24, 0x20	; 32
    5a16:	90 e0       	ldi	r25, 0x00	; 0
    5a18:	b3 01       	movw	r22, r6
    5a1a:	0e 94 8b 2d 	call	0x5b16	; 0x5b16 <fputc>
    5a1e:	1f 5f       	subi	r17, 0xFF	; 255
    5a20:	1e 15       	cp	r17, r14
    5a22:	c0 f3       	brcs	.-16     	; 0x5a14 <vfprintf+0x314>
    5a24:	04 c0       	rjmp	.+8      	; 0x5a2e <vfprintf+0x32e>
    5a26:	1e 15       	cp	r17, r14
    5a28:	10 f4       	brcc	.+4      	; 0x5a2e <vfprintf+0x32e>
    5a2a:	e1 1a       	sub	r14, r17
    5a2c:	01 c0       	rjmp	.+2      	; 0x5a30 <vfprintf+0x330>
    5a2e:	ee 24       	eor	r14, r14
    5a30:	04 ff       	sbrs	r16, 4
    5a32:	0f c0       	rjmp	.+30     	; 0x5a52 <vfprintf+0x352>
    5a34:	80 e3       	ldi	r24, 0x30	; 48
    5a36:	90 e0       	ldi	r25, 0x00	; 0
    5a38:	b3 01       	movw	r22, r6
    5a3a:	0e 94 8b 2d 	call	0x5b16	; 0x5b16 <fputc>
    5a3e:	02 ff       	sbrs	r16, 2
    5a40:	1d c0       	rjmp	.+58     	; 0x5a7c <vfprintf+0x37c>
    5a42:	01 fd       	sbrc	r16, 1
    5a44:	03 c0       	rjmp	.+6      	; 0x5a4c <vfprintf+0x34c>
    5a46:	88 e7       	ldi	r24, 0x78	; 120
    5a48:	90 e0       	ldi	r25, 0x00	; 0
    5a4a:	0e c0       	rjmp	.+28     	; 0x5a68 <vfprintf+0x368>
    5a4c:	88 e5       	ldi	r24, 0x58	; 88
    5a4e:	90 e0       	ldi	r25, 0x00	; 0
    5a50:	0b c0       	rjmp	.+22     	; 0x5a68 <vfprintf+0x368>
    5a52:	80 2f       	mov	r24, r16
    5a54:	86 78       	andi	r24, 0x86	; 134
    5a56:	91 f0       	breq	.+36     	; 0x5a7c <vfprintf+0x37c>
    5a58:	01 ff       	sbrs	r16, 1
    5a5a:	02 c0       	rjmp	.+4      	; 0x5a60 <vfprintf+0x360>
    5a5c:	8b e2       	ldi	r24, 0x2B	; 43
    5a5e:	01 c0       	rjmp	.+2      	; 0x5a62 <vfprintf+0x362>
    5a60:	80 e2       	ldi	r24, 0x20	; 32
    5a62:	f7 fc       	sbrc	r15, 7
    5a64:	8d e2       	ldi	r24, 0x2D	; 45
    5a66:	90 e0       	ldi	r25, 0x00	; 0
    5a68:	b3 01       	movw	r22, r6
    5a6a:	0e 94 8b 2d 	call	0x5b16	; 0x5b16 <fputc>
    5a6e:	06 c0       	rjmp	.+12     	; 0x5a7c <vfprintf+0x37c>
    5a70:	80 e3       	ldi	r24, 0x30	; 48
    5a72:	90 e0       	ldi	r25, 0x00	; 0
    5a74:	b3 01       	movw	r22, r6
    5a76:	0e 94 8b 2d 	call	0x5b16	; 0x5b16 <fputc>
    5a7a:	9a 94       	dec	r9
    5a7c:	d9 14       	cp	r13, r9
    5a7e:	c0 f3       	brcs	.-16     	; 0x5a70 <vfprintf+0x370>
    5a80:	da 94       	dec	r13
    5a82:	f1 01       	movw	r30, r2
    5a84:	ed 0d       	add	r30, r13
    5a86:	f1 1d       	adc	r31, r1
    5a88:	80 81       	ld	r24, Z
    5a8a:	90 e0       	ldi	r25, 0x00	; 0
    5a8c:	b3 01       	movw	r22, r6
    5a8e:	0e 94 8b 2d 	call	0x5b16	; 0x5b16 <fputc>
    5a92:	dd 20       	and	r13, r13
    5a94:	a9 f7       	brne	.-22     	; 0x5a80 <vfprintf+0x380>
    5a96:	06 c0       	rjmp	.+12     	; 0x5aa4 <vfprintf+0x3a4>
    5a98:	80 e2       	ldi	r24, 0x20	; 32
    5a9a:	90 e0       	ldi	r25, 0x00	; 0
    5a9c:	b3 01       	movw	r22, r6
    5a9e:	0e 94 8b 2d 	call	0x5b16	; 0x5b16 <fputc>
    5aa2:	ea 94       	dec	r14
    5aa4:	ee 20       	and	r14, r14
    5aa6:	c1 f7       	brne	.-16     	; 0x5a98 <vfprintf+0x398>
    5aa8:	43 ce       	rjmp	.-890    	; 0x5730 <vfprintf+0x30>
    5aaa:	f3 01       	movw	r30, r6
    5aac:	66 81       	ldd	r22, Z+6	; 0x06
    5aae:	77 81       	ldd	r23, Z+7	; 0x07
    5ab0:	cb 01       	movw	r24, r22
    5ab2:	2b 96       	adiw	r28, 0x0b	; 11
    5ab4:	e2 e1       	ldi	r30, 0x12	; 18
    5ab6:	0c 94 b7 29 	jmp	0x536e	; 0x536e <__epilogue_restores__>

00005aba <__eerd_byte_m32>:
    5aba:	e1 99       	sbic	0x1c, 1	; 28
    5abc:	fe cf       	rjmp	.-4      	; 0x5aba <__eerd_byte_m32>
    5abe:	9f bb       	out	0x1f, r25	; 31
    5ac0:	8e bb       	out	0x1e, r24	; 30
    5ac2:	e0 9a       	sbi	0x1c, 0	; 28
    5ac4:	99 27       	eor	r25, r25
    5ac6:	8d b3       	in	r24, 0x1d	; 29
    5ac8:	08 95       	ret

00005aca <__eewr_byte_m32>:
    5aca:	26 2f       	mov	r18, r22

00005acc <__eewr_r18_m32>:
    5acc:	e1 99       	sbic	0x1c, 1	; 28
    5ace:	fe cf       	rjmp	.-4      	; 0x5acc <__eewr_r18_m32>
    5ad0:	9f bb       	out	0x1f, r25	; 31
    5ad2:	8e bb       	out	0x1e, r24	; 30
    5ad4:	2d bb       	out	0x1d, r18	; 29
    5ad6:	0f b6       	in	r0, 0x3f	; 63
    5ad8:	f8 94       	cli
    5ada:	e2 9a       	sbi	0x1c, 2	; 28
    5adc:	e1 9a       	sbi	0x1c, 1	; 28
    5ade:	0f be       	out	0x3f, r0	; 63
    5ae0:	01 96       	adiw	r24, 0x01	; 1
    5ae2:	08 95       	ret

00005ae4 <__ctype_isfalse>:
    5ae4:	99 27       	eor	r25, r25
    5ae6:	88 27       	eor	r24, r24

00005ae8 <__ctype_istrue>:
    5ae8:	08 95       	ret

00005aea <strnlen_P>:
    5aea:	fc 01       	movw	r30, r24
    5aec:	05 90       	lpm	r0, Z+
    5aee:	61 50       	subi	r22, 0x01	; 1
    5af0:	70 40       	sbci	r23, 0x00	; 0
    5af2:	01 10       	cpse	r0, r1
    5af4:	d8 f7       	brcc	.-10     	; 0x5aec <strnlen_P+0x2>
    5af6:	80 95       	com	r24
    5af8:	90 95       	com	r25
    5afa:	8e 0f       	add	r24, r30
    5afc:	9f 1f       	adc	r25, r31
    5afe:	08 95       	ret

00005b00 <strnlen>:
    5b00:	fc 01       	movw	r30, r24
    5b02:	61 50       	subi	r22, 0x01	; 1
    5b04:	70 40       	sbci	r23, 0x00	; 0
    5b06:	01 90       	ld	r0, Z+
    5b08:	01 10       	cpse	r0, r1
    5b0a:	d8 f7       	brcc	.-10     	; 0x5b02 <strnlen+0x2>
    5b0c:	80 95       	com	r24
    5b0e:	90 95       	com	r25
    5b10:	8e 0f       	add	r24, r30
    5b12:	9f 1f       	adc	r25, r31
    5b14:	08 95       	ret

00005b16 <fputc>:
    5b16:	0f 93       	push	r16
    5b18:	1f 93       	push	r17
    5b1a:	cf 93       	push	r28
    5b1c:	df 93       	push	r29
    5b1e:	8c 01       	movw	r16, r24
    5b20:	eb 01       	movw	r28, r22
    5b22:	8b 81       	ldd	r24, Y+3	; 0x03
    5b24:	81 ff       	sbrs	r24, 1
    5b26:	1b c0       	rjmp	.+54     	; 0x5b5e <fputc+0x48>
    5b28:	82 ff       	sbrs	r24, 2
    5b2a:	0d c0       	rjmp	.+26     	; 0x5b46 <fputc+0x30>
    5b2c:	2e 81       	ldd	r18, Y+6	; 0x06
    5b2e:	3f 81       	ldd	r19, Y+7	; 0x07
    5b30:	8c 81       	ldd	r24, Y+4	; 0x04
    5b32:	9d 81       	ldd	r25, Y+5	; 0x05
    5b34:	28 17       	cp	r18, r24
    5b36:	39 07       	cpc	r19, r25
    5b38:	64 f4       	brge	.+24     	; 0x5b52 <fputc+0x3c>
    5b3a:	e8 81       	ld	r30, Y
    5b3c:	f9 81       	ldd	r31, Y+1	; 0x01
    5b3e:	01 93       	st	Z+, r16
    5b40:	f9 83       	std	Y+1, r31	; 0x01
    5b42:	e8 83       	st	Y, r30
    5b44:	06 c0       	rjmp	.+12     	; 0x5b52 <fputc+0x3c>
    5b46:	e8 85       	ldd	r30, Y+8	; 0x08
    5b48:	f9 85       	ldd	r31, Y+9	; 0x09
    5b4a:	80 2f       	mov	r24, r16
    5b4c:	09 95       	icall
    5b4e:	89 2b       	or	r24, r25
    5b50:	31 f4       	brne	.+12     	; 0x5b5e <fputc+0x48>
    5b52:	8e 81       	ldd	r24, Y+6	; 0x06
    5b54:	9f 81       	ldd	r25, Y+7	; 0x07
    5b56:	01 96       	adiw	r24, 0x01	; 1
    5b58:	9f 83       	std	Y+7, r25	; 0x07
    5b5a:	8e 83       	std	Y+6, r24	; 0x06
    5b5c:	02 c0       	rjmp	.+4      	; 0x5b62 <fputc+0x4c>
    5b5e:	0f ef       	ldi	r16, 0xFF	; 255
    5b60:	1f ef       	ldi	r17, 0xFF	; 255
    5b62:	c8 01       	movw	r24, r16
    5b64:	df 91       	pop	r29
    5b66:	cf 91       	pop	r28
    5b68:	1f 91       	pop	r17
    5b6a:	0f 91       	pop	r16
    5b6c:	08 95       	ret

00005b6e <__ultoa_invert>:
    5b6e:	fa 01       	movw	r30, r20
    5b70:	aa 27       	eor	r26, r26
    5b72:	28 30       	cpi	r18, 0x08	; 8
    5b74:	51 f1       	breq	.+84     	; 0x5bca <__ultoa_invert+0x5c>
    5b76:	20 31       	cpi	r18, 0x10	; 16
    5b78:	81 f1       	breq	.+96     	; 0x5bda <__ultoa_invert+0x6c>
    5b7a:	e8 94       	clt
    5b7c:	6f 93       	push	r22
    5b7e:	6e 7f       	andi	r22, 0xFE	; 254
    5b80:	6e 5f       	subi	r22, 0xFE	; 254
    5b82:	7f 4f       	sbci	r23, 0xFF	; 255
    5b84:	8f 4f       	sbci	r24, 0xFF	; 255
    5b86:	9f 4f       	sbci	r25, 0xFF	; 255
    5b88:	af 4f       	sbci	r26, 0xFF	; 255
    5b8a:	b1 e0       	ldi	r27, 0x01	; 1
    5b8c:	3e d0       	rcall	.+124    	; 0x5c0a <__ultoa_invert+0x9c>
    5b8e:	b4 e0       	ldi	r27, 0x04	; 4
    5b90:	3c d0       	rcall	.+120    	; 0x5c0a <__ultoa_invert+0x9c>
    5b92:	67 0f       	add	r22, r23
    5b94:	78 1f       	adc	r23, r24
    5b96:	89 1f       	adc	r24, r25
    5b98:	9a 1f       	adc	r25, r26
    5b9a:	a1 1d       	adc	r26, r1
    5b9c:	68 0f       	add	r22, r24
    5b9e:	79 1f       	adc	r23, r25
    5ba0:	8a 1f       	adc	r24, r26
    5ba2:	91 1d       	adc	r25, r1
    5ba4:	a1 1d       	adc	r26, r1
    5ba6:	6a 0f       	add	r22, r26
    5ba8:	71 1d       	adc	r23, r1
    5baa:	81 1d       	adc	r24, r1
    5bac:	91 1d       	adc	r25, r1
    5bae:	a1 1d       	adc	r26, r1
    5bb0:	20 d0       	rcall	.+64     	; 0x5bf2 <__ultoa_invert+0x84>
    5bb2:	09 f4       	brne	.+2      	; 0x5bb6 <__ultoa_invert+0x48>
    5bb4:	68 94       	set
    5bb6:	3f 91       	pop	r19
    5bb8:	2a e0       	ldi	r18, 0x0A	; 10
    5bba:	26 9f       	mul	r18, r22
    5bbc:	11 24       	eor	r1, r1
    5bbe:	30 19       	sub	r19, r0
    5bc0:	30 5d       	subi	r19, 0xD0	; 208
    5bc2:	31 93       	st	Z+, r19
    5bc4:	de f6       	brtc	.-74     	; 0x5b7c <__ultoa_invert+0xe>
    5bc6:	cf 01       	movw	r24, r30
    5bc8:	08 95       	ret
    5bca:	46 2f       	mov	r20, r22
    5bcc:	47 70       	andi	r20, 0x07	; 7
    5bce:	40 5d       	subi	r20, 0xD0	; 208
    5bd0:	41 93       	st	Z+, r20
    5bd2:	b3 e0       	ldi	r27, 0x03	; 3
    5bd4:	0f d0       	rcall	.+30     	; 0x5bf4 <__ultoa_invert+0x86>
    5bd6:	c9 f7       	brne	.-14     	; 0x5bca <__ultoa_invert+0x5c>
    5bd8:	f6 cf       	rjmp	.-20     	; 0x5bc6 <__ultoa_invert+0x58>
    5bda:	46 2f       	mov	r20, r22
    5bdc:	4f 70       	andi	r20, 0x0F	; 15
    5bde:	40 5d       	subi	r20, 0xD0	; 208
    5be0:	4a 33       	cpi	r20, 0x3A	; 58
    5be2:	18 f0       	brcs	.+6      	; 0x5bea <__ultoa_invert+0x7c>
    5be4:	49 5d       	subi	r20, 0xD9	; 217
    5be6:	31 fd       	sbrc	r19, 1
    5be8:	40 52       	subi	r20, 0x20	; 32
    5bea:	41 93       	st	Z+, r20
    5bec:	02 d0       	rcall	.+4      	; 0x5bf2 <__ultoa_invert+0x84>
    5bee:	a9 f7       	brne	.-22     	; 0x5bda <__ultoa_invert+0x6c>
    5bf0:	ea cf       	rjmp	.-44     	; 0x5bc6 <__ultoa_invert+0x58>
    5bf2:	b4 e0       	ldi	r27, 0x04	; 4
    5bf4:	a6 95       	lsr	r26
    5bf6:	97 95       	ror	r25
    5bf8:	87 95       	ror	r24
    5bfa:	77 95       	ror	r23
    5bfc:	67 95       	ror	r22
    5bfe:	ba 95       	dec	r27
    5c00:	c9 f7       	brne	.-14     	; 0x5bf4 <__ultoa_invert+0x86>
    5c02:	00 97       	sbiw	r24, 0x00	; 0
    5c04:	61 05       	cpc	r22, r1
    5c06:	71 05       	cpc	r23, r1
    5c08:	08 95       	ret
    5c0a:	9b 01       	movw	r18, r22
    5c0c:	ac 01       	movw	r20, r24
    5c0e:	0a 2e       	mov	r0, r26
    5c10:	06 94       	lsr	r0
    5c12:	57 95       	ror	r21
    5c14:	47 95       	ror	r20
    5c16:	37 95       	ror	r19
    5c18:	27 95       	ror	r18
    5c1a:	ba 95       	dec	r27
    5c1c:	c9 f7       	brne	.-14     	; 0x5c10 <__ultoa_invert+0xa2>
    5c1e:	62 0f       	add	r22, r18
    5c20:	73 1f       	adc	r23, r19
    5c22:	84 1f       	adc	r24, r20
    5c24:	95 1f       	adc	r25, r21
    5c26:	a0 1d       	adc	r26, r0
    5c28:	08 95       	ret

00005c2a <__mulsi3>:
    5c2a:	62 9f       	mul	r22, r18
    5c2c:	d0 01       	movw	r26, r0
    5c2e:	73 9f       	mul	r23, r19
    5c30:	f0 01       	movw	r30, r0
    5c32:	82 9f       	mul	r24, r18
    5c34:	e0 0d       	add	r30, r0
    5c36:	f1 1d       	adc	r31, r1
    5c38:	64 9f       	mul	r22, r20
    5c3a:	e0 0d       	add	r30, r0
    5c3c:	f1 1d       	adc	r31, r1
    5c3e:	92 9f       	mul	r25, r18
    5c40:	f0 0d       	add	r31, r0
    5c42:	83 9f       	mul	r24, r19
    5c44:	f0 0d       	add	r31, r0
    5c46:	74 9f       	mul	r23, r20
    5c48:	f0 0d       	add	r31, r0
    5c4a:	65 9f       	mul	r22, r21
    5c4c:	f0 0d       	add	r31, r0
    5c4e:	99 27       	eor	r25, r25
    5c50:	72 9f       	mul	r23, r18
    5c52:	b0 0d       	add	r27, r0
    5c54:	e1 1d       	adc	r30, r1
    5c56:	f9 1f       	adc	r31, r25
    5c58:	63 9f       	mul	r22, r19
    5c5a:	b0 0d       	add	r27, r0
    5c5c:	e1 1d       	adc	r30, r1
    5c5e:	f9 1f       	adc	r31, r25
    5c60:	bd 01       	movw	r22, r26
    5c62:	cf 01       	movw	r24, r30
    5c64:	11 24       	eor	r1, r1
    5c66:	08 95       	ret

00005c68 <__udivmodsi4>:
    5c68:	a1 e2       	ldi	r26, 0x21	; 33
    5c6a:	1a 2e       	mov	r1, r26
    5c6c:	aa 1b       	sub	r26, r26
    5c6e:	bb 1b       	sub	r27, r27
    5c70:	fd 01       	movw	r30, r26
    5c72:	0d c0       	rjmp	.+26     	; 0x5c8e <__udivmodsi4_ep>

00005c74 <__udivmodsi4_loop>:
    5c74:	aa 1f       	adc	r26, r26
    5c76:	bb 1f       	adc	r27, r27
    5c78:	ee 1f       	adc	r30, r30
    5c7a:	ff 1f       	adc	r31, r31
    5c7c:	a2 17       	cp	r26, r18
    5c7e:	b3 07       	cpc	r27, r19
    5c80:	e4 07       	cpc	r30, r20
    5c82:	f5 07       	cpc	r31, r21
    5c84:	20 f0       	brcs	.+8      	; 0x5c8e <__udivmodsi4_ep>
    5c86:	a2 1b       	sub	r26, r18
    5c88:	b3 0b       	sbc	r27, r19
    5c8a:	e4 0b       	sbc	r30, r20
    5c8c:	f5 0b       	sbc	r31, r21

00005c8e <__udivmodsi4_ep>:
    5c8e:	66 1f       	adc	r22, r22
    5c90:	77 1f       	adc	r23, r23
    5c92:	88 1f       	adc	r24, r24
    5c94:	99 1f       	adc	r25, r25
    5c96:	1a 94       	dec	r1
    5c98:	69 f7       	brne	.-38     	; 0x5c74 <__udivmodsi4_loop>
    5c9a:	60 95       	com	r22
    5c9c:	70 95       	com	r23
    5c9e:	80 95       	com	r24
    5ca0:	90 95       	com	r25
    5ca2:	9b 01       	movw	r18, r22
    5ca4:	ac 01       	movw	r20, r24
    5ca6:	bd 01       	movw	r22, r26
    5ca8:	cf 01       	movw	r24, r30
    5caa:	08 95       	ret

00005cac <_exit>:
    5cac:	f8 94       	cli

00005cae <__stop_program>:
    5cae:	ff cf       	rjmp	.-2      	; 0x5cae <__stop_program>
